 PhysXCommon_64d

 Timestamp is 60824f43 (Fri Apr 23 13:38:27 2021)

 Preferred load address is 0000000180000000

 Start         Length     Name                   Class
 0001:00000000 00008030H .text$di                CODE
 0001:00008030 001c9090H .text$mn                CODE
 0001:001d10c0 00000040H .text$mn$00             CODE
 0001:001d1100 00000100H .text$x                 CODE
 0002:00000000 00000328H .idata$5                DATA
 0002:00000328 00000028H .00cfg                  DATA
 0002:00000350 00000008H .CRT$XCA                DATA
 0002:00000358 00001458H .CRT$XCU                DATA
 0002:000017b0 00000008H .CRT$XCZ                DATA
 0002:000017b8 00000008H .CRT$XIA                DATA
 0002:000017c0 00000008H .CRT$XIZ                DATA
 0002:000017c8 00000008H .CRT$XPA                DATA
 0002:000017d0 00000008H .CRT$XPZ                DATA
 0002:000017d8 00000008H .CRT$XTA                DATA
 0002:000017e0 00000010H .CRT$XTZ                DATA
 0002:000017e8 00000000H .gehcont$y              DATA
 0002:000017e8 00000000H .gfids$y                DATA
 0002:000017f0 0000bb90H .rdata                  DATA
 0002:0000d380 00000008H .rdata$CastGuardVftablesA DATA
 0002:0000d388 00000008H .rdata$CastGuardVftablesC DATA
 0002:0000d390 00000074H .rdata$r                DATA
 0002:0000d404 000003b4H .rdata$zzzdbg           DATA
 0002:0000d7b8 00000008H .rtc$IAA                DATA
 0002:0000d7c0 00000430H .rtc$IMZ                DATA
 0002:0000dbf0 00000008H .rtc$IZZ                DATA
 0002:0000dbf8 00000008H .rtc$TAA                DATA
 0002:0000dc00 00000430H .rtc$TMZ                DATA
 0002:0000e030 00000008H .rtc$TZZ                DATA
 0002:0000e038 00008908H .xdata                  DATA
 0002:00016940 0000a4c0H .edata                  DATA
 0002:00020e00 00000050H .idata$2                DATA
 0002:00020e50 00000018H .idata$3                DATA
 0002:00020e68 00000328H .idata$4                DATA
 0002:00021190 000009eaH .idata$6                DATA
 0003:00000000 000007e0H .data                   DATA
 0003:000007e0 000003e8H .data$r                 DATA
 0003:00000bc8 00000028H .data$rs                DATA
 0003:00000bf0 000038c8H .bss                    DATA
 0004:00000000 0000c90cH .pdata                  DATA
 0005:00000000 000000a0H .rsrc$01                DATA
 0005:000000a0 000004b0H .rsrc$02                DATA

  Address         Publics by Value              Rva+Base               Lib:Object

 0000:00000000       __hybrid_auxiliary_iat     0000000000000000     <absolute>
 0000:00000000       __arm64x_native_entrypoint 0000000000000000     <absolute>
 0000:00000000       ___safe_se_handler_count   0000000000000000     <absolute>
 0000:00000000       __guard_longjmp_table      0000000000000000     <absolute>
 0000:00000000       __x64_code_ranges_to_entry_points 0000000000000000     <absolute>
 0000:00000000       __guard_longjmp_count      0000000000000000     <absolute>
 0000:00000000       __guard_fids_table         0000000000000000     <absolute>
 0000:00000000       __hybrid_auxiliary_iat_copy 0000000000000000     <absolute>
 0000:00000000       __arm64x_extra_rfe_table   0000000000000000     <absolute>
 0000:00000000       __arm64x_extra_rfe_table_size 0000000000000000     <absolute>
 0000:00000000       __volatile_metadata        0000000000000000     <absolute>
 0000:00000000       ___safe_se_handler_table   0000000000000000     <absolute>
 0000:00000000       __hybrid_code_map_count    0000000000000000     <absolute>
 0000:00000000       __hybrid_code_map          0000000000000000     <absolute>
 0000:00000000       __guard_eh_cont_table      0000000000000000     <absolute>
 0000:00000000       __enclave_config           0000000000000000     <absolute>
 0000:00000000       __x64_code_ranges_to_entry_points_count 0000000000000000     <absolute>
 0000:00000000       __guard_check_icall_a64n_fptr 0000000000000000     <absolute>
 0000:00000000       __guard_iat_count          0000000000000000     <absolute>
 0000:00000000       __guard_eh_cont_count      0000000000000000     <absolute>
 0000:00000000       __dynamic_value_reloc_table 0000000000000000     <absolute>
 0000:00000000       __arm64x_redirection_metadata_count 0000000000000000     <absolute>
 0000:00000000       __guard_fids_count         0000000000000000     <absolute>
 0000:00000000       __arm64x_redirection_metadata 0000000000000000     <absolute>
 0000:00000000       __guard_iat_table          0000000000000000     <absolute>
 0000:00000000       __AbsoluteZero             0000000000000000     <absolute>
 0000:00000100       __guard_flags              0000000000000100     <absolute>
 0000:00000000       __ImageBase                0000000180000000     <linker-defined>
 0001:00008030       ?PxCreateCollection@@YAPEAVPxCollection@physx@@XZ 0000000180009030 f   CmCollection.obj
 0001:000080a0       ?add@Collection@Cm@physx@@UEAAXAEAVPxBase@3@_K@Z 00000001800090a0 f   CmCollection.obj
 0001:000081a0       ?remove@Collection@Cm@physx@@UEAAXAEAVPxBase@3@@Z 00000001800091a0 f   CmCollection.obj
 0001:00008290       ?contains@Collection@Cm@physx@@UEBA_NAEAVPxBase@3@@Z 0000000180009290 f   CmCollection.obj
 0001:000082f0       ?addId@Collection@Cm@physx@@UEAAXAEAVPxBase@3@_K@Z 00000001800092f0 f   CmCollection.obj
 0001:000084c0       ?removeId@Collection@Cm@physx@@UEAAX_K@Z 00000001800094c0 f   CmCollection.obj
 0001:000085e0       ?find@Collection@Cm@physx@@UEBAPEAVPxBase@3@_K@Z 00000001800095e0 f   CmCollection.obj
 0001:00008680       ?add@Collection@Cm@physx@@UEAAXAEAVPxCollection@3@@Z 0000000180009680 f   CmCollection.obj
 0001:000088a0       ?remove@Collection@Cm@physx@@UEAAXAEAVPxCollection@3@@Z 00000001800098a0 f   CmCollection.obj
 0001:000089c0       ?getNbObjects@Collection@Cm@physx@@UEBAIXZ 00000001800099c0 f   CmCollection.obj
 0001:000089f0       ?getObject@Collection@Cm@physx@@UEBAAEAVPxBase@3@I@Z 00000001800099f0 f   CmCollection.obj
 0001:00008a90       ?getObjects@Collection@Cm@physx@@UEBAIPEAPEAVPxBase@3@II@Z 0000000180009a90 f   CmCollection.obj
 0001:00008bc0       ?getNbIds@Collection@Cm@physx@@UEBAIXZ 0000000180009bc0 f   CmCollection.obj
 0001:00008bf0       ?getId@Collection@Cm@physx@@UEBA_KAEBVPxBase@3@@Z 0000000180009bf0 f   CmCollection.obj
 0001:00008c60       ?getIds@Collection@Cm@physx@@UEBAIPEA_KII@Z 0000000180009c60 f   CmCollection.obj
 0001:00008dc0       ??$?2V?$ReflectionAllocator@VCollection@Cm@physx@@@shdfnd@physx@@@UserAllocated@shdfnd@physx@@SAPEAX_KV?$ReflectionAllocator@VCollection@Cm@physx@@@12@PEBDH@Z 0000000180009dc0 f i CmCollection.obj
 0001:00008e00       ??0?$CoalescedHashMap@PEAVPxBase@physx@@_KU?$Hash@PEAVPxBase@physx@@@shdfnd@2@VNonTrackingAllocator@42@@shdfnd@physx@@QEAA@IM@Z 0000000180009e00 f i CmCollection.obj
 0001:00008e40       ??0?$CoalescedHashMap@_KPEAVPxBase@physx@@U?$Hash@_K@shdfnd@2@VNonTrackingAllocator@42@@shdfnd@physx@@QEAA@IM@Z 0000000180009e40 f i CmCollection.obj
 0001:00008e80       ??0?$CollectionHashMap@PEAVPxBase@physx@@_KU?$Hash@PEAVPxBase@physx@@@shdfnd@2@VNonTrackingAllocator@42@@Cm@physx@@QEAA@IM@Z 0000000180009e80 f i CmCollection.obj
 0001:00008ec0       ??0?$CollectionHashMap@_KPEAVPxBase@physx@@U?$Hash@_K@shdfnd@2@VNonTrackingAllocator@42@@Cm@physx@@QEAA@IM@Z 0000000180009ec0 f i CmCollection.obj
 0001:00008f00       ??0?$HashBase@V?$Pair@$$CB_KPEAVPxBase@physx@@@shdfnd@physx@@_KU?$Hash@_K@23@UGetKey@?$HashMapBase@_KPEAVPxBase@physx@@U?$Hash@_K@shdfnd@2@VNonTrackingAllocator@42@@internal@23@VNonTrackingAllocator@23@$00@internal@shdfnd@physx@@QEAA@IM@Z 0000000180009f00 f i CmCollection.obj
 0001:00008f50       ??0?$HashBase@V?$Pair@QEAVPxBase@physx@@_K@shdfnd@physx@@PEAVPxBase@3@U?$Hash@PEAVPxBase@physx@@@23@UGetKey@?$HashMapBase@PEAVPxBase@physx@@_KU?$Hash@PEAVPxBase@physx@@@shdfnd@2@VNonTrackingAllocator@42@@internal@23@VNonTrackingAllocator@23@$00@internal@shdfnd@physx@@QEAA@IM@Z 0000000180009f50 f i CmCollection.obj
 0001:00008fa0       ??0?$HashMapBase@PEAVPxBase@physx@@_KU?$Hash@PEAVPxBase@physx@@@shdfnd@2@VNonTrackingAllocator@42@@internal@shdfnd@physx@@QEAA@IM@Z 0000000180009fa0 f i CmCollection.obj
 0001:00008fe0       ??0?$HashMapBase@_KPEAVPxBase@physx@@U?$Hash@_K@shdfnd@2@VNonTrackingAllocator@42@@internal@shdfnd@physx@@QEAA@IM@Z 0000000180009fe0 f i CmCollection.obj
 0001:00009020       ??0?$Pair@$$CB_KPEAVPxBase@physx@@@shdfnd@physx@@QEAA@AEBV012@@Z 000000018000a020 f i CmCollection.obj
 0001:00009060       ??0?$Pair@$$CB_KPEAVPxBase@physx@@@shdfnd@physx@@QEAA@AEB_KAEBQEAVPxBase@2@@Z 000000018000a060 f i CmCollection.obj
 0001:000090a0       ??0?$Pair@QEAVPxBase@physx@@_K@shdfnd@physx@@QEAA@AEBQEAVPxBase@2@AEB_K@Z 000000018000a0a0 f i CmCollection.obj
 0001:000090e0       ??0?$Pair@QEAVPxBase@physx@@_K@shdfnd@physx@@QEAA@AEBV012@@Z 000000018000a0e0 f i CmCollection.obj
 0001:00009120       ??0?$ReflectionAllocator@VCollection@Cm@physx@@@shdfnd@physx@@QEAA@PEBD@Z 000000018000a120 f i CmCollection.obj
 0001:00009130       ??0Collection@Cm@physx@@QEAA@XZ 000000018000a130 f i CmCollection.obj
 0001:000091a0       ??0Iter@?$HashBase@V?$Pair@$$CB_KPEAVPxBase@physx@@@shdfnd@physx@@_KU?$Hash@_K@23@UGetKey@?$HashMapBase@_KPEAVPxBase@physx@@U?$Hash@_K@shdfnd@2@VNonTrackingAllocator@42@@internal@23@VNonTrackingAllocator@23@$00@internal@shdfnd@physx@@QEAA@AEAV1234@@Z 000000018000a1a0 f i CmCollection.obj
 0001:00009230       ??0NonTrackingAllocator@shdfnd@physx@@QEAA@PEBD@Z 000000018000a230 f i CmCollection.obj
 0001:00009240       ??0PxCollection@physx@@IEAA@XZ 000000018000a240 f i CmCollection.obj
 0001:00009260       ??1?$CoalescedHashMap@PEAVPxBase@physx@@_KU?$Hash@PEAVPxBase@physx@@@shdfnd@2@VNonTrackingAllocator@42@@shdfnd@physx@@QEAA@XZ 000000018000a260 f i CmCollection.obj
 0001:00009280       ??1?$CoalescedHashMap@_KPEAVPxBase@physx@@U?$Hash@_K@shdfnd@2@VNonTrackingAllocator@42@@shdfnd@physx@@QEAA@XZ 000000018000a280 f i CmCollection.obj
 0001:000092a0       ??1?$CollectionHashMap@PEAVPxBase@physx@@_KU?$Hash@PEAVPxBase@physx@@@shdfnd@2@VNonTrackingAllocator@42@@Cm@physx@@QEAA@XZ 000000018000a2a0 f i CmCollection.obj
 0001:000092c0       ??1?$CollectionHashMap@_KPEAVPxBase@physx@@U?$Hash@_K@shdfnd@2@VNonTrackingAllocator@42@@Cm@physx@@QEAA@XZ 000000018000a2c0 f i CmCollection.obj
 0001:000092e0       ??1?$HashBase@V?$Pair@$$CB_KPEAVPxBase@physx@@@shdfnd@physx@@_KU?$Hash@_K@23@UGetKey@?$HashMapBase@_KPEAVPxBase@physx@@U?$Hash@_K@shdfnd@2@VNonTrackingAllocator@42@@internal@23@VNonTrackingAllocator@23@$00@internal@shdfnd@physx@@QEAA@XZ 000000018000a2e0 f i CmCollection.obj
 0001:00009320       ??1?$HashBase@V?$Pair@QEAVPxBase@physx@@_K@shdfnd@physx@@PEAVPxBase@3@U?$Hash@PEAVPxBase@physx@@@23@UGetKey@?$HashMapBase@PEAVPxBase@physx@@_KU?$Hash@PEAVPxBase@physx@@@shdfnd@2@VNonTrackingAllocator@42@@internal@23@VNonTrackingAllocator@23@$00@internal@shdfnd@physx@@QEAA@XZ 000000018000a320 f i CmCollection.obj
 0001:00009360       ??1?$HashMapBase@PEAVPxBase@physx@@_KU?$Hash@PEAVPxBase@physx@@@shdfnd@2@VNonTrackingAllocator@42@@internal@shdfnd@physx@@QEAA@XZ 000000018000a360 f i CmCollection.obj
 0001:00009380       ??1?$HashMapBase@_KPEAVPxBase@physx@@U?$Hash@_K@shdfnd@2@VNonTrackingAllocator@42@@internal@shdfnd@physx@@QEAA@XZ 000000018000a380 f i CmCollection.obj
 0001:000093a0       ??1Collection@Cm@physx@@UEAA@XZ 000000018000a3a0 f i CmCollection.obj
 0001:000093e0       ??1PxCollection@physx@@MEAA@XZ 000000018000a3e0 f i CmCollection.obj
 0001:00009400       ??2@YAPEAX_KPEAX@Z         000000018000a400 f i CmCollection.obj
 0001:00009410       ??3UserAllocated@shdfnd@physx@@SAXPEAX@Z 000000018000a410 f i CmCollection.obj
 0001:00009440       ??A?$HashMapBase@PEAVPxBase@physx@@_KU?$Hash@PEAVPxBase@physx@@@shdfnd@2@VNonTrackingAllocator@42@@internal@shdfnd@physx@@QEAAAEA_KAEBQEAVPxBase@3@@Z 000000018000a440 f i CmCollection.obj
 0001:000094c0       ??A?$HashMapBase@_KPEAVPxBase@physx@@U?$Hash@_K@shdfnd@2@VNonTrackingAllocator@42@@internal@shdfnd@physx@@QEAAAEAPEAVPxBase@3@AEB_K@Z 000000018000a4c0 f i CmCollection.obj
 0001:00009540       ??CIter@?$HashBase@V?$Pair@$$CB_KPEAVPxBase@physx@@@shdfnd@physx@@_KU?$Hash@_K@23@UGetKey@?$HashMapBase@_KPEAVPxBase@physx@@U?$Hash@_K@shdfnd@2@VNonTrackingAllocator@42@@internal@23@VNonTrackingAllocator@23@$00@internal@shdfnd@physx@@QEAAPEAV?$Pair@$$CB_KPEAVPxBase@physx@@@34@XZ 000000018000a540 f i CmCollection.obj
 0001:00009580       ??EIter@?$HashBase@V?$Pair@$$CB_KPEAVPxBase@physx@@@shdfnd@physx@@_KU?$Hash@_K@23@UGetKey@?$HashMapBase@_KPEAVPxBase@physx@@U?$Hash@_K@shdfnd@2@VNonTrackingAllocator@42@@internal@23@VNonTrackingAllocator@23@$00@internal@shdfnd@physx@@QEAA?AV01234@H@Z 000000018000a580 f i CmCollection.obj
 0001:000095e0       ??R?$Hash@PEAVPxBase@physx@@@shdfnd@physx@@QEBAIAEBQEAVPxBase@2@@Z 000000018000a5e0 f i CmCollection.obj
 0001:00009600       ??R?$Hash@_K@shdfnd@physx@@QEBAIAEB_K@Z 000000018000a600 f i CmCollection.obj
 0001:00009620       ??RGetKey@?$HashMapBase@PEAVPxBase@physx@@_KU?$Hash@PEAVPxBase@physx@@@shdfnd@2@VNonTrackingAllocator@42@@internal@shdfnd@physx@@QEAAAEBQEAVPxBase@4@AEBV?$Pair@QEAVPxBase@physx@@_K@34@@Z 000000018000a620 f i CmCollection.obj
 0001:00009630       ??RGetKey@?$HashMapBase@_KPEAVPxBase@physx@@U?$Hash@_K@shdfnd@2@VNonTrackingAllocator@42@@internal@shdfnd@physx@@QEAAAEB_KAEBV?$Pair@$$CB_KPEAVPxBase@physx@@@34@@Z 000000018000a630 f i CmCollection.obj
 0001:00009640       ??_GCollection@Cm@physx@@UEAAPEAXI@Z 000000018000a640 f i CmCollection.obj
 0001:00009640       ??_ECollection@Cm@physx@@UEAAPEAXI@Z 000000018000a640 f i CmCollection.obj
 0001:000096a0       ??_GPxCollection@physx@@MEAAPEAXI@Z 000000018000a6a0 f i CmCollection.obj
 0001:000096a0       ??_EPxCollection@physx@@MEAAPEAXI@Z 000000018000a6a0 f i CmCollection.obj
 0001:000096e0       ?__empty_global_delete@@YAXPEAX@Z 000000018000a6e0 f i CmCollection.obj
 0001:000096f0       ?__empty_global_delete@@YAXPEAX_K@Z 000000018000a6f0 f i CmCollection.obj
 0001:00009700       ?advance@Iter@?$HashBase@V?$Pair@$$CB_KPEAVPxBase@physx@@@shdfnd@physx@@_KU?$Hash@_K@23@UGetKey@?$HashMapBase@_KPEAVPxBase@physx@@U?$Hash@_K@shdfnd@2@VNonTrackingAllocator@42@@internal@23@VNonTrackingAllocator@23@$00@internal@shdfnd@physx@@AEAAXXZ 000000018000a700 f i CmCollection.obj
 0001:00009740       ?allocate@?$ReflectionAllocator@VCollection@Cm@physx@@@shdfnd@physx@@QEAAPEAX_KPEBDH@Z 000000018000a740 f i CmCollection.obj
 0001:000097c0       ?allocate@NonTrackingAllocator@shdfnd@physx@@QEAAPEAX_KPEBDH@Z 000000018000a7c0 f i CmCollection.obj
 0001:00009830       ?capacity@?$HashBase@V?$Pair@QEAVPxBase@physx@@_K@shdfnd@physx@@PEAVPxBase@3@U?$Hash@PEAVPxBase@physx@@@23@UGetKey@?$HashMapBase@PEAVPxBase@physx@@_KU?$Hash@PEAVPxBase@physx@@@shdfnd@2@VNonTrackingAllocator@42@@internal@23@VNonTrackingAllocator@23@$00@internal@shdfnd@physx@@QEBAIXZ 000000018000a830 f i CmCollection.obj
 0001:00009840       ?capacity@?$HashMapBase@PEAVPxBase@physx@@_KU?$Hash@PEAVPxBase@physx@@@shdfnd@2@VNonTrackingAllocator@42@@internal@shdfnd@physx@@QEBAIXZ 000000018000a840 f i CmCollection.obj
 0001:00009860       ?check@Iter@?$HashBase@V?$Pair@$$CB_KPEAVPxBase@physx@@@shdfnd@physx@@_KU?$Hash@_K@23@UGetKey@?$HashMapBase@_KPEAVPxBase@physx@@U?$Hash@_K@shdfnd@2@VNonTrackingAllocator@42@@internal@23@VNonTrackingAllocator@23@$00@internal@shdfnd@physx@@QEBAXXZ 000000018000a860 f i CmCollection.obj
 0001:000098d0       ?create@?$HashBase@V?$Pair@$$CB_KPEAVPxBase@physx@@@shdfnd@physx@@_KU?$Hash@_K@23@UGetKey@?$HashMapBase@_KPEAVPxBase@physx@@U?$Hash@_K@shdfnd@2@VNonTrackingAllocator@42@@internal@23@VNonTrackingAllocator@23@$00@internal@shdfnd@physx@@QEAAPEAV?$Pair@$$CB_KPEAVPxBase@physx@@@34@AEB_KAEA_N@Z 000000018000a8d0 f i CmCollection.obj
 0001:00009a80       ?create@?$HashBase@V?$Pair@QEAVPxBase@physx@@_K@shdfnd@physx@@PEAVPxBase@3@U?$Hash@PEAVPxBase@physx@@@23@UGetKey@?$HashMapBase@PEAVPxBase@physx@@_KU?$Hash@PEAVPxBase@physx@@@shdfnd@2@VNonTrackingAllocator@42@@internal@23@VNonTrackingAllocator@23@$00@internal@shdfnd@physx@@QEAAPEAV?$Pair@QEAVPxBase@physx@@_K@34@AEBQEAVPxBase@4@AEA_N@Z 000000018000aa80 f i CmCollection.obj
 0001:00009c30       ?deallocate@NonTrackingAllocator@shdfnd@physx@@QEAAXPEAX@Z 000000018000ac30 f i CmCollection.obj
 0001:00009c70       ?destroy@?$HashBase@V?$Pair@$$CB_KPEAVPxBase@physx@@@shdfnd@physx@@_KU?$Hash@_K@23@UGetKey@?$HashMapBase@_KPEAVPxBase@physx@@U?$Hash@_K@shdfnd@2@VNonTrackingAllocator@42@@internal@23@VNonTrackingAllocator@23@$00@internal@shdfnd@physx@@AEAAXXZ 000000018000ac70 f i CmCollection.obj
 0001:00009cd0       ?destroy@?$HashBase@V?$Pair@QEAVPxBase@physx@@_K@shdfnd@physx@@PEAVPxBase@3@U?$Hash@PEAVPxBase@physx@@@23@UGetKey@?$HashMapBase@PEAVPxBase@physx@@_KU?$Hash@PEAVPxBase@physx@@@shdfnd@2@VNonTrackingAllocator@42@@internal@23@VNonTrackingAllocator@23@$00@internal@shdfnd@physx@@AEAAXXZ 000000018000acd0 f i CmCollection.obj
 0001:00009d30       ?done@Iter@?$HashBase@V?$Pair@$$CB_KPEAVPxBase@physx@@@shdfnd@physx@@_KU?$Hash@_K@23@UGetKey@?$HashMapBase@_KPEAVPxBase@physx@@U?$Hash@_K@shdfnd@2@VNonTrackingAllocator@42@@internal@23@VNonTrackingAllocator@23@$00@internal@shdfnd@physx@@QEBA_NXZ 000000018000ad30 f i CmCollection.obj
 0001:00009d70       ?equal@?$Hash@PEAVPxBase@physx@@@shdfnd@physx@@QEBA_NAEBQEAVPxBase@3@0@Z 000000018000ad70 f i CmCollection.obj
 0001:00009db0       ?equal@?$Hash@_K@shdfnd@physx@@QEBA_NAEB_K0@Z 000000018000adb0 f i CmCollection.obj
 0001:00009df0       ?erase@?$HashBase@V?$Pair@$$CB_KPEAVPxBase@physx@@@shdfnd@physx@@_KU?$Hash@_K@23@UGetKey@?$HashMapBase@_KPEAVPxBase@physx@@U?$Hash@_K@shdfnd@2@VNonTrackingAllocator@42@@internal@23@VNonTrackingAllocator@23@$00@internal@shdfnd@physx@@QEAA_NAEB_K@Z 000000018000adf0 f i CmCollection.obj
 0001:00009ec0       ?erase@?$HashBase@V?$Pair@QEAVPxBase@physx@@_K@shdfnd@physx@@PEAVPxBase@3@U?$Hash@PEAVPxBase@physx@@@23@UGetKey@?$HashMapBase@PEAVPxBase@physx@@_KU?$Hash@PEAVPxBase@physx@@@shdfnd@2@VNonTrackingAllocator@42@@internal@23@VNonTrackingAllocator@23@$00@internal@shdfnd@physx@@QEAA_NAEBQEAVPxBase@4@@Z 000000018000aec0 f i CmCollection.obj
 0001:00009f90       ?erase@?$HashMapBase@PEAVPxBase@physx@@_KU?$Hash@PEAVPxBase@physx@@@shdfnd@2@VNonTrackingAllocator@42@@internal@shdfnd@physx@@QEAA_NAEBQEAVPxBase@4@@Z 000000018000af90 f i CmCollection.obj
 0001:00009fc0       ?erase@?$HashMapBase@_KPEAVPxBase@physx@@U?$Hash@_K@shdfnd@2@VNonTrackingAllocator@42@@internal@shdfnd@physx@@QEAA_NAEB_K@Z 000000018000afc0 f i CmCollection.obj
 0001:00009ff0       ?eraseInternal@?$HashBase@V?$Pair@$$CB_KPEAVPxBase@physx@@@shdfnd@physx@@_KU?$Hash@_K@23@UGetKey@?$HashMapBase@_KPEAVPxBase@physx@@U?$Hash@_K@shdfnd@2@VNonTrackingAllocator@42@@internal@23@VNonTrackingAllocator@23@$00@internal@shdfnd@physx@@AEAA_NPEAI@Z 000000018000aff0 f i CmCollection.obj
 0001:0000a080       ?eraseInternal@?$HashBase@V?$Pair@QEAVPxBase@physx@@_K@shdfnd@physx@@PEAVPxBase@3@U?$Hash@PEAVPxBase@physx@@@23@UGetKey@?$HashMapBase@PEAVPxBase@physx@@_KU?$Hash@PEAVPxBase@physx@@@shdfnd@2@VNonTrackingAllocator@42@@internal@23@VNonTrackingAllocator@23@$00@internal@shdfnd@physx@@AEAA_NPEAI@Z 000000018000b080 f i CmCollection.obj
 0001:0000a110       ?find@?$HashBase@V?$Pair@$$CB_KPEAVPxBase@physx@@@shdfnd@physx@@_KU?$Hash@_K@23@UGetKey@?$HashMapBase@_KPEAVPxBase@physx@@U?$Hash@_K@shdfnd@2@VNonTrackingAllocator@42@@internal@23@VNonTrackingAllocator@23@$00@internal@shdfnd@physx@@QEBAPEBV?$Pair@$$CB_KPEAVPxBase@physx@@@34@AEB_K@Z 000000018000b110 f i CmCollection.obj
 0001:0000a1e0       ?find@?$HashBase@V?$Pair@QEAVPxBase@physx@@_K@shdfnd@physx@@PEAVPxBase@3@U?$Hash@PEAVPxBase@physx@@@23@UGetKey@?$HashMapBase@PEAVPxBase@physx@@_KU?$Hash@PEAVPxBase@physx@@@shdfnd@2@VNonTrackingAllocator@42@@internal@23@VNonTrackingAllocator@23@$00@internal@shdfnd@physx@@QEBAPEBV?$Pair@QEAVPxBase@physx@@_K@34@AEBQEAVPxBase@4@@Z 000000018000b1e0 f i CmCollection.obj
 0001:0000a2b0       ?find@?$HashMapBase@PEAVPxBase@physx@@_KU?$Hash@PEAVPxBase@physx@@@shdfnd@2@VNonTrackingAllocator@42@@internal@shdfnd@physx@@QEBAPEBV?$Pair@QEAVPxBase@physx@@_K@34@AEBQEAVPxBase@4@@Z 000000018000b2b0 f i CmCollection.obj
 0001:0000a2e0       ?find@?$HashMapBase@_KPEAVPxBase@physx@@U?$Hash@_K@shdfnd@2@VNonTrackingAllocator@42@@internal@shdfnd@physx@@QEBAPEBV?$Pair@$$CB_KPEAVPxBase@physx@@@34@AEB_K@Z 000000018000b2e0 f i CmCollection.obj
 0001:0000a310       ?freeListAdd@?$HashBase@V?$Pair@$$CB_KPEAVPxBase@physx@@@shdfnd@physx@@_KU?$Hash@_K@23@UGetKey@?$HashMapBase@_KPEAVPxBase@physx@@U?$Hash@_K@shdfnd@2@VNonTrackingAllocator@42@@internal@23@VNonTrackingAllocator@23@$00@internal@shdfnd@physx@@AEAAXI@Z 000000018000b310 f i CmCollection.obj
 0001:0000a3c0       ?freeListAdd@?$HashBase@V?$Pair@$$CB_KPEAVPxBase@physx@@@shdfnd@physx@@_KU?$Hash@_K@23@UGetKey@?$HashMapBase@_KPEAVPxBase@physx@@U?$Hash@_K@shdfnd@2@VNonTrackingAllocator@42@@internal@23@VNonTrackingAllocator@23@$00@internal@shdfnd@physx@@AEAAXII@Z 000000018000b3c0 f i CmCollection.obj
 0001:0000a4c0       ?freeListAdd@?$HashBase@V?$Pair@QEAVPxBase@physx@@_K@shdfnd@physx@@PEAVPxBase@3@U?$Hash@PEAVPxBase@physx@@@23@UGetKey@?$HashMapBase@PEAVPxBase@physx@@_KU?$Hash@PEAVPxBase@physx@@@shdfnd@2@VNonTrackingAllocator@42@@internal@23@VNonTrackingAllocator@23@$00@internal@shdfnd@physx@@AEAAXI@Z 000000018000b4c0 f i CmCollection.obj
 0001:0000a570       ?freeListAdd@?$HashBase@V?$Pair@QEAVPxBase@physx@@_K@shdfnd@physx@@PEAVPxBase@3@U?$Hash@PEAVPxBase@physx@@@23@UGetKey@?$HashMapBase@PEAVPxBase@physx@@_KU?$Hash@PEAVPxBase@physx@@@shdfnd@2@VNonTrackingAllocator@42@@internal@23@VNonTrackingAllocator@23@$00@internal@shdfnd@physx@@AEAAXII@Z 000000018000b570 f i CmCollection.obj
 0001:0000a670       ?freeListEmpty@?$HashBase@V?$Pair@$$CB_KPEAVPxBase@physx@@@shdfnd@physx@@_KU?$Hash@_K@23@UGetKey@?$HashMapBase@_KPEAVPxBase@physx@@U?$Hash@_K@shdfnd@2@VNonTrackingAllocator@42@@internal@23@VNonTrackingAllocator@23@$00@internal@shdfnd@physx@@AEBA_NXZ 000000018000b670 f i CmCollection.obj
 0001:0000a6e0       ?freeListEmpty@?$HashBase@V?$Pair@QEAVPxBase@physx@@_K@shdfnd@physx@@PEAVPxBase@3@U?$Hash@PEAVPxBase@physx@@@23@UGetKey@?$HashMapBase@PEAVPxBase@physx@@_KU?$Hash@PEAVPxBase@physx@@@shdfnd@2@VNonTrackingAllocator@42@@internal@23@VNonTrackingAllocator@23@$00@internal@shdfnd@physx@@AEBA_NXZ 000000018000b6e0 f i CmCollection.obj
 0001:0000a750       ?freeListGetNext@?$HashBase@V?$Pair@$$CB_KPEAVPxBase@physx@@@shdfnd@physx@@_KU?$Hash@_K@23@UGetKey@?$HashMapBase@_KPEAVPxBase@physx@@U?$Hash@_K@shdfnd@2@VNonTrackingAllocator@42@@internal@23@VNonTrackingAllocator@23@$00@internal@shdfnd@physx@@AEAAIXZ 000000018000b750 f i CmCollection.obj
 0001:0000a870       ?freeListGetNext@?$HashBase@V?$Pair@QEAVPxBase@physx@@_K@shdfnd@physx@@PEAVPxBase@3@U?$Hash@PEAVPxBase@physx@@@23@UGetKey@?$HashMapBase@PEAVPxBase@physx@@_KU?$Hash@PEAVPxBase@physx@@@shdfnd@2@VNonTrackingAllocator@42@@internal@23@VNonTrackingAllocator@23@$00@internal@shdfnd@physx@@AEAAIXZ 000000018000b870 f i CmCollection.obj
 0001:0000a990       ?getEntries@?$CoalescedHashMap@PEAVPxBase@physx@@_KU?$Hash@PEAVPxBase@physx@@@shdfnd@2@VNonTrackingAllocator@42@@shdfnd@physx@@QEBAPEBV?$Pair@QEAVPxBase@physx@@_K@23@XZ 000000018000b990 f i CmCollection.obj
 0001:0000a9b0       ?getEntries@?$HashBase@V?$Pair@QEAVPxBase@physx@@_K@shdfnd@physx@@PEAVPxBase@3@U?$Hash@PEAVPxBase@physx@@@23@UGetKey@?$HashMapBase@PEAVPxBase@physx@@_KU?$Hash@PEAVPxBase@physx@@@shdfnd@2@VNonTrackingAllocator@42@@internal@23@VNonTrackingAllocator@23@$00@internal@shdfnd@physx@@QEBAPEBV?$Pair@QEAVPxBase@physx@@_K@34@XZ 000000018000b9b0 f i CmCollection.obj
 0001:0000a9c0       ?getFoundation@shdfnd@physx@@YAAEAVFoundation@12@XZ 000000018000b9c0 f i CmCollection.obj
 0001:0000a9d0       ?getIterator@?$HashMapBase@_KPEAVPxBase@physx@@U?$Hash@_K@shdfnd@2@VNonTrackingAllocator@42@@internal@shdfnd@physx@@QEAA?AVIter@?$HashBase@V?$Pair@$$CB_KPEAVPxBase@physx@@@shdfnd@physx@@_KU?$Hash@_K@23@UGetKey@?$HashMapBase@_KPEAVPxBase@physx@@U?$Hash@_K@shdfnd@2@VNonTrackingAllocator@42@@internal@23@VNonTrackingAllocator@23@$00@234@XZ 000000018000b9d0 f i CmCollection.obj
 0001:0000aa00       ?getName@?$ReflectionAllocator@VCollection@Cm@physx@@@shdfnd@physx@@CAPEBDXZ 000000018000ba00 f i CmCollection.obj
 0001:0000aa40       ?grow@?$HashBase@V?$Pair@$$CB_KPEAVPxBase@physx@@@shdfnd@physx@@_KU?$Hash@_K@23@UGetKey@?$HashMapBase@_KPEAVPxBase@physx@@U?$Hash@_K@shdfnd@2@VNonTrackingAllocator@42@@internal@23@VNonTrackingAllocator@23@$00@internal@shdfnd@physx@@AEAAXXZ 000000018000ba40 f i CmCollection.obj
 0001:0000ab00       ?grow@?$HashBase@V?$Pair@QEAVPxBase@physx@@_K@shdfnd@physx@@PEAVPxBase@3@U?$Hash@PEAVPxBase@physx@@@23@UGetKey@?$HashMapBase@PEAVPxBase@physx@@_KU?$Hash@PEAVPxBase@physx@@@shdfnd@2@VNonTrackingAllocator@42@@internal@23@VNonTrackingAllocator@23@$00@internal@shdfnd@physx@@AEAAXXZ 000000018000bb00 f i CmCollection.obj
 0001:0000abc0       ?hash@?$HashBase@V?$Pair@$$CB_KPEAVPxBase@physx@@@shdfnd@physx@@_KU?$Hash@_K@23@UGetKey@?$HashMapBase@_KPEAVPxBase@physx@@U?$Hash@_K@shdfnd@2@VNonTrackingAllocator@42@@internal@23@VNonTrackingAllocator@23@$00@internal@shdfnd@physx@@AEBAIAEB_K@Z 000000018000bbc0 f i CmCollection.obj
 0001:0000abf0       ?hash@?$HashBase@V?$Pair@$$CB_KPEAVPxBase@physx@@@shdfnd@physx@@_KU?$Hash@_K@23@UGetKey@?$HashMapBase@_KPEAVPxBase@physx@@U?$Hash@_K@shdfnd@2@VNonTrackingAllocator@42@@internal@23@VNonTrackingAllocator@23@$00@internal@shdfnd@physx@@AEBAIAEB_KI@Z 000000018000bbf0 f i CmCollection.obj
 0001:0000ac20       ?hash@?$HashBase@V?$Pair@QEAVPxBase@physx@@_K@shdfnd@physx@@PEAVPxBase@3@U?$Hash@PEAVPxBase@physx@@@23@UGetKey@?$HashMapBase@PEAVPxBase@physx@@_KU?$Hash@PEAVPxBase@physx@@@shdfnd@2@VNonTrackingAllocator@42@@internal@23@VNonTrackingAllocator@23@$00@internal@shdfnd@physx@@AEBAIAEBQEAVPxBase@4@@Z 000000018000bc20 f i CmCollection.obj
 0001:0000ac50       ?hash@?$HashBase@V?$Pair@QEAVPxBase@physx@@_K@shdfnd@physx@@PEAVPxBase@3@U?$Hash@PEAVPxBase@physx@@@23@UGetKey@?$HashMapBase@PEAVPxBase@physx@@_KU?$Hash@PEAVPxBase@physx@@@shdfnd@2@VNonTrackingAllocator@42@@internal@23@VNonTrackingAllocator@23@$00@internal@shdfnd@physx@@AEBAIAEBQEAVPxBase@4@I@Z 000000018000bc50 f i CmCollection.obj
 0001:0000ac80       ?hash@shdfnd@physx@@YAIPEBX@Z 000000018000bc80 f i CmCollection.obj
 0001:0000aca0       ?hash@shdfnd@physx@@YAI_K@Z 000000018000bca0 f i CmCollection.obj
 0001:0000ad80       ?init@?$HashBase@V?$Pair@$$CB_KPEAVPxBase@physx@@@shdfnd@physx@@_KU?$Hash@_K@23@UGetKey@?$HashMapBase@_KPEAVPxBase@physx@@U?$Hash@_K@shdfnd@2@VNonTrackingAllocator@42@@internal@23@VNonTrackingAllocator@23@$00@internal@shdfnd@physx@@AEAAXIM@Z 000000018000bd80 f i CmCollection.obj
 0001:0000ae30       ?init@?$HashBase@V?$Pair@QEAVPxBase@physx@@_K@shdfnd@physx@@PEAVPxBase@3@U?$Hash@PEAVPxBase@physx@@@23@UGetKey@?$HashMapBase@PEAVPxBase@physx@@_KU?$Hash@PEAVPxBase@physx@@@shdfnd@2@VNonTrackingAllocator@42@@internal@23@VNonTrackingAllocator@23@$00@internal@shdfnd@physx@@AEAAXIM@Z 000000018000be30 f i CmCollection.obj
 0001:0000aee0       ?insert@?$HashMapBase@PEAVPxBase@physx@@_KU?$Hash@PEAVPxBase@physx@@@shdfnd@2@VNonTrackingAllocator@42@@internal@shdfnd@physx@@QEAA_NQEAVPxBase@4@_K@Z 000000018000bee0 f i CmCollection.obj
 0001:0000af70       ?insert@?$HashMapBase@_KPEAVPxBase@physx@@U?$Hash@_K@shdfnd@2@VNonTrackingAllocator@42@@internal@shdfnd@physx@@QEAA_N_KQEAVPxBase@4@@Z 000000018000bf70 f i CmCollection.obj
 0001:0000b000       ?isPowerOfTwo@shdfnd@physx@@YA_NI@Z 000000018000c000 f i CmCollection.obj
 0001:0000b040       ?memCopy@intrinsics@physx@@YAPEAXPEAXPEBXI@Z 000000018000c040 f i CmCollection.obj
 0001:0000b070       ?memSet@intrinsics@physx@@YAPEAXPEAXHI@Z 000000018000c070 f i CmCollection.obj
 0001:0000b0b0       ?name@type_info@@QEBAPEBDXZ 000000018000c0b0 f i CmCollection.obj
 0001:0000b0e0       ?nextPowerOfTwo@shdfnd@physx@@YAII@Z 000000018000c0e0 f i CmCollection.obj
 0001:0000b150       ?release@Collection@Cm@physx@@UEAAXXZ 000000018000c150 f i CmCollection.obj
 0001:0000b1a0       ?replaceWithLast@?$HashBase@V?$Pair@$$CB_KPEAVPxBase@physx@@@shdfnd@physx@@_KU?$Hash@_K@23@UGetKey@?$HashMapBase@_KPEAVPxBase@physx@@U?$Hash@_K@shdfnd@2@VNonTrackingAllocator@42@@internal@23@VNonTrackingAllocator@23@$00@internal@shdfnd@physx@@AEAAXI@Z 000000018000c1a0 f i CmCollection.obj
 0001:0000b2f0       ?replaceWithLast@?$HashBase@V?$Pair@QEAVPxBase@physx@@_K@shdfnd@physx@@PEAVPxBase@3@U?$Hash@PEAVPxBase@physx@@@23@UGetKey@?$HashMapBase@PEAVPxBase@physx@@_KU?$Hash@PEAVPxBase@physx@@@shdfnd@2@VNonTrackingAllocator@42@@internal@23@VNonTrackingAllocator@23@$00@internal@shdfnd@physx@@AEAAXI@Z 000000018000c2f0 f i CmCollection.obj
 0001:0000b440       ?reserve@?$HashBase@V?$Pair@$$CB_KPEAVPxBase@physx@@@shdfnd@physx@@_KU?$Hash@_K@23@UGetKey@?$HashMapBase@_KPEAVPxBase@physx@@U?$Hash@_K@shdfnd@2@VNonTrackingAllocator@42@@internal@23@VNonTrackingAllocator@23@$00@internal@shdfnd@physx@@QEAAXI@Z 000000018000c440 f i CmCollection.obj
 0001:0000b470       ?reserve@?$HashBase@V?$Pair@QEAVPxBase@physx@@_K@shdfnd@physx@@PEAVPxBase@3@U?$Hash@PEAVPxBase@physx@@@23@UGetKey@?$HashMapBase@PEAVPxBase@physx@@_KU?$Hash@PEAVPxBase@physx@@@shdfnd@2@VNonTrackingAllocator@42@@internal@23@VNonTrackingAllocator@23@$00@internal@shdfnd@physx@@QEAAXI@Z 000000018000c470 f i CmCollection.obj
 0001:0000b4a0       ?reserve@?$HashMapBase@PEAVPxBase@physx@@_KU?$Hash@PEAVPxBase@physx@@@shdfnd@2@VNonTrackingAllocator@42@@internal@shdfnd@physx@@QEAAXI@Z 000000018000c4a0 f i CmCollection.obj
 0001:0000b4d0       ?reserveInternal@?$HashBase@V?$Pair@$$CB_KPEAVPxBase@physx@@@shdfnd@physx@@_KU?$Hash@_K@23@UGetKey@?$HashMapBase@_KPEAVPxBase@physx@@U?$Hash@_K@shdfnd@2@VNonTrackingAllocator@42@@internal@23@VNonTrackingAllocator@23@$00@internal@shdfnd@physx@@AEAAXI@Z 000000018000c4d0 f i CmCollection.obj
 0001:0000ba30       ?reserveInternal@?$HashBase@V?$Pair@QEAVPxBase@physx@@_K@shdfnd@physx@@PEAVPxBase@3@U?$Hash@PEAVPxBase@physx@@@23@UGetKey@?$HashMapBase@PEAVPxBase@physx@@_KU?$Hash@PEAVPxBase@physx@@@shdfnd@2@VNonTrackingAllocator@42@@internal@23@VNonTrackingAllocator@23@$00@internal@shdfnd@physx@@AEAAXI@Z 000000018000ca30 f i CmCollection.obj
 0001:0000bf90       ?size@?$HashBase@V?$Pair@$$CB_KPEAVPxBase@physx@@@shdfnd@physx@@_KU?$Hash@_K@23@UGetKey@?$HashMapBase@_KPEAVPxBase@physx@@U?$Hash@_K@shdfnd@2@VNonTrackingAllocator@42@@internal@23@VNonTrackingAllocator@23@$00@internal@shdfnd@physx@@QEBAIXZ 000000018000cf90 f i CmCollection.obj
 0001:0000bfa0       ?size@?$HashBase@V?$Pair@QEAVPxBase@physx@@_K@shdfnd@physx@@PEAVPxBase@3@U?$Hash@PEAVPxBase@physx@@@23@UGetKey@?$HashMapBase@PEAVPxBase@physx@@_KU?$Hash@PEAVPxBase@physx@@@shdfnd@2@VNonTrackingAllocator@42@@internal@23@VNonTrackingAllocator@23@$00@internal@shdfnd@physx@@QEBAIXZ 000000018000cfa0 f i CmCollection.obj
 0001:0000bfb0       ?size@?$HashMapBase@PEAVPxBase@physx@@_KU?$Hash@PEAVPxBase@physx@@@shdfnd@2@VNonTrackingAllocator@42@@internal@shdfnd@physx@@QEBAIXZ 000000018000cfb0 f i CmCollection.obj
 0001:0000bfd0       ?size@?$HashMapBase@_KPEAVPxBase@physx@@U?$Hash@_K@shdfnd@2@VNonTrackingAllocator@42@@internal@shdfnd@physx@@QEBAIXZ 000000018000cfd0 f i CmCollection.obj
 0001:0000bff0       ?skip@Iter@?$HashBase@V?$Pair@$$CB_KPEAVPxBase@physx@@@shdfnd@physx@@_KU?$Hash@_K@23@UGetKey@?$HashMapBase@_KPEAVPxBase@physx@@U?$Hash@_K@shdfnd@2@VNonTrackingAllocator@42@@internal@23@VNonTrackingAllocator@23@$00@internal@shdfnd@physx@@AEAAXXZ 000000018000cff0 f i CmCollection.obj
 0001:0000c060       ?PxTransformFromPlaneEquation@physx@@YA?AVPxTransform@1@AEBVPxPlane@1@@Z 000000018000d060 f   CmMathUtils.obj
 0001:0000c280       ?PxTransformFromSegment@physx@@YA?AVPxTransform@1@AEBVPxVec3@1@0PEAM@Z 000000018000d280 f   CmMathUtils.obj
 0001:0000c3c0       ??$PX_UNUSED@W4PxIDENTITY@physx@@@@YAXAEBW4PxIDENTITY@physx@@@Z 000000018000d3c0 f i CmMathUtils.obj
 0001:0000c3d0       ??0PxPlane@physx@@QEAA@AEBV01@@Z 000000018000d3d0 f i CmMathUtils.obj
 0001:0000c410       ??0PxQuat@physx@@QEAA@AEBV01@@Z 000000018000d410 f i CmMathUtils.obj
 0001:0000c470       ??0PxQuat@physx@@QEAA@MMMM@Z 000000018000d470 f i CmMathUtils.obj
 0001:0000c4d0       ??0PxQuat@physx@@QEAA@W4PxIDENTITY@1@@Z 000000018000d4d0 f i CmMathUtils.obj
 0001:0000c530       ??0PxQuat@physx@@QEAA@XZ   000000018000d530 f i CmMathUtils.obj
 0001:0000c540       ??0PxTransform@physx@@QEAA@AEBVPxVec3@1@AEBVPxQuat@1@@Z 000000018000d540 f i CmMathUtils.obj
 0001:0000c5c0       ??0PxVec3@physx@@QEAA@AEBV01@@Z 000000018000d5c0 f i CmMathUtils.obj
 0001:0000c610       ??0PxVec3@physx@@QEAA@MMM@Z 000000018000d610 f i CmMathUtils.obj
 0001:0000c660       ??4PxQuat@physx@@QEAAAEAV01@AEBV01@@Z 000000018000d660 f i CmMathUtils.obj
 0001:0000c6c0       ??DPxQuat@physx@@QEBA?AV01@M@Z 000000018000d6c0 f i CmMathUtils.obj
 0001:0000c740       ??DPxVec3@physx@@QEBA?AV01@M@Z 000000018000d740 f i CmMathUtils.obj
 0001:0000c7b0       ??GPxVec3@physx@@QEBA?AV01@AEBV01@@Z 000000018000d7b0 f i CmMathUtils.obj
 0001:0000c830       ??GPxVec3@physx@@QEBA?AV01@XZ 000000018000d830 f i CmMathUtils.obj
 0001:0000c8a0       ??HPxVec3@physx@@QEBA?AV01@AEBV01@@Z 000000018000d8a0 f i CmMathUtils.obj
 0001:0000c920       ??KPxVec3@physx@@QEBA?AV01@M@Z 000000018000d920 f i CmMathUtils.obj
 0001:0000c9a0       ??XPxVec3@physx@@QEAAAEAV01@M@Z 000000018000d9a0 f i CmMathUtils.obj
 0001:0000ca00       ?PxAbs@physx@@YAMM@Z       000000018000da00 f i CmMathUtils.obj
 0001:0000ca20       ?PxIsFinite@physx@@YA_NM@Z 000000018000da20 f i CmMathUtils.obj
 0001:0000ca40       ?PxSqrt@physx@@YAMM@Z      000000018000da40 f i CmMathUtils.obj
 0001:0000ca60       ?abs@intrinsics@physx@@YAMM@Z 000000018000da60 f i CmMathUtils.obj
 0001:0000ca80       ?isFinite@PxQuat@physx@@QEBA_NXZ 000000018000da80 f i CmMathUtils.obj
 0001:0000cb00       ?isFinite@intrinsics@physx@@YA_NM@Z 000000018000db00 f i CmMathUtils.obj
 0001:0000cb40       ?isSane@PxQuat@physx@@QEBA_NXZ 000000018000db40 f i CmMathUtils.obj
 0001:0000cbb0       ?magnitude@PxQuat@physx@@QEBAMXZ 000000018000dbb0 f i CmMathUtils.obj
 0001:0000cbd0       ?magnitude@PxVec3@physx@@QEBAMXZ 000000018000dbd0 f i CmMathUtils.obj
 0001:0000cbf0       ?magnitudeSquared@PxQuat@physx@@QEBAMXZ 000000018000dbf0 f i CmMathUtils.obj
 0001:0000cc50       ?magnitudeSquared@PxVec3@physx@@QEBAMXZ 000000018000dc50 f i CmMathUtils.obj
 0001:0000cca0       ?normalize@PxPlane@physx@@QEAAXXZ 000000018000dca0 f i CmMathUtils.obj
 0001:0000cd00       ?sqrt@intrinsics@physx@@YAMM@Z 000000018000dd00 f i CmMathUtils.obj
 0001:0000cd20       fabsf                      000000018000dd20 f i CmMathUtils.obj
 0001:0000cd40       ??0PtrTable@Cm@physx@@QEAA@XZ 000000018000dd40 f   CmPtrTable.obj
 0001:0000cd80       ??1PtrTable@Cm@physx@@QEAA@XZ 000000018000dd80 f   CmPtrTable.obj
 0001:0000cea0       ?add@PtrTable@Cm@physx@@QEAAXPEAXAEAVPtrTableStorageManager@23@@Z 000000018000dea0 f   CmPtrTable.obj
 0001:0000d2c0       ?replaceWithLast@PtrTable@Cm@physx@@QEAAXIAEAVPtrTableStorageManager@23@@Z 000000018000e2c0 f   CmPtrTable.obj
 0001:0000d6c0       ?clear@PtrTable@Cm@physx@@QEAAXAEAVPtrTableStorageManager@23@@Z 000000018000e6c0 f   CmPtrTable.obj
 0001:0000d760       ?find@PtrTable@Cm@physx@@QEBAIPEBX@Z 000000018000e760 f   CmPtrTable.obj
 0001:0000d7e0       ?exportExtraData@PtrTable@Cm@physx@@QEAAXAEAVPxSerializationContext@3@@Z 000000018000e7e0 f   CmPtrTable.obj
 0001:0000d850       ?importExtraData@PtrTable@Cm@physx@@QEAAXAEAVPxDeserializationContext@3@@Z 000000018000e850 f   CmPtrTable.obj
 0001:0000d8a0       ?getBinaryMetaData@PtrTable@Cm@physx@@SAXAEAVPxOutputStream@3@@Z 000000018000e8a0 f   CmPtrTable.obj
 0001:0000db90       ?realloc@PtrTable@Cm@physx@@AEAAXIIAEAVPtrTableStorageManager@23@@Z 000000018000eb90 f   CmPtrTable.obj
 0001:0000dd60       ??$readExtraData@PEAX$0BA@@PxDeserializationContext@physx@@QEAAPEAPEAXI@Z 000000018000ed60 f i CmPtrTable.obj
 0001:0000dd90       ??$readExtraData@PEAX@PxDeserializationContext@physx@@QEAAPEAPEAXI@Z 000000018000ed90 f i CmPtrTable.obj
 0001:0000ddd0       ??0PtrTable@Cm@physx@@QEAA@W4PxEMPTY@2@@Z 000000018000edd0 f i CmPtrTable.obj
 0001:0000de30       ??4PtrTable@Cm@physx@@QEAAAEAU012@AEBU012@@Z 000000018000ee30 f i CmPtrTable.obj
 0001:0000de60       ?PxMemCopy@physx@@YAPEAXPEAXPEBXI@Z 000000018000ee60 f i CmPtrTable.obj
 0001:0000de90       ?alignExtraData@PxDeserializationContext@physx@@QEAAXI@Z 000000018000ee90 f i CmPtrTable.obj
 0001:0000dee0       ?getCount@PtrTable@Cm@physx@@QEBAIXZ 000000018000eee0 f i CmPtrTable.obj
 0001:0000def0       ?getPtrs@PtrTable@Cm@physx@@QEAAPEAPEAXXZ 000000018000eef0 f i CmPtrTable.obj
 0001:0000df30       ?getPtrs@PtrTable@Cm@physx@@QEBAPEBQEAXXZ 000000018000ef30 f i CmPtrTable.obj
 0001:0000df70       ??0RadixSort@Cm@physx@@QEAA@XZ 000000018000ef70 f   CmRadixSort.obj
 0001:0000e010       ??1RadixSort@Cm@physx@@UEAA@XZ 000000018000f010 f   CmRadixSort.obj
 0001:0000e030       ?Sort@RadixSort@Cm@physx@@QEAAAEAV123@PEBIIW4RadixHint@23@@Z 000000018000f030 f   CmRadixSort.obj
 0001:0000f0f0       ?Sort@RadixSort@Cm@physx@@QEAAAEAV123@PEBMI@Z 00000001800100f0 f   CmRadixSort.obj
 0001:000100a0       ?SetBuffers@RadixSort@Cm@physx@@QEAA_NPEAI00PEAPEAI@Z 00000001800110a0 f   CmRadixSort.obj
 0001:00010130       ??_ERadixSort@Cm@physx@@UEAAPEAXI@Z 0000000180011130 f i CmRadixSort.obj
 0001:000101d0       ??_GRadixSort@Cm@physx@@UEAAPEAXI@Z 00000001800111d0 f i CmRadixSort.obj
 0001:00010210       ??_I@YAXPEAX_K1P6AX0@Z@Z   0000000180011210 f i CmRadixSort.obj
 0001:000102a0       ?CheckPassValidity@@YAPEBIIPEBIIPEBXAEAE@Z 00000001800112a0 f i CmRadixSort.obj
 0001:00010310       ?GetNbHits@RadixSort@Cm@physx@@QEBAIXZ 0000000180011310 f i CmRadixSort.obj
 0001:00010320       ?GetNbTotalCalls@RadixSort@Cm@physx@@QEBAIXZ 0000000180011320 f i CmRadixSort.obj
 0001:00010330       ?GetRanks@RadixSort@Cm@physx@@QEBAPEBIXZ 0000000180011330 f i CmRadixSort.obj
 0001:00010340       ?GetRecyclable@RadixSort@Cm@physx@@QEBAPEAIXZ 0000000180011340 f i CmRadixSort.obj
 0001:00010350       ?PxMemZero@physx@@YAPEAXPEAXI@Z 0000000180011350 f i CmRadixSort.obj
 0001:00010370       ?invalidateRanks@RadixSort@Cm@physx@@QEAAXXZ 0000000180011370 f i CmRadixSort.obj
 0001:00010390       ?memZero@intrinsics@physx@@YAPEAXPEAXI@Z 0000000180011390 f i CmRadixSort.obj
 0001:000103c0       ??0RadixSortBuffered@Cm@physx@@QEAA@XZ 00000001800113c0 f   CmRadixSortBuffered.obj
 0001:00010400       ??1RadixSortBuffered@Cm@physx@@UEAA@XZ 0000000180011400 f   CmRadixSortBuffered.obj
 0001:00010440       ?reset@RadixSortBuffered@Cm@physx@@QEAAXXZ 0000000180011440 f   CmRadixSortBuffered.obj
 0001:000104e0       ?Sort@RadixSortBuffered@Cm@physx@@QEAAAEAV123@PEBIIW4RadixHint@23@@Z 00000001800114e0 f   CmRadixSortBuffered.obj
 0001:000105b0       ?Sort@RadixSortBuffered@Cm@physx@@QEAAAEAV123@PEBMI@Z 00000001800115b0 f   CmRadixSortBuffered.obj
 0001:00010670       ?Resize@RadixSortBuffered@Cm@physx@@AEAA_NI@Z 0000000180011670 f   CmRadixSortBuffered.obj
 0001:00010790       ??_ERadixSortBuffered@Cm@physx@@UEAAPEAXI@Z 0000000180011790 f i CmRadixSortBuffered.obj
 0001:00010830       ??_GRadixSortBuffered@Cm@physx@@UEAAPEAXI@Z 0000000180011830 f i CmRadixSortBuffered.obj
 0001:00010870       ?CheckResize@RadixSortBuffered@Cm@physx@@AEAAXI@Z 0000000180011870 f i CmRadixSortBuffered.obj
 0001:000108e0       ??6RenderOutput@Cm@physx@@QEAAAEAV012@W4Primitive@012@@Z 00000001800118e0 f   CmRenderOutput.obj
 0001:00010910       ??6RenderOutput@Cm@physx@@QEAAAEAV012@I@Z 0000000180011910 f   CmRenderOutput.obj
 0001:00010940       ??6RenderOutput@Cm@physx@@QEAAAEAV012@AEBVPxMat44@2@@Z 0000000180011940 f   CmRenderOutput.obj
 0001:00010980       ??6RenderOutput@Cm@physx@@QEAAAEAV012@AEBVPxTransform@2@@Z 0000000180011980 f   CmRenderOutput.obj
 0001:000109c0       ??6RenderOutput@Cm@physx@@QEAAAEAV012@VPxVec3@2@@Z 00000001800119c0 f   CmRenderOutput.obj
 0001:00010d40       ??6RenderOutput@Cm@physx@@QEAAAEAV012@AEBUDebugText@12@@Z 0000000180011d40 f   CmRenderOutput.obj
 0001:00010f90       ?outputCapsule@RenderOutput@Cm@physx@@QEAAAEAV123@MMAEBVPxMat44@3@@Z 0000000180011f90 f   CmRenderOutput.obj
 0001:000116f0       ??0DebugText@Cm@physx@@QEAA@AEBVPxVec3@2@MPEBDZZ 00000001800126f0 f   CmRenderOutput.obj
 0001:00011790       ??6Cm@physx@@YAAEAVRenderOutput@01@AEAV201@AEBUDebugBox@01@@Z 0000000180012790 f   CmRenderOutput.obj
 0001:00012190       ??6Cm@physx@@YAAEAVRenderOutput@01@AEAV201@AEBUDebugArrow@01@@Z 0000000180013190 f   CmRenderOutput.obj
 0001:00012500       ??6Cm@physx@@YAAEAVRenderOutput@01@AEAV201@AEBUDebugBasis@01@@Z 0000000180013500 f   CmRenderOutput.obj
 0001:000126c0       ??6Cm@physx@@YAAEAVRenderOutput@01@AEAV201@AEBUDebugCircle@01@@Z 00000001800136c0 f   CmRenderOutput.obj
 0001:000127f0       ??6Cm@physx@@YAAEAVRenderOutput@01@AEAV201@AEBUDebugArc@01@@Z 00000001800137f0 f   CmRenderOutput.obj
 0001:000129a0       ??$PxMax@I@physx@@YAIII@Z  00000001800139a0 f i CmRenderOutput.obj
 0001:000129d0       ??$swap@VPxVec4@physx@@@shdfnd@physx@@YAXAEAVPxVec4@1@0@Z 00000001800139d0 f i CmRenderOutput.obj
 0001:00012a10       ??0DebugArc@Cm@physx@@QEAA@IMMM@Z 0000000180013a10 f i CmRenderOutput.obj
 0001:00012a70       ??0DebugArrow@Cm@physx@@QEAA@AEBVPxVec3@2@0M@Z 0000000180013a70 f i CmRenderOutput.obj
 0001:00012ad0       ??0DebugCircle@Cm@physx@@QEAA@IM@Z 0000000180013ad0 f i CmRenderOutput.obj
 0001:00012b00       ??0DebugText@Cm@physx@@QEAA@$$QEAU012@@Z 0000000180013b00 f i CmRenderOutput.obj
 0001:00012b70       ??0DebugText@Cm@physx@@QEAA@AEBU012@@Z 0000000180013b70 f i CmRenderOutput.obj
 0001:00012be0       ??0PxDebugLine@physx@@QEAA@AEBU01@@Z 0000000180013be0 f i CmRenderOutput.obj
 0001:00012c50       ??0PxDebugLine@physx@@QEAA@AEBVPxVec3@1@0AEBI@Z 0000000180013c50 f i CmRenderOutput.obj
 0001:00012cc0       ??0PxDebugPoint@physx@@QEAA@AEBU01@@Z 0000000180013cc0 f i CmRenderOutput.obj
 0001:00012d00       ??0PxDebugPoint@physx@@QEAA@AEBVPxVec3@1@AEBI@Z 0000000180013d00 f i CmRenderOutput.obj
 0001:00012d40       ??0PxDebugText@physx@@QEAA@AEBU01@@Z 0000000180013d40 f i CmRenderOutput.obj
 0001:00012da0       ??0PxDebugText@physx@@QEAA@AEBVPxVec3@1@AEBMAEBIPEBD@Z 0000000180013da0 f i CmRenderOutput.obj
 0001:00012e10       ??0PxDebugTriangle@physx@@QEAA@AEBU01@@Z 0000000180013e10 f i CmRenderOutput.obj
 0001:00012ea0       ??0PxDebugTriangle@physx@@QEAA@AEBVPxVec3@1@00AEBI@Z 0000000180013ea0 f i CmRenderOutput.obj
 0001:00012f30       ??0PxMat33@physx@@QEAA@AEBVPxQuat@1@@Z 0000000180013f30 f i CmRenderOutput.obj
 0001:000131d0       ??0PxMat44@physx@@QEAA@AEBV01@@Z 00000001800141d0 f i CmRenderOutput.obj
 0001:00013250       ??0PxMat44@physx@@QEAA@AEBVPxMat33@1@AEBVPxVec3@1@@Z 0000000180014250 f i CmRenderOutput.obj
 0001:000132e0       ??0PxMat44@physx@@QEAA@AEBVPxTransform@1@@Z 00000001800142e0 f i CmRenderOutput.obj
 0001:000133a0       ??0PxMat44@physx@@QEAA@W4PxIDENTITY@1@@Z 00000001800143a0 f i CmRenderOutput.obj
 0001:00013460       ??0PxVec3@physx@@QEAA@M@Z  0000000180014460 f i CmRenderOutput.obj
 0001:000134a0       ??0PxVec3@physx@@QEAA@XZ   00000001800144a0 f i CmRenderOutput.obj
 0001:000134b0       ??0PxVec4@physx@@QEAA@AEBV01@@Z 00000001800144b0 f i CmRenderOutput.obj
 0001:00013510       ??0PxVec4@physx@@QEAA@AEBVPxVec3@1@M@Z 0000000180014510 f i CmRenderOutput.obj
 0001:00013570       ??0PxVec4@physx@@QEAA@MMMM@Z 0000000180014570 f i CmRenderOutput.obj
 0001:000135d0       ??0PxVec4@physx@@QEAA@XZ   00000001800145d0 f i CmRenderOutput.obj
 0001:000135e0       ??0RenderOutput@Cm@physx@@QEAA@AEAVRenderBuffer@12@@Z 00000001800145e0 f i CmRenderOutput.obj
 0001:00013670       ??0RenderOutput@Cm@physx@@QEAA@AEBV012@@Z 0000000180014670 f i CmRenderOutput.obj
 0001:00013720       ??4DebugText@Cm@physx@@QEAAAEAU012@$$QEAU012@@Z 0000000180014720 f i CmRenderOutput.obj
 0001:000137c0       ??4DebugText@Cm@physx@@QEAAAEAU012@AEBU012@@Z 00000001800147c0 f i CmRenderOutput.obj
 0001:00013860       ??4PxMat44@physx@@QEAAAEAV01@AEBV01@@Z 0000000180014860 f i CmRenderOutput.obj
 0001:000138e0       ??4PxVec3@physx@@QEAAAEAV01@AEBV01@@Z 00000001800148e0 f i CmRenderOutput.obj
 0001:00013930       ??4PxVec4@physx@@QEAAAEAV01@AEBV01@@Z 0000000180014930 f i CmRenderOutput.obj
 0001:00013990       ??A?$Array@UPxDebugText@physx@@VNamedAllocator@shdfnd@2@@shdfnd@physx@@QEAAAEAUPxDebugText@2@I@Z 0000000180014990 f i CmRenderOutput.obj
 0001:00013a10       ??DPxVec4@physx@@QEBA?AV01@M@Z 0000000180014a10 f i CmRenderOutput.obj
 0001:00013a90       ??GPxVec4@physx@@QEBA?AV01@XZ 0000000180014a90 f i CmRenderOutput.obj
 0001:00013b10       ??HPxVec4@physx@@QEBA?AV01@AEBV01@@Z 0000000180014b10 f i CmRenderOutput.obj
 0001:00013ba0       ??YPxVec4@physx@@QEAAAEAV01@AEBV01@@Z 0000000180014ba0 f i CmRenderOutput.obj
 0001:00013c30       ??_0PxVec3@physx@@QEAAAEAV01@M@Z 0000000180014c30 f i CmRenderOutput.obj
 0001:00013cb0       ?PxCos@physx@@YAMM@Z       0000000180014cb0 f i CmRenderOutput.obj
 0001:00013cd0       ?PxSin@physx@@YAMM@Z       0000000180014cd0 f i CmRenderOutput.obj
 0001:00013cf0       ?allocate@?$Array@DVNamedAllocator@shdfnd@physx@@@shdfnd@physx@@IEAAPEADI@Z 0000000180014cf0 f i CmRenderOutput.obj
 0001:00013d70       ?allocate@?$Array@UPxDebugLine@physx@@VNamedAllocator@shdfnd@2@@shdfnd@physx@@IEAAPEAUPxDebugLine@3@I@Z 0000000180014d70 f i CmRenderOutput.obj
 0001:00013e00       ?allocate@?$Array@UPxDebugPoint@physx@@VNamedAllocator@shdfnd@2@@shdfnd@physx@@IEAAPEAUPxDebugPoint@3@I@Z 0000000180014e00 f i CmRenderOutput.obj
 0001:00013e90       ?allocate@?$Array@UPxDebugText@physx@@VNamedAllocator@shdfnd@2@@shdfnd@physx@@IEAAPEAUPxDebugText@3@I@Z 0000000180014e90 f i CmRenderOutput.obj
 0001:00013f20       ?allocate@?$Array@UPxDebugTriangle@physx@@VNamedAllocator@shdfnd@2@@shdfnd@physx@@IEAAPEAUPxDebugTriangle@3@I@Z 0000000180014f20 f i CmRenderOutput.obj
 0001:00013fb0       ?begin@?$Array@DVNamedAllocator@shdfnd@physx@@@shdfnd@physx@@QEAAPEADXZ 0000000180014fb0 f i CmRenderOutput.obj
 0001:00013fc0       ?capacity@?$Array@DVNamedAllocator@shdfnd@physx@@@shdfnd@physx@@QEBAIXZ 0000000180014fc0 f i CmRenderOutput.obj
 0001:00013fe0       ?capacity@?$Array@UPxDebugLine@physx@@VNamedAllocator@shdfnd@2@@shdfnd@physx@@QEBAIXZ 0000000180014fe0 f i CmRenderOutput.obj
 0001:00014000       ?capacity@?$Array@UPxDebugPoint@physx@@VNamedAllocator@shdfnd@2@@shdfnd@physx@@QEBAIXZ 0000000180015000 f i CmRenderOutput.obj
 0001:00014020       ?capacity@?$Array@UPxDebugText@physx@@VNamedAllocator@shdfnd@2@@shdfnd@physx@@QEBAIXZ 0000000180015020 f i CmRenderOutput.obj
 0001:00014040       ?capacity@?$Array@UPxDebugTriangle@physx@@VNamedAllocator@shdfnd@2@@shdfnd@physx@@QEBAIXZ 0000000180015040 f i CmRenderOutput.obj
 0001:00014060       ?capacityIncrement@?$Array@DVNamedAllocator@shdfnd@physx@@@shdfnd@physx@@IEBAIXZ 0000000180015060 f i CmRenderOutput.obj
 0001:000140a0       ?capacityIncrement@?$Array@UPxDebugLine@physx@@VNamedAllocator@shdfnd@2@@shdfnd@physx@@IEBAIXZ 00000001800150a0 f i CmRenderOutput.obj
 0001:000140e0       ?capacityIncrement@?$Array@UPxDebugPoint@physx@@VNamedAllocator@shdfnd@2@@shdfnd@physx@@IEBAIXZ 00000001800150e0 f i CmRenderOutput.obj
 0001:00014120       ?capacityIncrement@?$Array@UPxDebugText@physx@@VNamedAllocator@shdfnd@2@@shdfnd@physx@@IEBAIXZ 0000000180015120 f i CmRenderOutput.obj
 0001:00014160       ?capacityIncrement@?$Array@UPxDebugTriangle@physx@@VNamedAllocator@shdfnd@2@@shdfnd@physx@@IEBAIXZ 0000000180015160 f i CmRenderOutput.obj
 0001:000141a0       ?copy@?$Array@DVNamedAllocator@shdfnd@physx@@@shdfnd@physx@@KAXPEAD0PEBD@Z 00000001800151a0 f i CmRenderOutput.obj
 0001:00014220       ?copy@?$Array@UPxDebugLine@physx@@VNamedAllocator@shdfnd@2@@shdfnd@physx@@KAXPEAUPxDebugLine@3@0PEBU43@@Z 0000000180015220 f i CmRenderOutput.obj
 0001:000142a0       ?copy@?$Array@UPxDebugPoint@physx@@VNamedAllocator@shdfnd@2@@shdfnd@physx@@KAXPEAUPxDebugPoint@3@0PEBU43@@Z 00000001800152a0 f i CmRenderOutput.obj
 0001:00014320       ?copy@?$Array@UPxDebugText@physx@@VNamedAllocator@shdfnd@2@@shdfnd@physx@@KAXPEAUPxDebugText@3@0PEBU43@@Z 0000000180015320 f i CmRenderOutput.obj
 0001:000143a0       ?copy@?$Array@UPxDebugTriangle@physx@@VNamedAllocator@shdfnd@2@@shdfnd@physx@@KAXPEAUPxDebugTriangle@3@0PEBU43@@Z 00000001800153a0 f i CmRenderOutput.obj
 0001:00014420       ?cos@intrinsics@physx@@YAMM@Z 0000000180015420 f i CmRenderOutput.obj
 0001:00014440       ?cross@PxVec3@physx@@QEBA?AV12@AEBV12@@Z 0000000180015440 f i CmRenderOutput.obj
 0001:00014500       ?deallocate@?$Array@DVNamedAllocator@shdfnd@physx@@@shdfnd@physx@@IEAAXPEAX@Z 0000000180015500 f i CmRenderOutput.obj
 0001:00014530       ?deallocate@?$Array@UPxDebugLine@physx@@VNamedAllocator@shdfnd@2@@shdfnd@physx@@IEAAXPEAX@Z 0000000180015530 f i CmRenderOutput.obj
 0001:00014560       ?deallocate@?$Array@UPxDebugPoint@physx@@VNamedAllocator@shdfnd@2@@shdfnd@physx@@IEAAXPEAX@Z 0000000180015560 f i CmRenderOutput.obj
 0001:00014590       ?deallocate@?$Array@UPxDebugText@physx@@VNamedAllocator@shdfnd@2@@shdfnd@physx@@IEAAXPEAX@Z 0000000180015590 f i CmRenderOutput.obj
 0001:000145c0       ?deallocate@?$Array@UPxDebugTriangle@physx@@VNamedAllocator@shdfnd@2@@shdfnd@physx@@IEAAXPEAX@Z 00000001800155c0 f i CmRenderOutput.obj
 0001:000145f0       ?destroy@?$Array@DVNamedAllocator@shdfnd@physx@@@shdfnd@physx@@KAXPEAD0@Z 00000001800155f0 f i CmRenderOutput.obj
 0001:00014620       ?destroy@?$Array@UPxDebugLine@physx@@VNamedAllocator@shdfnd@2@@shdfnd@physx@@KAXPEAUPxDebugLine@3@0@Z 0000000180015620 f i CmRenderOutput.obj
 0001:00014650       ?destroy@?$Array@UPxDebugPoint@physx@@VNamedAllocator@shdfnd@2@@shdfnd@physx@@KAXPEAUPxDebugPoint@3@0@Z 0000000180015650 f i CmRenderOutput.obj
 0001:00014680       ?destroy@?$Array@UPxDebugText@physx@@VNamedAllocator@shdfnd@2@@shdfnd@physx@@KAXPEAUPxDebugText@3@0@Z 0000000180015680 f i CmRenderOutput.obj
 0001:000146b0       ?destroy@?$Array@UPxDebugTriangle@physx@@VNamedAllocator@shdfnd@2@@shdfnd@physx@@KAXPEAUPxDebugTriangle@3@0@Z 00000001800156b0 f i CmRenderOutput.obj
 0001:000146e0       ?end@?$Array@DVNamedAllocator@shdfnd@physx@@@shdfnd@physx@@QEAAPEADXZ 00000001800156e0 f i CmRenderOutput.obj
 0001:00014700       ?end@?$Array@UPxDebugLine@physx@@VNamedAllocator@shdfnd@2@@shdfnd@physx@@QEAAPEAUPxDebugLine@3@XZ 0000000180015700 f i CmRenderOutput.obj
 0001:00014720       ?forceSize_Unsafe@?$Array@UPxDebugLine@physx@@VNamedAllocator@shdfnd@2@@shdfnd@physx@@QEAAXI@Z 0000000180015720 f i CmRenderOutput.obj
 0001:000147a0       ?getXYZ@PxVec4@physx@@QEBA?AVPxVec3@2@XZ 00000001800157a0 f i CmRenderOutput.obj
 0001:000147e0       ?grow@?$Array@DVNamedAllocator@shdfnd@physx@@@shdfnd@physx@@IEAAXI@Z 00000001800157e0 f i CmRenderOutput.obj
 0001:00014860       ?grow@?$Array@UPxDebugLine@physx@@VNamedAllocator@shdfnd@2@@shdfnd@physx@@IEAAXI@Z 0000000180015860 f i CmRenderOutput.obj
 0001:000148e0       ?growAndPushBack@?$Array@DVNamedAllocator@shdfnd@physx@@@shdfnd@physx@@IEAAAEADAEBD@Z 00000001800158e0 f i CmRenderOutput.obj
 0001:00014a70       ?growAndPushBack@?$Array@UPxDebugLine@physx@@VNamedAllocator@shdfnd@2@@shdfnd@physx@@IEAAAEAUPxDebugLine@3@AEBU43@@Z 0000000180015a70 f i CmRenderOutput.obj
 0001:00014c00       ?growAndPushBack@?$Array@UPxDebugPoint@physx@@VNamedAllocator@shdfnd@2@@shdfnd@physx@@IEAAAEAUPxDebugPoint@3@AEBU43@@Z 0000000180015c00 f i CmRenderOutput.obj
 0001:00014d90       ?growAndPushBack@?$Array@UPxDebugText@physx@@VNamedAllocator@shdfnd@2@@shdfnd@physx@@IEAAAEAUPxDebugText@3@AEBU43@@Z 0000000180015d90 f i CmRenderOutput.obj
 0001:00014f20       ?growAndPushBack@?$Array@UPxDebugTriangle@physx@@VNamedAllocator@shdfnd@2@@shdfnd@physx@@IEAAAEAUPxDebugTriangle@3@AEBU43@@Z 0000000180015f20 f i CmRenderOutput.obj
 0001:000150b0       ?isInUserMemory@?$Array@DVNamedAllocator@shdfnd@physx@@@shdfnd@physx@@QEBAIXZ 00000001800160b0 f i CmRenderOutput.obj
 0001:000150d0       ?isInUserMemory@?$Array@UPxDebugLine@physx@@VNamedAllocator@shdfnd@2@@shdfnd@physx@@QEBAIXZ 00000001800160d0 f i CmRenderOutput.obj
 0001:000150f0       ?isInUserMemory@?$Array@UPxDebugPoint@physx@@VNamedAllocator@shdfnd@2@@shdfnd@physx@@QEBAIXZ 00000001800160f0 f i CmRenderOutput.obj
 0001:00015110       ?isInUserMemory@?$Array@UPxDebugText@physx@@VNamedAllocator@shdfnd@2@@shdfnd@physx@@QEBAIXZ 0000000180016110 f i CmRenderOutput.obj
 0001:00015130       ?isInUserMemory@?$Array@UPxDebugTriangle@physx@@VNamedAllocator@shdfnd@2@@shdfnd@physx@@QEBAIXZ 0000000180016130 f i CmRenderOutput.obj
 0001:00015150       ?normalToTangents@shdfnd@physx@@YAXAEBVPxVec3@2@AEAV32@1@Z 0000000180016150 f i CmRenderOutput.obj
 0001:00015230       ?normalize@PxVec3@physx@@QEAAMXZ 0000000180016230 f i CmRenderOutput.obj
 0001:00015280       ?outputSegment@RenderOutput@Cm@physx@@QEAAXAEBVPxVec3@3@0@Z 0000000180016280 f i CmRenderOutput.obj
 0001:00015300       ?pushBack@?$Array@DVNamedAllocator@shdfnd@physx@@@shdfnd@physx@@QEAAAEADAEBD@Z 0000000180016300 f i CmRenderOutput.obj
 0001:000153a0       ?pushBack@?$Array@UPxDebugLine@physx@@VNamedAllocator@shdfnd@2@@shdfnd@physx@@QEAAAEAUPxDebugLine@3@AEBU43@@Z 00000001800163a0 f i CmRenderOutput.obj
 0001:00015440       ?pushBack@?$Array@UPxDebugPoint@physx@@VNamedAllocator@shdfnd@2@@shdfnd@physx@@QEAAAEAUPxDebugPoint@3@AEBU43@@Z 0000000180016440 f i CmRenderOutput.obj
 0001:000154e0       ?pushBack@?$Array@UPxDebugText@physx@@VNamedAllocator@shdfnd@2@@shdfnd@physx@@QEAAAEAUPxDebugText@3@AEBU43@@Z 00000001800164e0 f i CmRenderOutput.obj
 0001:00015580       ?pushBack@?$Array@UPxDebugTriangle@physx@@VNamedAllocator@shdfnd@2@@shdfnd@physx@@QEAAAEAUPxDebugTriangle@3@AEBU43@@Z 0000000180016580 f i CmRenderOutput.obj
 0001:00015620       ?recreate@?$Array@DVNamedAllocator@shdfnd@physx@@@shdfnd@physx@@IEAAXI@Z 0000000180016620 f i CmRenderOutput.obj
 0001:00015730       ?recreate@?$Array@UPxDebugLine@physx@@VNamedAllocator@shdfnd@2@@shdfnd@physx@@IEAAXI@Z 0000000180016730 f i CmRenderOutput.obj
 0001:00015850       ?reserve@?$Array@DVNamedAllocator@shdfnd@physx@@@shdfnd@physx@@QEAAXI@Z 0000000180016850 f i CmRenderOutput.obj
 0001:00015880       ?reserve@?$Array@UPxDebugLine@physx@@VNamedAllocator@shdfnd@2@@shdfnd@physx@@QEAAXI@Z 0000000180016880 f i CmRenderOutput.obj
 0001:000158b0       ?reserveSegments@RenderOutput@Cm@physx@@QEAAPEAUPxDebugLine@3@I@Z 00000001800168b0 f i CmRenderOutput.obj
 0001:000158e0       ?rotate@PxMat44@physx@@QEBA?BVPxVec3@2@AEBV32@@Z 00000001800168e0 f i CmRenderOutput.obj
 0001:00015940       ?rotate@PxMat44@physx@@QEBA?BVPxVec4@2@AEBV32@@Z 0000000180016940 f i CmRenderOutput.obj
 0001:00015a00       ?sin@intrinsics@physx@@YAMM@Z 0000000180016a00 f i CmRenderOutput.obj
 0001:00015a20       ?size@?$Array@DVNamedAllocator@shdfnd@physx@@@shdfnd@physx@@QEBAIXZ 0000000180016a20 f i CmRenderOutput.obj
 0001:00015a30       ?size@?$Array@UPxDebugLine@physx@@VNamedAllocator@shdfnd@2@@shdfnd@physx@@QEBAIXZ 0000000180016a30 f i CmRenderOutput.obj
 0001:00015a40       ?size@?$Array@UPxDebugText@physx@@VNamedAllocator@shdfnd@2@@shdfnd@physx@@QEBAIXZ 0000000180016a40 f i CmRenderOutput.obj
 0001:00015a50       ?transform@PxMat44@physx@@QEBA?BVPxVec3@2@AEBV32@@Z 0000000180016a50 f i CmRenderOutput.obj
 0001:00015ab0       ?transform@PxMat44@physx@@QEBA?BVPxVec4@2@AEBV32@@Z 0000000180016ab0 f i CmRenderOutput.obj
 0001:00015cf0       ?visualizeJointFrames@Cm@physx@@YAXAEAVRenderOutput@12@MAEBVPxTransform@2@1@Z 0000000180016cf0 f   CmVisualization.obj
 0001:00015e30       ?visualizeLinearLimit@Cm@physx@@YAXAEAVRenderOutput@12@MAEBVPxTransform@2@1M_N@Z 0000000180016e30 f   CmVisualization.obj
 0001:00016000       ?visualizeAngularLimit@Cm@physx@@YAXAEAVRenderOutput@12@MAEBVPxTransform@2@MM_N@Z 0000000180017000 f   CmVisualization.obj
 0001:000162d0       ?visualizeLimitCone@Cm@physx@@YAXAEAVRenderOutput@12@MAEBVPxTransform@2@MM_N@Z 00000001800172d0 f   CmVisualization.obj
 0001:00016600       ?visualizeDoubleCone@Cm@physx@@YAXAEAVRenderOutput@12@MAEBVPxTransform@2@M_N@Z 0000000180017600 f   CmVisualization.obj
 0001:00016a60       ??$PX_UNUSED@W4PxZERO@physx@@@@YAXAEBW4PxZERO@physx@@@Z 0000000180017a60 f i CmVisualization.obj
 0001:00016a70       ??0DebugArrow@Cm@physx@@QEAA@AEBVPxVec3@2@0@Z 0000000180017a70 f i CmVisualization.obj
 0001:00016ae0       ??0DebugBasis@Cm@physx@@QEAA@AEBVPxVec3@2@III@Z 0000000180017ae0 f i CmVisualization.obj
 0001:00016b40       ??0PxQuat@physx@@QEAA@MAEBVPxVec3@1@@Z 0000000180017b40 f i CmVisualization.obj
 0001:00016c30       ??0PxTransform@physx@@QEAA@W4PxIDENTITY@1@@Z 0000000180017c30 f i CmVisualization.obj
 0001:00016c80       ??0PxVec3@physx@@QEAA@W4PxZERO@1@@Z 0000000180017c80 f i CmVisualization.obj
 0001:00016cd0       ??DPxQuat@physx@@QEBA?AV01@AEBV01@@Z 0000000180017cd0 f i CmVisualization.obj
 0001:00016e80       ?PxTan@physx@@YAMM@Z       0000000180017e80 f i CmVisualization.obj
 0001:00016ea0       ?getBasisVector0@PxQuat@physx@@QEBA?AVPxVec3@2@XZ 0000000180017ea0 f i CmVisualization.obj
 0001:00016f80       ?rotate@PxQuat@physx@@QEBA?BVPxVec3@2@AEBV32@@Z 0000000180017f80 f i CmVisualization.obj
 0001:00017160       ??0CmModuleUpdateLoader@Cm@physx@@QEAA@PEBD@Z 0000000180018160 f   CmWindowsModuleUpdateLoader.obj
 0001:000171d0       ??1CmModuleUpdateLoader@Cm@physx@@QEAA@XZ 00000001800181d0 f   CmWindowsModuleUpdateLoader.obj
 0001:00017210       ?LoadModule@CmModuleUpdateLoader@Cm@physx@@QEAAPEAUHINSTANCE__@@PEBD0@Z 0000000180018210 f   CmWindowsModuleUpdateLoader.obj
 0001:00017280       ??4CmModuleUpdateLoader@Cm@physx@@QEAAAEAV012@AEBV012@@Z 0000000180018280 f i CmWindowsModuleUpdateLoader.obj
 0001:000172b0       ?loadLibrary@Cm@physx@@YAPEAUHINSTANCE__@@PEBD@Z 00000001800182b0 f i CmWindowsModuleUpdateLoader.obj
 0001:000172d0       PxSetPhysXCommonDelayLoadHook 00000001800182d0 f   CmWindowsDelayLoadHook.obj
 0001:000172f0       ?commonDelayHook@@YAP6A_JXZIPEAUDelayLoadInfo@@@Z 00000001800182f0 f   CmWindowsDelayLoadHook.obj
 0001:00017370       ?physXCommonDliNotePreLoadLibrary@Cm@physx@@YAP6A_JXZPEBDPEBVPxDelayLoadHook@2@@Z 0000000180018370 f i CmWindowsDelayLoadHook.obj
 0001:00017400       ?computeBounds@Gu@physx@@YAXAEAVPxBounds3@2@AEBVPxGeometry@2@AEBVPxTransform@2@MPEIBVCenterExtentsPadded@12@M@Z 0000000180018400 f   GuBounds.obj
 0001:00018470       ?computeBoundsWithCCDThreshold@Gu@physx@@YAMAEAVVec3p@12@0AEBVPxGeometry@2@AEBVPxTransform@2@PEIBVCenterExtentsPadded@12@@Z 0000000180019470 f   GuBounds.obj
 0001:00018770       ??0ShapeData@Gu@physx@@QEAA@AEBVPxGeometry@2@AEBVPxTransform@2@M@Z 0000000180019770 f   GuBounds.obj
 0001:0001a4e0       ??$PxMin@M@physx@@YAMMM@Z  000000018001b4e0 f i GuBounds.obj
 0001:0001a510       ??0?$PxFlags@W4Enum@PxBaseFlag@physx@@G@physx@@QEAA@AEBV01@@Z 000000018001b510 f i GuBounds.obj
 0001:0001a530       ??0?$PxFlags@W4Enum@PxConvexMeshGeometryFlag@physx@@E@physx@@QEAA@AEBV01@@Z 000000018001b530 f i GuBounds.obj
 0001:0001a550       ??0?$PxFlags@W4Enum@PxHeightFieldFlag@physx@@G@physx@@QEAA@AEBV01@@Z 000000018001b550 f i GuBounds.obj
 0001:0001a570       ??0?$PxFlags@W4Enum@PxHeightFieldFlag@physx@@G@physx@@QEAA@W4PxEMPTY@1@@Z 000000018001b570 f i GuBounds.obj
 0001:0001a580       ??0?$PxFlags@W4Enum@PxHeightFieldFlag@physx@@G@physx@@QEAA@XZ 000000018001b580 f i GuBounds.obj
 0001:0001a5a0       ??0Box@Gu@physx@@QEAA@AEBV012@@Z 000000018001b5a0 f i GuBounds.obj
 0001:0001a600       ??0Box@Gu@physx@@QEAA@AEBVPxVec3@2@0AEBVPxMat33@2@@Z 000000018001b600 f i GuBounds.obj
 0001:0001a660       ??0Box@Gu@physx@@QEAA@XZ   000000018001b660 f i GuBounds.obj
 0001:0001a6b0       ??0CenterExtents@Gu@physx@@QEAA@AEBV012@@Z 000000018001b6b0 f i GuBounds.obj
 0001:0001a700       ??0CenterExtents@Gu@physx@@QEAA@XZ 000000018001b700 f i GuBounds.obj
 0001:0001a740       ??0HeightFieldData@Gu@physx@@QEAA@$$QEAU012@@Z 000000018001b740 f i GuBounds.obj
 0001:0001a820       ??0HeightFieldData@Gu@physx@@QEAA@AEBU012@@Z 000000018001b820 f i GuBounds.obj
 0001:0001a900       ??0HeightFieldData@Gu@physx@@QEAA@W4PxEMPTY@2@@Z 000000018001b900 f i GuBounds.obj
 0001:0001a940       ??0HeightFieldData@Gu@physx@@QEAA@XZ 000000018001b940 f i GuBounds.obj
 0001:0001a980       ??0PxBounds3@physx@@QEAA@XZ 000000018001b980 f i GuBounds.obj
 0001:0001a9c0       ??0PxMat33@physx@@QEAA@AEBV01@@Z 000000018001b9c0 f i GuBounds.obj
 0001:0001aa20       ??0PxMat33@physx@@QEAA@AEBVPxVec3@1@00@Z 000000018001ba20 f i GuBounds.obj
 0001:0001aa80       ??0PxMat33@physx@@QEAA@W4PxIDENTITY@1@@Z 000000018001ba80 f i GuBounds.obj
 0001:0001ab00       ??0PxMat33@physx@@QEAA@XZ  000000018001bb00 f i GuBounds.obj
 0001:0001ab50       ??0PxMat33Padded@Gu@physx@@QEAA@AEBVPxQuat@2@@Z 000000018001bb50 f i GuBounds.obj
 0001:0001ac30       ??0PxMeshScale@physx@@QEAA@AEBVPxVec3@1@AEBVPxQuat@1@@Z 000000018001bc30 f i GuBounds.obj
 0001:0001acf0       ??0PxPlane@physx@@QEAA@AEBVPxVec3@1@0@Z 000000018001bcf0 f i GuBounds.obj
 0001:0001ad50       ??0PxQuat@physx@@QEAA@AEBVPxMat33@1@@Z 000000018001bd50 f i GuBounds.obj
 0001:0001b1a0       ??0Sphere@Gu@physx@@QEAA@AEBVPxVec3@2@M@Z 000000018001c1a0 f i GuBounds.obj
 0001:0001b1e0       ??0Vec3p@Gu@physx@@QEAA@AEBVPxVec3@2@@Z 000000018001c1e0 f i GuBounds.obj
 0001:0001b210       ??0Vec3p@Gu@physx@@QEAA@XZ 000000018001c210 f i GuBounds.obj
 0001:0001b230       ??1Box@Gu@physx@@QEAA@XZ   000000018001c230 f i GuBounds.obj
 0001:0001b240       ??1CenterExtents@Gu@physx@@QEAA@XZ 000000018001c240 f i GuBounds.obj
 0001:0001b250       ??1HeightFieldData@Gu@physx@@QEAA@XZ 000000018001c250 f i GuBounds.obj
 0001:0001b270       ??1PxBase@physx@@MEAA@XZ   000000018001c270 f i GuBounds.obj
 0001:0001b290       ??1PxConvexMesh@physx@@MEAA@XZ 000000018001c290 f i GuBounds.obj
 0001:0001b2c0       ??1PxHeightField@physx@@MEAA@XZ 000000018001c2c0 f i GuBounds.obj
 0001:0001b2f0       ??1PxMat33Padded@Gu@physx@@QEAA@XZ 000000018001c2f0 f i GuBounds.obj
 0001:0001b300       ??1Sphere@Gu@physx@@QEAA@XZ 000000018001c300 f i GuBounds.obj
 0001:0001b310       ??1Vec3p@Gu@physx@@QEAA@XZ 000000018001c310 f i GuBounds.obj
 0001:0001b320       ??4?$PxFlags@W4Enum@PxHeightFieldFlag@physx@@G@physx@@QEAAAEAV01@AEBV01@@Z 000000018001c320 f i GuBounds.obj
 0001:0001b340       ??4Box@Gu@physx@@QEAAAEBV012@AEBV012@@Z 000000018001c340 f i GuBounds.obj
 0001:0001b3a0       ??4CenterExtents@Gu@physx@@QEAAAEAV012@AEBV012@@Z 000000018001c3a0 f i GuBounds.obj
 0001:0001b3f0       ??4HeightFieldData@Gu@physx@@QEAAAEAU012@$$QEAU012@@Z 000000018001c3f0 f i GuBounds.obj
 0001:0001b4d0       ??4HeightFieldData@Gu@physx@@QEAAAEAU012@AEBU012@@Z 000000018001c4d0 f i GuBounds.obj
 0001:0001b5b0       ??4PxMat33@physx@@QEAAAEAV01@AEBV01@@Z 000000018001c5b0 f i GuBounds.obj
 0001:0001b610       ??4PxMat33Padded@Gu@physx@@QEAAXAEBVPxMat33@2@@Z 000000018001c610 f i GuBounds.obj
 0001:0001b670       ??4Sphere@Gu@physx@@QEAAAEAV012@AEBV012@@Z 000000018001c670 f i GuBounds.obj
 0001:0001b6b0       ??4Vec3p@Gu@physx@@QEAAAEAV012@AEBV012@@Z 000000018001c6b0 f i GuBounds.obj
 0001:0001b6f0       ??APxMat33@physx@@QEBAAEBVPxVec3@1@I@Z 000000018001c6f0 f i GuBounds.obj
 0001:0001b710       ??APxVec3@physx@@QEAAAEAMI@Z 000000018001c710 f i GuBounds.obj
 0001:0001b760       ??APxVec3@physx@@QEBAAEBMI@Z 000000018001c760 f i GuBounds.obj
 0001:0001b7b0       ??B?$PxBitAndDataT@E$0IA@@physx@@QEBAEXZ 000000018001c7b0 f i GuBounds.obj
 0001:0001b7d0       ??B?$PxBitAndDataT@G$0IAAA@@physx@@QEBAGXZ 000000018001c7d0 f i GuBounds.obj
 0001:0001b7f0       ??B?$PxFlags@W4Enum@PxBaseFlag@physx@@G@physx@@QEBA_NXZ 000000018001c7f0 f i GuBounds.obj
 0001:0001b820       ??B?$PxFlags@W4Enum@PxConvexMeshGeometryFlag@physx@@E@physx@@QEBA_NXZ 000000018001c820 f i GuBounds.obj
 0001:0001b850       ??DPxMat33@physx@@QEBA?BV01@AEBV01@@Z 000000018001c850 f i GuBounds.obj
 0001:0001b8f0       ??DPxMat33@physx@@QEBA?BVPxVec3@1@AEBV21@@Z 000000018001c8f0 f i GuBounds.obj
 0001:0001b930       ??I?$PxFlags@W4Enum@PxBaseFlag@physx@@G@physx@@QEBA?AV01@W4Enum@PxBaseFlag@1@@Z 000000018001c930 f i GuBounds.obj
 0001:0001b980       ??I?$PxFlags@W4Enum@PxConvexMeshGeometryFlag@physx@@E@physx@@QEBA?AV01@W4Enum@PxConvexMeshGeometryFlag@1@@Z 000000018001c980 f i GuBounds.obj
 0001:0001b9d0       ??_EPxConvexMesh@physx@@MEAAPEAXI@Z 000000018001c9d0 f i GuBounds.obj
 0001:0001ba70       ??_EPxHeightField@physx@@MEAAPEAXI@Z 000000018001ca70 f i GuBounds.obj
 0001:0001bb10       ??_GPxBase@physx@@MEAAPEAXI@Z 000000018001cb10 f i GuBounds.obj
 0001:0001bb10       ??_EPxBase@physx@@MEAAPEAXI@Z 000000018001cb10 f i GuBounds.obj
 0001:0001bb50       ??_H@YAXPEAX_K1P6APEAX0@Z@Z 000000018001cb50 f i GuBounds.obj
 0001:0001bbd0       ?FLoad@aos@shdfnd@physx@@YA?AT__m128@@M@Z 000000018001cbd0 f i GuBounds.obj
 0001:0001bc00       ?QuatGetMat33V@aos@shdfnd@physx@@YAXAEBT__m128@@AEAT4@11@Z 000000018001cc00 f i GuBounds.obj
 0001:0001bfb0       ?V3Load@aos@shdfnd@physx@@YA?AT__m128@@M@Z 000000018001cfb0 f i GuBounds.obj
 0001:0001bff0       ?V3LoadU@aos@shdfnd@physx@@YA?AT__m128@@PEBM@Z 000000018001cff0 f i GuBounds.obj
 0001:0001c050       ?V4Abs@aos@shdfnd@physx@@YA?AT__m128@@T4@@Z 000000018001d050 f i GuBounds.obj
 0001:0001c0b0       ?V4Add@aos@shdfnd@physx@@YA?AT__m128@@T4@0@Z 000000018001d0b0 f i GuBounds.obj
 0001:0001c0e0       ?V4ClearW@aos@shdfnd@physx@@YA?AT__m128@@T4@@Z 000000018001d0e0 f i GuBounds.obj
 0001:0001c110       ?V4GetW@aos@shdfnd@physx@@YA?AT__m128@@T4@@Z 000000018001d110 f i GuBounds.obj
 0001:0001c140       ?V4GetX@aos@shdfnd@physx@@YA?AT__m128@@T4@@Z 000000018001d140 f i GuBounds.obj
 0001:0001c170       ?V4GetY@aos@shdfnd@physx@@YA?AT__m128@@T4@@Z 000000018001d170 f i GuBounds.obj
 0001:0001c1a0       ?V4GetZ@aos@shdfnd@physx@@YA?AT__m128@@T4@@Z 000000018001d1a0 f i GuBounds.obj
 0001:0001c1d0       ?V4Load@aos@shdfnd@physx@@YA?AT__m128@@M@Z 000000018001d1d0 f i GuBounds.obj
 0001:0001c200       ?V4LoadU@aos@shdfnd@physx@@YA?AT__m128@@QEBM@Z 000000018001d200 f i GuBounds.obj
 0001:0001c220       ?V4Max@aos@shdfnd@physx@@YA?AT__m128@@T4@0@Z 000000018001d220 f i GuBounds.obj
 0001:0001c250       ?V4Min@aos@shdfnd@physx@@YA?AT__m128@@T4@0@Z 000000018001d250 f i GuBounds.obj
 0001:0001c280       ?V4Mul@aos@shdfnd@physx@@YA?AT__m128@@T4@0@Z 000000018001d280 f i GuBounds.obj
 0001:0001c2b0       ?V4MulAdd@aos@shdfnd@physx@@YA?AT__m128@@T4@00@Z 000000018001d2b0 f i GuBounds.obj
 0001:0001c340       ?V4Neg@aos@shdfnd@physx@@YA?AT__m128@@T4@@Z 000000018001d340 f i GuBounds.obj
 0001:0001c370       ?V4Scale@aos@shdfnd@physx@@YA?AT__m128@@T4@0@Z 000000018001d370 f i GuBounds.obj
 0001:0001c3a0       ?V4StoreA@aos@shdfnd@physx@@YAXT__m128@@PEAM@Z 000000018001d3a0 f i GuBounds.obj
 0001:0001c420       ?V4StoreU@aos@shdfnd@physx@@YAXT__m128@@PEAM@Z 000000018001d420 f i GuBounds.obj
 0001:0001c440       ?V4Sub@aos@shdfnd@physx@@YA?AT__m128@@T4@0@Z 000000018001d440 f i GuBounds.obj
 0001:0001c470       ?Vec3V_From_Vec4V@aos@shdfnd@physx@@YA?AT__m128@@T4@@Z 000000018001d470 f i GuBounds.obj
 0001:0001c4a0       ?Vec4V_From_Vec3V@aos@shdfnd@physx@@YA?AT__m128@@T4@@Z 000000018001d4a0 f i GuBounds.obj
 0001:0001c4b0       ?abs@PxVec3@physx@@QEBA?AV12@XZ 000000018001d4b0 f i GuBounds.obj
 0001:0001c520       ?basisExtent@Cm@physx@@YA?AVPxVec3@2@AEBV32@000@Z 000000018001d520 f i GuBounds.obj
 0001:0001c6b0       ?buildFrom@physx@@YAXAEAVBox@Gu@1@AEBVPxQuat@1@@Z 000000018001d6b0 f i GuBounds.obj
 0001:0001c7f0       ?computeAABBExtent@Box@Gu@physx@@QEBA?AVPxVec3@3@XZ 000000018001d7f0 f i GuBounds.obj
 0001:0001ca70       ?computeBoxPoints@Box@Gu@physx@@QEBAXPEIAVPxVec3@3@@Z 000000018001da70 f i GuBounds.obj
 0001:0001cad0       ?dot@PxVec3@physx@@QEBAMAEBV12@@Z 000000018001dad0 f i GuBounds.obj
 0001:0001cb20       ?fsel@intrinsics@physx@@YAMMMM@Z 000000018001db20 f i GuBounds.obj
 0001:0001cb70       ?getCapsule@Gu@physx@@YAXAEAVCapsule@12@AEBVPxCapsuleGeometry@2@AEBVPxTransform@2@@Z 000000018001db70 f i GuBounds.obj
 0001:0001cbb0       ?getCapsuleHalfHeightVector@Gu@physx@@YA?AVPxVec3@2@AEBVPxTransform@2@AEBVPxCapsuleGeometry@2@@Z 000000018001dbb0 f i GuBounds.obj
 0001:0001cc00       ?getCapsuleSegment@Gu@physx@@YAXAEBVPxTransform@2@AEBVPxCapsuleGeometry@2@AEAVSegment@12@@Z 000000018001dc00 f i GuBounds.obj
 0001:0001cc80       ?getCenter@PxBounds3@physx@@QEBA?AVPxVec3@2@XZ 000000018001dc80 f i GuBounds.obj
 0001:0001cd00       ?getConcreteTypeName@PxConvexMesh@physx@@UEBAPEBDXZ 000000018001dd00 f i GuBounds.obj
 0001:0001cd10       ?getConcreteTypeName@PxHeightField@physx@@UEBAPEBDXZ 000000018001dd10 f i GuBounds.obj
 0001:0001cd20       ?getConvexEdgeThreshold@HeightField@Gu@physx@@UEBAMXZ 000000018001dd20 f i GuBounds.obj
 0001:0001cd30       ?getData@HeightField@Gu@physx@@QEBAAEBUHeightFieldData@23@XZ 000000018001dd30 f i GuBounds.obj
 0001:0001cd40       ?getDimensions@PxBounds3@physx@@QEBA?AVPxVec3@2@XZ 000000018001dd40 f i GuBounds.obj
 0001:0001cda0       ?getExtents@PxBounds3@physx@@QEBA?AVPxVec3@2@XZ 000000018001dda0 f i GuBounds.obj
 0001:0001ce10       ?getFlags@HeightField@Gu@physx@@UEBA?AV?$PxFlags@W4Enum@PxHeightFieldFlag@physx@@G@3@XZ 000000018001de10 f i GuBounds.obj
 0001:0001ce40       ?getFormat@HeightField@Gu@physx@@UEBA?AW4Enum@PxHeightFieldFormat@3@XZ 000000018001de40 f i GuBounds.obj
 0001:0001ce50       ?getHeight@HeightField@Gu@physx@@QEBAMI@Z 000000018001de50 f i GuBounds.obj
 0001:0001ce80       ?getHeight@HeightField@Gu@physx@@UEBAMMM@Z 000000018001de80 f i GuBounds.obj
 0001:0001ceb0       ?getHeightInternal2@HeightField@Gu@physx@@QEBAMIMM@Z 000000018001deb0 f i GuBounds.obj
 0001:0001d120       ?getHeightInternal@HeightField@Gu@physx@@QEBAMMM@Z 000000018001e120 f i GuBounds.obj
 0001:0001d180       ?getHull@ConvexMesh@Gu@physx@@QEBAAEBUConvexHullData@23@XZ 000000018001e180 f i GuBounds.obj
 0001:0001d190       ?getHullVertices@ConvexHullData@Gu@physx@@QEBAPEBVPxVec3@3@XZ 000000018001e190 f i GuBounds.obj
 0001:0001d1d0       ?getIndexBuffer@ConvexMesh@Gu@physx@@UEBAPEBEXZ 000000018001e1d0 f i GuBounds.obj
 0001:0001d1f0       ?getMaterialIndex0@HeightField@Gu@physx@@QEBAGI@Z 000000018001e1f0 f i GuBounds.obj
 0001:0001d220       ?getMaterialIndex1@HeightField@Gu@physx@@QEBAGI@Z 000000018001e220 f i GuBounds.obj
 0001:0001d250       ?getNbColumns@HeightField@Gu@physx@@UEBAIXZ 000000018001e250 f i GuBounds.obj
 0001:0001d260       ?getNbColumnsFast@HeightField@Gu@physx@@QEBAIXZ 000000018001e260 f i GuBounds.obj
 0001:0001d270       ?getNbPolygons@ConvexMesh@Gu@physx@@UEBAIXZ 000000018001e270 f i GuBounds.obj
 0001:0001d280       ?getNbRows@HeightField@Gu@physx@@UEBAIXZ 000000018001e280 f i GuBounds.obj
 0001:0001d290       ?getNbVertices@ConvexMesh@Gu@physx@@UEBAIXZ 000000018001e290 f i GuBounds.obj
 0001:0001d2a0       ?getPaddedBounds@ConvexHullData@Gu@physx@@QEBAAEBVCenterExtentsPadded@23@XZ 000000018001e2a0 f i GuBounds.obj
 0001:0001d2b0       ?getPaddedBounds@HeightFieldData@Gu@physx@@QEBAAEBVCenterExtentsPadded@23@XZ 000000018001e2b0 f i GuBounds.obj
 0001:0001d2c0       ?getPaddedBounds@TriangleMesh@Gu@physx@@QEBAAEBVCenterExtentsPadded@23@XZ 000000018001e2c0 f i GuBounds.obj
 0001:0001d2d0       ?getSample@HeightField@Gu@physx@@QEBAAEBUPxHeightFieldSample@3@I@Z 000000018001e2d0 f i GuBounds.obj
 0001:0001d350       ?getSample@HeightField@Gu@physx@@UEBAAEBUPxHeightFieldSample@3@II@Z 000000018001e350 f i GuBounds.obj
 0001:0001d390       ?getSampleStride@HeightField@Gu@physx@@UEBAIXZ 000000018001e390 f i GuBounds.obj
 0001:0001d3a0       ?getTimestamp@HeightField@Gu@physx@@UEBAIXZ 000000018001e3a0 f i GuBounds.obj
 0001:0001d3b0       ?getTransform@Box@Gu@physx@@QEBA?AVPxTransform@3@XZ 000000018001e3b0 f i GuBounds.obj
 0001:0001d400       ?getTranspose@PxMat33@physx@@QEBA?BV12@XZ 000000018001e400 f i GuBounds.obj
 0001:0001d4b0       ?getTriangleMaterial@HeightField@Gu@physx@@QEBAGI@Z 000000018001e4b0 f i GuBounds.obj
 0001:0001d510       ?getTriangleMaterialIndex@HeightField@Gu@physx@@UEBAGI@Z 000000018001e510 f i GuBounds.obj
 0001:0001d530       ?getTriangleNormal@HeightField@Gu@physx@@UEBA?AVPxVec3@3@I@Z 000000018001e530 f i GuBounds.obj
 0001:0001d570       ?getTriangleNormalInternal@HeightField@Gu@physx@@QEBA?AVPxVec3@3@I@Z 000000018001e570 f i GuBounds.obj
 0001:0001d7d0       ?getTriangleVertexIndices@HeightField@Gu@physx@@QEBAXIAEAI00@Z 000000018001e7d0 f i GuBounds.obj
 0001:0001d920       ?getType@PxGeometry@physx@@QEBA?AW4Enum@PxGeometryType@2@XZ 000000018001e920 f i GuBounds.obj
 0001:0001d930       ?getVertexData8@ConvexHullData@Gu@physx@@QEBAPEBEXZ 000000018001e930 f i GuBounds.obj
 0001:0001da10       ?getVertices@ConvexMesh@Gu@physx@@UEBAPEBVPxVec3@3@XZ 000000018001ea10 f i GuBounds.obj
 0001:0001da30       ?isAligned16@aos@shdfnd@physx@@YA_NPEAX@Z 000000018001ea30 f i GuBounds.obj
 0001:0001da60       ?isBitSet@?$PxBitAndDataT@E$0IA@@physx@@QEBAEXZ 000000018001ea60 f i GuBounds.obj
 0001:0001da80       ?isBitSet@?$PxBitAndDataT@G$0IAAA@@physx@@QEBAGXZ 000000018001ea80 f i GuBounds.obj
 0001:0001daa0       ?isFinite@PxBounds3@physx@@QEBA_NXZ 000000018001eaa0 f i GuBounds.obj
 0001:0001db00       ?isFinite@PxVec3@physx@@QEBA_NXZ 000000018001eb00 f i GuBounds.obj
 0001:0001db70       ?isFirstTriangle@HeightField@Gu@physx@@QEBA_NI@Z 000000018001eb70 f i GuBounds.obj
 0001:0001dbb0       ?isIdentity@PxMeshScale@physx@@QEBA_NXZ 000000018001ebb0 f i GuBounds.obj
 0001:0001dc10       ?isKindOf@PxBase@physx@@MEBA_NPEBD@Z 000000018001ec10 f i GuBounds.obj
 0001:0001dc50       ?isKindOf@PxConvexMesh@physx@@MEBA_NPEBD@Z 000000018001ec50 f i GuBounds.obj
 0001:0001dcb0       ?isKindOf@PxHeightField@physx@@MEBA_NPEBD@Z 000000018001ecb0 f i GuBounds.obj
 0001:0001dd10       ?isReleasable@PxBase@physx@@UEBA_NXZ 000000018001ed10 f i GuBounds.obj
 0001:0001dd50       ?isUnit@PxQuat@physx@@QEBA_NXZ 000000018001ed50 f i GuBounds.obj
 0001:0001ddc0       ?isValid@Box@Gu@physx@@QEBA_NXZ 000000018001edc0 f i GuBounds.obj
 0001:0001de00       ?isValid@PxBounds3@physx@@QEBA_NXZ 000000018001ee00 f i GuBounds.obj
 0001:0001def0       ?isValidVertex@HeightField@Gu@physx@@QEBA_NI@Z 000000018001eef0 f i GuBounds.obj
 0001:0001df30       ?isZerothVertexShared@HeightField@Gu@physx@@QEBA_NI@Z 000000018001ef30 f i GuBounds.obj
 0001:0001df80       ?preExportDataReset@ConvexMesh@Gu@physx@@QEAAXXZ 000000018001ef80 f i GuBounds.obj
 0001:0001dfa0       ?preExportDataReset@HeightField@Gu@physx@@QEAAXXZ 000000018001efa0 f i GuBounds.obj
 0001:0001dfc0       ?preExportDataReset@RefCountable@Cm@physx@@QEAAXXZ 000000018001efc0 f i GuBounds.obj
 0001:0001dfe0       ?prefetchLine@shdfnd@physx@@YAXPEBXI@Z 000000018001efe0 f i GuBounds.obj
 0001:0001e000       ?rotate@Box@Gu@physx@@QEBA?AVPxVec3@3@AEBV43@@Z 000000018001f000 f i GuBounds.obj
 0001:0001e040       ?rotateInv@Box@Gu@physx@@QEBA?AVPxVec3@3@AEBV43@@Z 000000018001f040 f i GuBounds.obj
 0001:0001e080       ?selectMin@intrinsics@physx@@YAMMM@Z 000000018001f080 f i GuBounds.obj
 0001:0001e0c0       ?setAxes@Box@Gu@physx@@QEAAXAEBVPxVec3@3@00@Z 000000018001f0c0 f i GuBounds.obj
 0001:0001e120       ?setEmpty@Box@Gu@physx@@QEAAXXZ 000000018001f120 f i GuBounds.obj
 0001:0001e1a0       ?tessFlag@PxHeightFieldSample@physx@@QEBAEXZ 000000018001f1a0 f i GuBounds.obj
 0001:0001e1e0       ?toMat33@PxMeshScale@physx@@QEBA?AVPxMat33@2@XZ 000000018001f1e0 f i GuBounds.obj
 0001:0001e2a0       ?transform@Box@Gu@physx@@QEBA?AVPxVec3@3@AEBV43@@Z 000000018001f2a0 f i GuBounds.obj
 0001:0001e300       ?transform@PxMat33@physx@@QEBA?BVPxVec3@2@AEBV32@@Z 000000018001f300 f i GuBounds.obj
 0001:0001e3b0       ?transformTranspose@PxMat33@physx@@QEBA?BVPxVec3@2@AEBV32@@Z 000000018001f3b0 f i GuBounds.obj
 0001:0001e440       ?computeOBBPoints@Gu@physx@@YAXPEIAVPxVec3@2@AEBV32@1111@Z 000000018001f440 f   GuBox.obj
 0001:0001e7a0       ?create@Box@Gu@physx@@QEAAXAEBVCapsule@23@@Z 000000018001f7a0 f   GuBox.obj
 0001:0001e910       ?getBoxEdges@Gu@physx@@YAPEBEXZ 000000018001f910 f   GuBox.obj
 0001:0001e920       ??YPxVec3@physx@@QEAAAEAV01@AEBV01@@Z 000000018001f920 f i GuBox.obj
 0001:0001e990       ??ZPxVec3@physx@@QEAAAEAV01@AEBV01@@Z 000000018001f990 f i GuBox.obj
 0001:0001ea00       ?computeBasis@shdfnd@physx@@YAXAEBVPxVec3@2@AEAV32@1@Z 000000018001fa00 f i GuBox.obj
 0001:0001eb70       ?computeCenter@Segment@Gu@physx@@QEBA?AVPxVec3@3@XZ 000000018001fb70 f i GuBox.obj
 0001:0001ebc0       ?computeBoxAroundCapsule@Gu@physx@@YAXAEBVCapsule@12@AEAVBox@12@@Z 000000018001fbc0 f   GuCapsule.obj
 0001:0001ed30       ?computeBasis@shdfnd@physx@@YAXAEBVPxVec3@2@0AEAV32@11@Z 000000018001fd30 f i GuCapsule.obj
 0001:0001ee10       ?sweepBoxTriangles_Precise@Gu@physx@@YA_NIPEBVPxTriangle@2@_NAEBVPxBoxGeometry@2@AEBVPxTransform@2@AEBVPxVec3@2@MAEAUPxSweepHit@2@PEBIMV?$PxFlags@W4Enum@PxHitFlag@physx@@G@2@@Z 000000018001fe10 f   GuCCTSweepTests.obj
 0001:0001ef10       ?sweepCapsule_BoxGeom_Precise@@YA_NAEBVPxGeometry@physx@@AEBVPxTransform@2@AEBVPxCapsuleGeometry@2@1AEBVCapsule@Gu@2@AEBVPxVec3@2@MAEAUPxSweepHit@2@V?$PxFlags@W4Enum@PxHitFlag@physx@@G@2@M@Z 000000018001ff10 f   GuCCTSweepTests.obj
 0001:0001f500       ?sweepBox_SphereGeom_Precise@@YA_NAEBVPxGeometry@physx@@AEBVPxTransform@2@AEBVPxBoxGeometry@2@1AEBVBox@Gu@2@AEBVPxVec3@2@MAEAUPxSweepHit@2@V?$PxFlags@W4Enum@PxHitFlag@physx@@G@2@M@Z 0000000180020500 f   GuCCTSweepTests.obj
 0001:0001f8b0       ?sweepBox_CapsuleGeom_Precise@@YA_NAEBVPxGeometry@physx@@AEBVPxTransform@2@AEBVPxBoxGeometry@2@1AEBVBox@Gu@2@AEBVPxVec3@2@MAEAUPxSweepHit@2@V?$PxFlags@W4Enum@PxHitFlag@physx@@G@2@M@Z 00000001800208b0 f   GuCCTSweepTests.obj
 0001:0001fcd0       ?sweepBox_BoxGeom_Precise@@YA_NAEBVPxGeometry@physx@@AEBVPxTransform@2@AEBVPxBoxGeometry@2@1AEBVBox@Gu@2@AEBVPxVec3@2@MAEAUPxSweepHit@2@V?$PxFlags@W4Enum@PxHitFlag@physx@@G@2@M@Z 0000000180020cd0 f   GuCCTSweepTests.obj
 0001:00020960       ?sweepBox_HeightFieldGeom_Precise@@YA_NAEBVPxGeometry@physx@@AEBVPxTransform@2@AEBVPxBoxGeometry@2@1AEBVBox@Gu@2@AEBVPxVec3@2@MAEAUPxSweepHit@2@V?$PxFlags@W4Enum@PxHitFlag@physx@@G@2@M@Z 0000000180021960 f   GuCCTSweepTests.obj
 0001:00020c10       ??$PX_UNUSED@I@@YAXAEBI@Z  0000000180021c10 f i GuCCTSweepTests.obj
 0001:00020c20       ??$PX_UNUSED@M@@YAXAEBM@Z  0000000180021c20 f i GuCCTSweepTests.obj
 0001:00020c30       ??$PX_UNUSED@VPxBoxGeometry@physx@@@@YAXAEBVPxBoxGeometry@physx@@@Z 0000000180021c30 f i GuCCTSweepTests.obj
 0001:00020c40       ??$PX_UNUSED@VPxCapsuleGeometry@physx@@@@YAXAEBVPxCapsuleGeometry@physx@@@Z 0000000180021c40 f i GuCCTSweepTests.obj
 0001:00020c50       ??$PX_UNUSED@VPxTransform@physx@@@@YAXAEBVPxTransform@physx@@@Z 0000000180021c50 f i GuCCTSweepTests.obj
 0001:00020c60       ??$PX_UNUSED@VPxVec3@physx@@@@YAXAEBVPxVec3@physx@@@Z 0000000180021c60 f i GuCCTSweepTests.obj
 0001:00020c70       ??0?$EntityReport@I@Gu@physx@@QEAA@XZ 0000000180021c70 f i GuCCTSweepTests.obj
 0001:00020c90       ??0?$PxFlags@W4Enum@PxHitFlag@physx@@G@physx@@QEAA@AEBV01@@Z 0000000180021c90 f i GuCCTSweepTests.obj
 0001:00020cb0       ??0?$PxFlags@W4Enum@PxHitFlag@physx@@G@physx@@QEAA@G@Z 0000000180021cb0 f i GuCCTSweepTests.obj
 0001:00020cd0       ??0?$PxFlags@W4Enum@PxHitFlag@physx@@G@physx@@QEAA@W4Enum@PxHitFlag@1@@Z 0000000180021cd0 f i GuCCTSweepTests.obj
 0001:00020cf0       ??0?$PxFlags@W4Enum@PxHitFlag@physx@@G@physx@@QEAA@XZ 0000000180021cf0 f i GuCCTSweepTests.obj
 0001:00020d10       ??0?$PxFlags@W4Enum@PxMeshGeometryFlag@physx@@E@physx@@QEAA@AEBV01@@Z 0000000180021d10 f i GuCCTSweepTests.obj
 0001:00020d30       ??0Capsule@Gu@physx@@QEAA@AEBV012@@Z 0000000180021d30 f i GuCCTSweepTests.obj
 0001:00020d70       ??0Capsule@Gu@physx@@QEAA@XZ 0000000180021d70 f i GuCCTSweepTests.obj
 0001:00020d90       ??0HeightFieldTraceUtil@Gu@physx@@QEAA@AEBVPxHeightFieldGeometry@2@@Z 0000000180021d90 f i GuCCTSweepTests.obj
 0001:00020dc0       ??0HeightFieldUtil@Gu@physx@@QEAA@AEBVPxHeightFieldGeometry@2@@Z 0000000180021dc0 f i GuCCTSweepTests.obj
 0001:00021010       ??0Matrix34@Cm@physx@@QEAA@AEBVPxMat33@2@AEBVPxVec3@2@@Z 0000000180022010 f i GuCCTSweepTests.obj
 0001:00021060       ??0Matrix34@Cm@physx@@QEAA@XZ 0000000180022060 f i GuCCTSweepTests.obj
 0001:000210a0       ??0PxActorShape@physx@@QEAA@XZ 00000001800220a0 f i GuCCTSweepTests.obj
 0001:000210d0       ??0PxBounds3@physx@@QEAA@AEBVPxVec3@1@0@Z 00000001800220d0 f i GuCCTSweepTests.obj
 0001:00021120       ??0PxLocationHit@physx@@QEAA@XZ 0000000180022120 f i GuCCTSweepTests.obj
 0001:00021190       ??0PxQueryHit@physx@@QEAA@XZ 0000000180022190 f i GuCCTSweepTests.obj
 0001:000211c0       ??0PxSweepHit@physx@@QEAA@XZ 00000001800221c0 f i GuCCTSweepTests.obj
 0001:000211e0       ??0PxTriangle@physx@@QEAA@AEBVPxVec3@1@00@Z 00000001800221e0 f i GuCCTSweepTests.obj
 0001:00021290       ??0PxTriangle@physx@@QEAA@XZ 0000000180022290 f i GuCCTSweepTests.obj
 0001:000212d0       ??0Segment@Gu@physx@@QEAA@AEBV012@@Z 00000001800222d0 f i GuCCTSweepTests.obj
 0001:00021320       ??0Segment@Gu@physx@@QEAA@XZ 0000000180022320 f i GuCCTSweepTests.obj
 0001:00021360       ??1?$EntityReport@I@Gu@physx@@UEAA@XZ 0000000180022360 f i GuCCTSweepTests.obj
 0001:00021380       ??1Capsule@Gu@physx@@QEAA@XZ 0000000180022380 f i GuCCTSweepTests.obj
 0001:000213d0       ??1PxTriangle@physx@@QEAA@XZ 00000001800223d0 f i GuCCTSweepTests.obj
 0001:000213e0       ??1Segment@Gu@physx@@QEAA@XZ 00000001800223e0 f i GuCCTSweepTests.obj
 0001:000213f0       ??4?$PxFlags@W4Enum@PxHitFlag@physx@@G@physx@@QEAAAEAV01@AEBV01@@Z 00000001800223f0 f i GuCCTSweepTests.obj
 0001:00021410       ??4?$PxFlags@W4Enum@PxHitFlag@physx@@G@physx@@QEAAAEAV01@W4Enum@PxHitFlag@1@@Z 0000000180022410 f i GuCCTSweepTests.obj
 0001:00021430       ??4HeightFieldTraceUtil@Gu@physx@@QEAAAEAV012@$$QEAV012@@Z 0000000180022430 f i GuCCTSweepTests.obj
 0001:00021460       ??4HeightFieldTraceUtil@Gu@physx@@QEAAAEAV012@AEBV012@@Z 0000000180022460 f i GuCCTSweepTests.obj
 0001:00021490       ??4HeightFieldUtil@Gu@physx@@QEAAAEAV012@$$QEAV012@@Z 0000000180022490 f i GuCCTSweepTests.obj
 0001:00021500       ??4HeightFieldUtil@Gu@physx@@QEAAAEAV012@AEBV012@@Z 0000000180022500 f i GuCCTSweepTests.obj
 0001:00021530       ??4Matrix34@Cm@physx@@QEAAAEBV012@AEBV012@@Z 0000000180022530 f i GuCCTSweepTests.obj
 0001:00021580       ??4PxLocationHit@physx@@QEAAAEAU01@AEBU01@@Z 0000000180022580 f i GuCCTSweepTests.obj
 0001:00021610       ??4PxSweepHit@physx@@QEAAAEAU01@AEBU01@@Z 0000000180022610 f i GuCCTSweepTests.obj
 0001:00021650       ??8PxVec3@physx@@QEBA_NAEBV01@@Z 0000000180022650 f i GuCCTSweepTests.obj
 0001:000216c0       ??B?$PxFlags@W4Enum@PxHeightFieldFlag@physx@@G@physx@@QEBA_NXZ 00000001800226c0 f i GuCCTSweepTests.obj
 0001:000216f0       ??B?$PxFlags@W4Enum@PxHitFlag@physx@@G@physx@@QEBAIXZ 00000001800226f0 f i GuCCTSweepTests.obj
 0001:00021700       ??B?$PxFlags@W4Enum@PxHitFlag@physx@@G@physx@@QEBA_NXZ 0000000180022700 f i GuCCTSweepTests.obj
 0001:00021730       ??B?$PxFlags@W4Enum@PxMeshGeometryFlag@physx@@E@physx@@QEBA_NXZ 0000000180022730 f i GuCCTSweepTests.obj
 0001:00021760       ??I?$PxFlags@W4Enum@PxHeightFieldFlag@physx@@G@physx@@QEBA?AV01@W4Enum@PxHeightFieldFlag@1@@Z 0000000180022760 f i GuCCTSweepTests.obj
 0001:000217b0       ??I?$PxFlags@W4Enum@PxHitFlag@physx@@G@physx@@QEBA?AV01@AEBV01@@Z 00000001800227b0 f i GuCCTSweepTests.obj
 0001:00021810       ??I?$PxFlags@W4Enum@PxHitFlag@physx@@G@physx@@QEBA?AV01@W4Enum@PxHitFlag@1@@Z 0000000180022810 f i GuCCTSweepTests.obj
 0001:00021860       ??I?$PxFlags@W4Enum@PxMeshGeometryFlag@physx@@E@physx@@QEBA?AV01@W4Enum@PxMeshGeometryFlag@1@@Z 0000000180022860 f i GuCCTSweepTests.obj
 0001:000218b0       ??Uphysx@@YA?AV?$PxFlags@W4Enum@PxHitFlag@physx@@G@0@W4Enum@PxHitFlag@0@0@Z 00000001800228b0 f i GuCCTSweepTests.obj
 0001:00021900       ??_5?$PxFlags@W4Enum@PxHitFlag@physx@@G@physx@@QEAAAEAV01@W4Enum@PxHitFlag@1@@Z 0000000180022900 f i GuCCTSweepTests.obj
 0001:00021930       ??_G?$EntityReport@I@Gu@physx@@UEAAPEAXI@Z 0000000180022930 f i GuCCTSweepTests.obj
 0001:00021930       ??_E?$EntityReport@I@Gu@physx@@UEAAPEAXI@Z 0000000180022930 f i GuCCTSweepTests.obj
 0001:000219b0       ?PxCeil@physx@@YAMM@Z      00000001800229b0 f i GuCCTSweepTests.obj
 0001:000219d0       ?PxFloor@physx@@YAMM@Z     00000001800229d0 f i GuCCTSweepTests.obj
 0001:000219f0       ?PxRecipSqrt@physx@@YAMM@Z 00000001800229f0 f i GuCCTSweepTests.obj
 0001:00021a10       ?basisExtent@PxBounds3@physx@@SA?AV12@AEBVPxVec3@2@AEBVPxMat33@2@0@Z 0000000180022a10 f i GuCCTSweepTests.obj
 0001:00021bf0       ?buildFrom@physx@@YAXAEAVBox@Gu@1@AEBVPxVec3@1@1AEBVPxQuat@1@@Z 0000000180022bf0 f i GuCCTSweepTests.obj
 0001:00021c50       ?buildMatrixFromBox@physx@@YAXAEAVMatrix34@Cm@1@AEBVBox@Gu@1@@Z 0000000180022c50 f i GuCCTSweepTests.obj
 0001:00021c90       ?ceilUp@HeightFieldTraceUtil@Gu@physx@@SAMM@Z 0000000180022c90 f i GuCCTSweepTests.obj
 0001:00021cf0       ?computePointNormal@HeightFieldUtil@Gu@physx@@QEBA?AVPxVec3@3@IAEBV43@AEBVPxTransform@3@MMMMAEAM@Z 0000000180022cf0 f i GuCCTSweepTests.obj
 0001:00021e10       ?computeWorldToBoxMatrix@physx@@YAXAEAVMatrix34@Cm@1@AEBVBox@Gu@1@@Z 0000000180022e10 f i GuCCTSweepTests.obj
 0001:00021e70       ?cullTriangle@Gu@physx@@YA_NPEIBVPxVec3@2@AEBV32@MMM@Z 0000000180022e70 f i GuCCTSweepTests.obj
 0001:00021fc0       ?denormalizedNormal@PxTriangle@physx@@QEBAXAEAVPxVec3@2@@Z 0000000180022fc0 f i GuCCTSweepTests.obj
 0001:00022070       ?distanceSegmentBoxSquared@Gu@physx@@YAMAEBVSegment@12@AEBVBox@12@PEAMPEAVPxVec3@2@@Z 0000000180023070 f i GuCCTSweepTests.obj
 0001:000220f0       ?floorDown@HeightFieldTraceUtil@Gu@physx@@SAMM@Z 00000001800230f0 f i GuCCTSweepTests.obj
 0001:00022150       ?getFeatureIndex@HeightFieldUtil@Gu@physx@@SAII@Z 0000000180023150 f i GuCCTSweepTests.obj
 0001:00022160       ?getFeatureType@HeightFieldUtil@Gu@physx@@SA?AW4Feature@123@I@Z 0000000180023160 f i GuCCTSweepTests.obj
 0001:00022170       ?getHeightAtShapePoint@HeightFieldUtil@Gu@physx@@QEBAMMM@Z 0000000180023170 f i GuCCTSweepTests.obj
 0001:000221e0       ?getHeightField@HeightFieldUtil@Gu@physx@@QEBAAEBVHeightField@23@XZ 00000001800231e0 f i GuCCTSweepTests.obj
 0001:000221f0       ?getHeightFieldGeometry@HeightFieldUtil@Gu@physx@@QEBAAEBVPxHeightFieldGeometry@3@XZ 00000001800231f0 f i GuCCTSweepTests.obj
 0001:00022200       ?getInverseRT@Matrix34@Cm@physx@@QEBA?AV123@XZ 0000000180023200 f i GuCCTSweepTests.obj
 0001:00022280       ?getNbRowsFast@HeightField@Gu@physx@@QEBAIXZ 0000000180023280 f i GuCCTSweepTests.obj
 0001:00022290       ?getNormalAtShapePoint@HeightFieldUtil@Gu@physx@@QEBA?AVPxVec3@3@MM@Z 0000000180023290 f i GuCCTSweepTests.obj
 0001:00022320       ?getNormal_2@HeightField@Gu@physx@@QEBA?AVPxVec3@3@IMMMMM@Z 0000000180023320 f i GuCCTSweepTests.obj
 0001:00022640       ?getNormal_@HeightField@Gu@physx@@QEBA?AVPxVec3@3@MMMMM@Z 0000000180023640 f i GuCCTSweepTests.obj
 0001:000226e0       ?getNormalized@PxVec3@physx@@QEBA?AV12@XZ 00000001800236e0 f i GuCCTSweepTests.obj
 0001:00022770       ?getOneOverColumnScale@HeightFieldUtil@Gu@physx@@QEBAMXZ 0000000180023770 f i GuCCTSweepTests.obj
 0001:00022780       ?getOneOverHeightScale@HeightFieldUtil@Gu@physx@@QEBAMXZ 0000000180023780 f i GuCCTSweepTests.obj
 0001:00022790       ?getOneOverRowScale@HeightFieldUtil@Gu@physx@@QEBAMXZ 0000000180023790 f i GuCCTSweepTests.obj
 0001:000227a0       ?getTriangleIndex@physx@@YAIII@Z 00000001800237a0 f i GuCCTSweepTests.obj
 0001:000227e0       ?getVertexNormal@HeightFieldUtil@Gu@physx@@QEBA?AVPxVec3@3@I@Z 00000001800237e0 f i GuCCTSweepTests.obj
 0001:00022860       ?hf2shapen@HeightFieldUtil@Gu@physx@@QEBA?AVPxVec3@3@AEBV43@@Z 0000000180023860 f i GuCCTSweepTests.obj
 0001:000228e0       ?hf2shapep@HeightFieldUtil@Gu@physx@@QEBA?AVPxVec3@3@AEBV43@@Z 00000001800238e0 f i GuCCTSweepTests.obj
 0001:00022970       ?hf2worldn@HeightFieldUtil@Gu@physx@@QEBA?AVPxVec3@3@AEBVPxTransform@3@AEBV43@@Z 0000000180023970 f i GuCCTSweepTests.obj
 0001:000229c0       ?hf2worldp@HeightFieldUtil@Gu@physx@@QEBA?AVPxVec3@3@AEBVPxTransform@3@AEBV43@@Z 00000001800239c0 f i GuCCTSweepTests.obj
 0001:00022a10       ?isCollisionVertex@HeightField@Gu@physx@@QEBA_NIIIG@Z 0000000180023a10 f i GuCCTSweepTests.obj
 0001:00022a70       ?isCollisionVertex@HeightFieldUtil@Gu@physx@@QEBA_NIII@Z 0000000180023a70 f i GuCCTSweepTests.obj
 0001:00022ab0       ?isFinite@PxTransform@physx@@QEBA_NXZ 0000000180023ab0 f i GuCCTSweepTests.obj
 0001:00022b10       ?isQueryVertex@HeightFieldUtil@Gu@physx@@QEBA_NIII@Z 0000000180023b10 f i GuCCTSweepTests.obj
 0001:00022c20       ?isShapePointOnHeightField@HeightFieldUtil@Gu@physx@@QEBA_NMM@Z 0000000180023c20 f i GuCCTSweepTests.obj
 0001:00022cf0       ?makeFeatureCode@HeightFieldUtil@Gu@physx@@SAIIW4Feature@123@@Z 0000000180023cf0 f i GuCCTSweepTests.obj
 0001:00022ec0       ?poseExtent@PxBounds3@physx@@SA?AV12@AEBVPxTransform@2@AEBVPxVec3@2@@Z 0000000180023ec0 f i GuCCTSweepTests.obj
 0001:00022f10       ?recipSqrt@intrinsics@physx@@YAMM@Z 0000000180023f10 f i GuCCTSweepTests.obj
 0001:00022f40       ?rotate@Matrix34@Cm@physx@@QEBA?AVPxVec3@3@AEBV43@@Z 0000000180023f40 f i GuCCTSweepTests.obj
 0001:00022f80       ?rotate@PxTransform@physx@@QEBA?AVPxVec3@2@AEBV32@@Z 0000000180023f80 f i GuCCTSweepTests.obj
 0001:00022ff0       ?setInitialOverlapResults@Gu@physx@@YA_NAEAUPxSweepHit@2@AEBVPxVec3@2@I@Z 0000000180023ff0 f i GuCCTSweepTests.obj
 0001:00023070       ?shape2hfp@HeightFieldUtil@Gu@physx@@QEBA?AVPxVec3@3@AEBV43@@Z 0000000180024070 f i GuCCTSweepTests.obj
 0001:000230f0       ?shouldFlipNormal@Gu@physx@@YA_NAEBVPxVec3@2@_N100@Z 00000001800240f0 f i GuCCTSweepTests.obj
 0001:000231c0       ?transform@Matrix34@Cm@physx@@QEBA?AVPxVec3@3@AEBV43@@Z 00000001800241c0 f i GuCCTSweepTests.obj
 0001:00023220       ?transform@PxTransform@physx@@QEBA?AVPxVec3@2@AEBV32@@Z 0000000180024220 f i GuCCTSweepTests.obj
 0001:00023330       ?sweep@PxGeometryQuery@physx@@SA_NAEBVPxVec3@2@MAEBVPxGeometry@2@AEBVPxTransform@2@12AEAUPxSweepHit@2@V?$PxFlags@W4Enum@PxHitFlag@physx@@G@2@M@Z 0000000180024330 f   GuGeometryQuery.obj
 0001:00023ce0       ?overlap@PxGeometryQuery@physx@@SA_NAEBVPxGeometry@2@AEBVPxTransform@2@01@Z 0000000180024ce0 f   GuGeometryQuery.obj
 0001:00023d50       ?raycast@PxGeometryQuery@physx@@SAIAEBVPxVec3@2@0AEBVPxGeometry@2@AEBVPxTransform@2@MV?$PxFlags@W4Enum@PxHitFlag@physx@@G@2@IPEIAUPxRaycastHit@2@@Z 0000000180024d50 f   GuGeometryQuery.obj
 0001:000240f0       ?computePenetration@PxGeometryQuery@physx@@SA_NAEAVPxVec3@2@AEAMAEBVPxGeometry@2@AEBVPxTransform@2@23@Z 00000001800250f0 f   GuGeometryQuery.obj
 0001:00024450       ?pointDistance@PxGeometryQuery@physx@@SAMAEBVPxVec3@2@AEBVPxGeometry@2@AEBVPxTransform@2@PEAV32@@Z 0000000180025450 f   GuGeometryQuery.obj
 0001:00024a40       ?getWorldBounds@PxGeometryQuery@physx@@SA?AVPxBounds3@2@AEBVPxGeometry@2@AEBVPxTransform@2@M@Z 0000000180025a40 f   GuGeometryQuery.obj
 0001:00024ba0       ?isValid@PxGeometryQuery@physx@@SA_NAEBVPxGeometry@2@@Z 0000000180025ba0 f   GuGeometryQuery.obj
 0001:00024d10       ??$PxMax@M@physx@@YAMMM@Z  0000000180025d10 f i GuGeometryQuery.obj
 0001:00024d40       ??0Capsule@Gu@physx@@QEAA@AEBVPxVec3@2@0M@Z 0000000180025d40 f i GuGeometryQuery.obj
 0001:00024d90       ??0PxBounds3@physx@@QEAA@$$QEAV01@@Z 0000000180025d90 f i GuGeometryQuery.obj
 0001:00024de0       ??0PxCapsuleGeometry@physx@@QEAA@MM@Z 0000000180025de0 f i GuGeometryQuery.obj
 0001:00024e30       ??0PxGeometry@physx@@IEAA@W4Enum@PxGeometryType@1@@Z 0000000180025e30 f i GuGeometryQuery.obj
 0001:00024e50       ??0SIMDGuard@shdfnd@physx@@QEAA@XZ 0000000180025e50 f i GuGeometryQuery.obj
 0001:00024e80       ??0Segment@Gu@physx@@QEAA@AEBVPxVec3@2@0@Z 0000000180025e80 f i GuGeometryQuery.obj
 0001:00024ed0       ??1SIMDGuard@shdfnd@physx@@QEAA@XZ 0000000180025ed0 f i GuGeometryQuery.obj
 0001:00024ef0       ?distancePointBoxSquared@Gu@physx@@YAMAEBVPxVec3@2@AEBVBox@12@PEAV32@@Z 0000000180025ef0 f i GuGeometryQuery.obj
 0001:00024f40       ?distancePointSegmentSquared@Gu@physx@@YAMAEBVPxVec3@2@00PEAM@Z 0000000180025f40 f i GuGeometryQuery.obj
 0001:00024f90       ?distancePointSegmentSquared@Gu@physx@@YAMAEBVSegment@12@AEBVPxVec3@2@PEAM@Z 0000000180025f90 f i GuGeometryQuery.obj
 0001:00024fd0       ?distancePointSegmentSquaredInternal@Gu@physx@@YAMAEBVPxVec3@2@00PEAM@Z 0000000180025fd0 f i GuGeometryQuery.obj
 0001:000250d0       ?empty@PxBounds3@physx@@SA?AV12@XZ 00000001800260d0 f i GuGeometryQuery.obj
 0001:00025130       ?getPointAt@Segment@Gu@physx@@QEBA?AVPxVec3@3@M@Z 0000000180026130 f i GuGeometryQuery.obj
 0001:000251b0       ?isValid@PxBoxGeometry@physx@@QEBA_NXZ 00000001800261b0 f i GuGeometryQuery.obj
 0001:00025220       ?isValid@PxCapsuleGeometry@physx@@QEBA_NXZ 0000000180026220 f i GuGeometryQuery.obj
 0001:00025290       ?isValid@PxConvexMeshGeometry@physx@@QEBA_NXZ 0000000180026290 f i GuGeometryQuery.obj
 0001:00025310       ?isValid@PxSphereGeometry@physx@@QEBA_NXZ 0000000180026310 f i GuGeometryQuery.obj
 0001:00025360       ?isValid@PxTransform@physx@@QEBA_NXZ 0000000180026360 f i GuGeometryQuery.obj
 0001:000253d0       ?isValidForConvexMesh@PxMeshScale@physx@@QEBA_NXZ 00000001800263d0 f i GuGeometryQuery.obj
 0001:00025430       ?maxElement@PxVec3@physx@@QEBAMXZ 0000000180026430 f i GuGeometryQuery.obj
 0001:00025470       ?minElement@PxVec3@physx@@QEBAMXZ 0000000180026470 f i GuGeometryQuery.obj
 0001:000254b0       ?overlap@Gu@physx@@YA_NAEBVPxGeometry@2@AEBVPxTransform@2@01PEIAY06Q6A_N0101PEAUTriggerCache@12@@Z@Z 00000001800264b0 f i GuGeometryQuery.obj
 0001:00025740       ?selectMax@intrinsics@physx@@YAMMM@Z 0000000180026740 f i GuGeometryQuery.obj
 0001:00025780       ?set@GeometryUnion@Gu@physx@@QEAAXAEBVPxGeometry@3@@Z 0000000180026780 f   GuGeometryUnion.obj
 0001:00025b50       ??$PX_UNUSED@VGeometryUnion@Gu@physx@@@@YAXAEBVGeometryUnion@Gu@physx@@@Z 0000000180026b50 f i GuGeometryUnion.obj
 0001:00025b60       ??$checkType@UPxConvexMeshGeometryLL@physx@@@physx@@YAXAEBVGeometryUnion@Gu@0@@Z 0000000180026b60 f i GuGeometryUnion.obj
 0001:00025bd0       ??$checkType@UPxHeightFieldGeometryLL@physx@@@physx@@YAXAEBVGeometryUnion@Gu@0@@Z 0000000180026bd0 f i GuGeometryUnion.obj
 0001:00025c40       ??$checkType@UPxTriangleMeshGeometryLL@physx@@@physx@@YAXAEBVGeometryUnion@Gu@0@@Z 0000000180026c40 f i GuGeometryUnion.obj
 0001:00025cb0       ??$get@UPxConvexMeshGeometryLL@physx@@@GeometryUnion@Gu@physx@@QEAAAEAUPxConvexMeshGeometryLL@2@XZ 0000000180026cb0 f i GuGeometryUnion.obj
 0001:00025cd0       ??$get@UPxHeightFieldGeometryLL@physx@@@GeometryUnion@Gu@physx@@QEAAAEAUPxHeightFieldGeometryLL@2@XZ 0000000180026cd0 f i GuGeometryUnion.obj
 0001:00025cf0       ??$get@UPxTriangleMeshGeometryLL@physx@@@GeometryUnion@Gu@physx@@QEAAAEAUPxTriangleMeshGeometryLL@2@XZ 0000000180026cf0 f i GuGeometryUnion.obj
 0001:00025d10       ??0GeometryUnion@Gu@physx@@QEAA@AEBVPxGeometry@2@@Z 0000000180026d10 f i GuGeometryUnion.obj
 0001:00025d40       ??0GeometryUnion@Gu@physx@@QEAA@W4PxEMPTY@2@@Z 0000000180026d40 f i GuGeometryUnion.obj
 0001:00025d50       ??0GeometryUnion@Gu@physx@@QEAA@XZ 0000000180026d50 f i GuGeometryUnion.obj
 0001:00025d80       ??0InvalidGeometry@Gu@physx@@QEAA@XZ 0000000180026d80 f i GuGeometryUnion.obj
 0001:00025db0       ??0MaterialIndicesStruct@physx@@QEAA@W4PxEMPTY@1@@Z 0000000180026db0 f i GuGeometryUnion.obj
 0001:00025dc0       ??0MaterialIndicesStruct@physx@@QEAA@XZ 0000000180026dc0 f i GuGeometryUnion.obj
 0001:00025e00       ??1MaterialIndicesStruct@physx@@QEAA@XZ 0000000180026e00 f i GuGeometryUnion.obj
 0001:00025e10       ??4?$PxFlags@W4Enum@PxConvexMeshGeometryFlag@physx@@E@physx@@QEAAAEAV01@AEBV01@@Z 0000000180026e10 f i GuGeometryUnion.obj
 0001:00025e30       ??4?$PxFlags@W4Enum@PxMeshGeometryFlag@physx@@E@physx@@QEAAAEAV01@AEBV01@@Z 0000000180026e30 f i GuGeometryUnion.obj
 0001:00025e50       ??4GeometryUnion@Gu@physx@@QEAAAEAV012@$$QEAV012@@Z 0000000180026e50 f i GuGeometryUnion.obj
 0001:00025e80       ??4GeometryUnion@Gu@physx@@QEAAAEAV012@AEBV012@@Z 0000000180026e80 f i GuGeometryUnion.obj
 0001:00025eb0       ??4MaterialIndicesStruct@physx@@QEAAAEAU01@AEBU01@@Z 0000000180026eb0 f i GuGeometryUnion.obj
 0001:00025ee0       ??4PxBoxGeometry@physx@@QEAAAEAV01@AEBV01@@Z 0000000180026ee0 f i GuGeometryUnion.obj
 0001:00025f20       ??4PxConvexMeshGeometry@physx@@QEAAAEAV01@AEBV01@@Z 0000000180026f20 f i GuGeometryUnion.obj
 0001:00025fb0       ??4PxHeightFieldGeometry@physx@@QEAAAEAV01@AEBV01@@Z 0000000180026fb0 f i GuGeometryUnion.obj
 0001:00026060       ??4PxMeshScale@physx@@QEAAAEAV01@AEBV01@@Z 0000000180027060 f i GuGeometryUnion.obj
 0001:000260b0       ??4PxTriangleMeshGeometry@physx@@QEAAAEAV01@AEBV01@@Z 00000001800270b0 f i GuGeometryUnion.obj
 0001:00026140       ?allocate@MaterialIndicesStruct@physx@@QEAAXG@Z 0000000180027140 f i GuGeometryUnion.obj
 0001:000261c0       ?deallocate@MaterialIndicesStruct@physx@@QEAAXXZ 00000001800271c0 f i GuGeometryUnion.obj
 0001:00026200       ?getGeometry@GeometryUnion@Gu@physx@@QEBAAEBVPxGeometry@3@XZ 0000000180027200 f i GuGeometryUnion.obj
 0001:00026210       ?getHull@ConvexMesh@Gu@physx@@QEAAAEAUConvexHullData@23@XZ 0000000180027210 f i GuGeometryUnion.obj
 0001:00026220       ?getMaterials@TriangleMesh@Gu@physx@@QEBAPEBGXZ 0000000180027220 f i GuGeometryUnion.obj
 0001:00026230       ?getType@GeometryUnion@Gu@physx@@QEBA?AW4Enum@PxGeometryType@3@XZ 0000000180027230 f i GuGeometryUnion.obj
 0001:000262d0       ?computeBoxPoints@Gu@physx@@YAXAEBVPxBounds3@2@PEIAVPxVec3@2@@Z 00000001800272d0 f   GuInternal.obj
 0001:000265a0       ?computeBoundsAroundVertices@Gu@physx@@YAXAEAVPxBounds3@2@IPEIBVPxVec3@2@@Z 00000001800275a0 f   GuInternal.obj
 0001:000267c0       ?getPlane@Gu@physx@@YA?AVPxPlane@2@AEBVPxTransform@2@@Z 00000001800277c0 f   GuInternal.obj
 0001:00026820       ?computeSweptBox@Gu@physx@@YAXAEAVBox@12@AEBVPxVec3@2@1AEBVPxMat33@2@1M@Z 0000000180027820 f   GuInternal.obj
 0001:00026c70       ??$swap@I@shdfnd@physx@@YAXAEAI0@Z 0000000180027c70 f i GuInternal.obj
 0001:00026cb0       ??0PxPlane@physx@@QEAA@AEBVPxVec3@1@M@Z 0000000180027cb0 f i GuInternal.obj
 0001:00026cf0       ??APxMat33@physx@@QEAAAEAVPxVec3@1@I@Z 0000000180027cf0 f i GuInternal.obj
 0001:00026d10       ?setEmpty@PxBounds3@physx@@QEAAXXZ 0000000180027d10 f i GuInternal.obj
 0001:00026d60       ??0GuMeshFactory@physx@@QEAA@XZ 0000000180027d60 f   GuMeshFactory.obj
 0001:00026e80       ??1GuMeshFactory@physx@@MEAA@XZ 0000000180027e80 f   GuMeshFactory.obj
 0001:00026f10       ?release@GuMeshFactory@physx@@QEAAXXZ 0000000180027f10 f   GuMeshFactory.obj
 0001:00026fb0       ?addTriangleMesh@GuMeshFactory@physx@@QEAAXPEAVTriangleMesh@Gu@2@_N@Z 0000000180027fb0 f   GuMeshFactory.obj
 0001:00027010       ?createTriangleMesh@GuMeshFactory@physx@@QEAAPEAVPxTriangleMesh@2@AEAVPxInputStream@2@@Z 0000000180028010 f   GuMeshFactory.obj
 0001:000270a0       ?createTriangleMesh@GuMeshFactory@physx@@QEAAPEAVPxTriangleMesh@2@PEAX@Z 00000001800280a0 f   GuMeshFactory.obj
 0001:000270d0       ?removeTriangleMesh@GuMeshFactory@physx@@QEAA_NAEAVPxTriangleMesh@2@@Z 00000001800280d0 f   GuMeshFactory.obj
 0001:00027140       ?getNbTriangleMeshes@GuMeshFactory@physx@@QEBAIXZ 0000000180028140 f   GuMeshFactory.obj
 0001:00027190       ?getTriangleMeshes@GuMeshFactory@physx@@QEBAIPEAPEAVPxTriangleMesh@2@II@Z 0000000180028190 f   GuMeshFactory.obj
 0001:00027220       ?addConvexMesh@GuMeshFactory@physx@@QEAAXPEAVConvexMesh@Gu@2@_N@Z 0000000180028220 f   GuMeshFactory.obj
 0001:00027280       ?createConvexMesh@GuMeshFactory@physx@@QEAAPEAVPxConvexMesh@2@AEAVPxInputStream@2@@Z 0000000180028280 f   GuMeshFactory.obj
 0001:00027370       ?createConvexMesh@GuMeshFactory@physx@@QEAAPEAVPxConvexMesh@2@PEAX@Z 0000000180028370 f   GuMeshFactory.obj
 0001:000273a0       ?removeConvexMesh@GuMeshFactory@physx@@QEAA_NAEAVPxConvexMesh@2@@Z 00000001800283a0 f   GuMeshFactory.obj
 0001:00027410       ?getNbConvexMeshes@GuMeshFactory@physx@@QEBAIXZ 0000000180028410 f   GuMeshFactory.obj
 0001:00027460       ?getConvexMeshes@GuMeshFactory@physx@@QEBAIPEAPEAVPxConvexMesh@2@II@Z 0000000180028460 f   GuMeshFactory.obj
 0001:000274f0       ?addHeightField@GuMeshFactory@physx@@QEAAXPEAVHeightField@Gu@2@_N@Z 00000001800284f0 f   GuMeshFactory.obj
 0001:00027550       ?createHeightField@GuMeshFactory@physx@@QEAAPEAVPxHeightField@2@PEAX@Z 0000000180028550 f   GuMeshFactory.obj
 0001:00027610       ?createHeightField@GuMeshFactory@physx@@QEAAPEAVPxHeightField@2@AEAVPxInputStream@2@@Z 0000000180028610 f   GuMeshFactory.obj
 0001:00027700       ?removeHeightField@GuMeshFactory@physx@@QEAA_NAEAVPxHeightField@2@@Z 0000000180028700 f   GuMeshFactory.obj
 0001:00027770       ?getNbHeightFields@GuMeshFactory@physx@@QEBAIXZ 0000000180028770 f   GuMeshFactory.obj
 0001:000277c0       ?getHeightFields@GuMeshFactory@physx@@QEBAIPEAPEAVPxHeightField@2@II@Z 00000001800287c0 f   GuMeshFactory.obj
 0001:00027860       ?addBVHStructure@GuMeshFactory@physx@@QEAAXPEAVBVHStructure@Gu@2@_N@Z 0000000180028860 f   GuMeshFactory.obj
 0001:000278c0       ?createBVHStructure@GuMeshFactory@physx@@QEAAPEAVPxBVHStructure@2@AEAVPxInputStream@2@@Z 00000001800288c0 f   GuMeshFactory.obj
 0001:000279b0       ?createBVHStructure@GuMeshFactory@physx@@QEAAPEAVPxBVHStructure@2@PEAX@Z 00000001800289b0 f   GuMeshFactory.obj
 0001:000279e0       ?removeBVHStructure@GuMeshFactory@physx@@QEAA_NAEAVPxBVHStructure@2@@Z 00000001800289e0 f   GuMeshFactory.obj
 0001:00027a50       ?getNbBVHStructures@GuMeshFactory@physx@@QEBAIXZ 0000000180028a50 f   GuMeshFactory.obj
 0001:00027aa0       ?getBVHStructures@GuMeshFactory@physx@@QEBAIPEAPEAVPxBVHStructure@2@II@Z 0000000180028aa0 f   GuMeshFactory.obj
 0001:00027b40       ?addFactoryListener@GuMeshFactory@physx@@QEAAXAEAVGuMeshFactoryListener@2@@Z 0000000180028b40 f   GuMeshFactory.obj
 0001:00027ba0       ?removeFactoryListener@GuMeshFactory@physx@@QEAAXAEAVGuMeshFactoryListener@2@@Z 0000000180028ba0 f   GuMeshFactory.obj
 0001:00027c50       ?notifyFactoryListener@GuMeshFactory@physx@@QEAAXPEBVPxBase@2@G@Z 0000000180028c50 f   GuMeshFactory.obj
 0001:00027ce0       ?createTriangleMesh@GuMeshFactory@physx@@IEAAPEAVPxTriangleMesh@2@AEAVTriangleMeshData@Gu@2@@Z 0000000180028ce0 f   GuMeshFactory.obj
 0001:00027e50       ?createConvexMesh@GuMeshFactory@physx@@IEAAPEAVPxConvexMesh@2@AEAUConvexHullInitData@Gu@2@@Z 0000000180028e50 f   GuMeshFactory.obj
 0001:00027f10       ?createBVHStructure@GuMeshFactory@physx@@IEAAPEAVPxBVHStructure@2@AEAUBVHStructureData@Gu@2@@Z 0000000180028f10 f   GuMeshFactory.obj
 0001:00029a40       ??$?2V?$ReflectionAllocator@VBV32Tree@Gu@physx@@@shdfnd@physx@@@UserAllocated@shdfnd@physx@@SAPEAX_KV?$ReflectionAllocator@VBV32Tree@Gu@physx@@@12@PEBDH@Z 000000018002aa40 f i GuMeshFactory.obj
 0001:00029a80       ??$?2V?$ReflectionAllocator@VBV4TriangleData@Gu@physx@@@shdfnd@physx@@@UserAllocated@shdfnd@physx@@SAPEAX_KV?$ReflectionAllocator@VBV4TriangleData@Gu@physx@@@12@PEBDH@Z 000000018002aa80 f i GuMeshFactory.obj
 0001:00029ac0       ??$?2V?$ReflectionAllocator@VRTreeTriangleData@Gu@physx@@@shdfnd@physx@@@UserAllocated@shdfnd@physx@@SAPEAX_KV?$ReflectionAllocator@VRTreeTriangleData@Gu@physx@@@12@PEBDH@Z 000000018002aac0 f i GuMeshFactory.obj
 0001:00029b00       ??$?_UE@@YAPEAX_KV?$ReflectionAllocator@E@shdfnd@physx@@PEBDH@Z 000000018002ab00 f i GuMeshFactory.obj
 0001:00029b40       ??$?_UG@@YAPEAX_KV?$ReflectionAllocator@G@shdfnd@physx@@PEBDH@Z 000000018002ab40 f i GuMeshFactory.obj
 0001:00029b80       ??$?_UI@@YAPEAX_KV?$ReflectionAllocator@I@shdfnd@physx@@PEBDH@Z 000000018002ab80 f i GuMeshFactory.obj
 0001:00029bc0       ??$PxMax@H@physx@@YAHHH@Z  000000018002abc0 f i GuMeshFactory.obj
 0001:00029bf0       ??$PxMin@I@physx@@YAIII@Z  000000018002abf0 f i GuMeshFactory.obj
 0001:00029c20       ??$getArrayOfPointers@VPxBVHStructure@physx@@VBVHStructure@Gu@2@@Cm@physx@@YAIPEIAPEAVPxBVHStructure@1@IIPEIBQEAVBVHStructure@Gu@1@I@Z 000000018002ac20 f i GuMeshFactory.obj
 0001:00029cc0       ??$getArrayOfPointers@VPxConvexMesh@physx@@VConvexMesh@Gu@2@@Cm@physx@@YAIPEIAPEAVPxConvexMesh@1@IIPEIBQEAVConvexMesh@Gu@1@I@Z 000000018002acc0 f i GuMeshFactory.obj
 0001:00029d60       ??$getArrayOfPointers@VPxHeightField@physx@@VHeightField@Gu@2@@Cm@physx@@YAIPEIAPEAVPxHeightField@1@IIPEIBQEAVHeightField@Gu@1@I@Z 000000018002ad60 f i GuMeshFactory.obj
 0001:00029e00       ??$getArrayOfPointers@VPxTriangleMesh@physx@@VTriangleMesh@Gu@2@@Cm@physx@@YAIPEIAPEAVPxTriangleMesh@1@IIPEIBQEAVTriangleMesh@Gu@1@I@Z 000000018002ae00 f i GuMeshFactory.obj
 0001:00029ea0       ??0?$AlignedAllocator@$0IA@VNonTrackingAllocator@shdfnd@physx@@@shdfnd@physx@@QEAA@AEBVNonTrackingAllocator@12@@Z 000000018002aea0 f i GuMeshFactory.obj
 0001:00029eb0       ??0?$Array@PEAVGuMeshFactoryListener@physx@@VNamedAllocator@shdfnd@2@@shdfnd@physx@@QEAA@AEBVNamedAllocator@12@@Z 000000018002aeb0 f i GuMeshFactory.obj
 0001:00029f00       ??0?$CoalescedHashSet@PEAVBVHStructure@Gu@physx@@U?$Hash@PEAVBVHStructure@Gu@physx@@@shdfnd@3@VNonTrackingAllocator@53@@shdfnd@physx@@QEAA@AEBVNonTrackingAllocator@12@@Z 000000018002af00 f i GuMeshFactory.obj
 0001:00029f40       ??0?$CoalescedHashSet@PEAVConvexMesh@Gu@physx@@U?$Hash@PEAVConvexMesh@Gu@physx@@@shdfnd@3@VNonTrackingAllocator@53@@shdfnd@physx@@QEAA@AEBVNonTrackingAllocator@12@@Z 000000018002af40 f i GuMeshFactory.obj
 0001:00029f80       ??0?$CoalescedHashSet@PEAVHeightField@Gu@physx@@U?$Hash@PEAVHeightField@Gu@physx@@@shdfnd@3@VNonTrackingAllocator@53@@shdfnd@physx@@QEAA@AEBVNonTrackingAllocator@12@@Z 000000018002af80 f i GuMeshFactory.obj
 0001:00029fc0       ??0?$CoalescedHashSet@PEAVTriangleMesh@Gu@physx@@U?$Hash@PEAVTriangleMesh@Gu@physx@@@shdfnd@3@VNonTrackingAllocator@53@@shdfnd@physx@@QEAA@AEBVNonTrackingAllocator@12@@Z 000000018002afc0 f i GuMeshFactory.obj
 0001:0002a000       ??0?$HashBase@PEAVBVHStructure@Gu@physx@@PEAV123@U?$Hash@PEAVBVHStructure@Gu@physx@@@shdfnd@3@UGetKey@?$HashSetBase@PEAVBVHStructure@Gu@physx@@U?$Hash@PEAVBVHStructure@Gu@physx@@@shdfnd@3@VNonTrackingAllocator@53@$00@internal@53@VNonTrackingAllocator@53@$00@internal@shdfnd@physx@@QEAA@IMAEBVNonTrackingAllocator@23@@Z 000000018002b000 f i GuMeshFactory.obj
 0001:0002a040       ??0?$HashBase@PEAVConvexMesh@Gu@physx@@PEAV123@U?$Hash@PEAVConvexMesh@Gu@physx@@@shdfnd@3@UGetKey@?$HashSetBase@PEAVConvexMesh@Gu@physx@@U?$Hash@PEAVConvexMesh@Gu@physx@@@shdfnd@3@VNonTrackingAllocator@53@$00@internal@53@VNonTrackingAllocator@53@$00@internal@shdfnd@physx@@QEAA@IMAEBVNonTrackingAllocator@23@@Z 000000018002b040 f i GuMeshFactory.obj
 0001:0002a080       ??0?$HashBase@PEAVHeightField@Gu@physx@@PEAV123@U?$Hash@PEAVHeightField@Gu@physx@@@shdfnd@3@UGetKey@?$HashSetBase@PEAVHeightField@Gu@physx@@U?$Hash@PEAVHeightField@Gu@physx@@@shdfnd@3@VNonTrackingAllocator@53@$00@internal@53@VNonTrackingAllocator@53@$00@internal@shdfnd@physx@@QEAA@IMAEBVNonTrackingAllocator@23@@Z 000000018002b080 f i GuMeshFactory.obj
 0001:0002a0c0       ??0?$HashBase@PEAVTriangleMesh@Gu@physx@@PEAV123@U?$Hash@PEAVTriangleMesh@Gu@physx@@@shdfnd@3@UGetKey@?$HashSetBase@PEAVTriangleMesh@Gu@physx@@U?$Hash@PEAVTriangleMesh@Gu@physx@@@shdfnd@3@VNonTrackingAllocator@53@$00@internal@53@VNonTrackingAllocator@53@$00@internal@shdfnd@physx@@QEAA@IMAEBVNonTrackingAllocator@23@@Z 000000018002b0c0 f i GuMeshFactory.obj
 0001:0002a100       ??0?$HashSetBase@PEAVBVHStructure@Gu@physx@@U?$Hash@PEAVBVHStructure@Gu@physx@@@shdfnd@3@VNonTrackingAllocator@53@$00@internal@shdfnd@physx@@QEAA@IMAEBVNonTrackingAllocator@23@@Z 000000018002b100 f i GuMeshFactory.obj
 0001:0002a140       ??0?$HashSetBase@PEAVConvexMesh@Gu@physx@@U?$Hash@PEAVConvexMesh@Gu@physx@@@shdfnd@3@VNonTrackingAllocator@53@$00@internal@shdfnd@physx@@QEAA@IMAEBVNonTrackingAllocator@23@@Z 000000018002b140 f i GuMeshFactory.obj
 0001:0002a180       ??0?$HashSetBase@PEAVHeightField@Gu@physx@@U?$Hash@PEAVHeightField@Gu@physx@@@shdfnd@3@VNonTrackingAllocator@53@$00@internal@shdfnd@physx@@QEAA@IMAEBVNonTrackingAllocator@23@@Z 000000018002b180 f i GuMeshFactory.obj
 0001:0002a1c0       ??0?$HashSetBase@PEAVTriangleMesh@Gu@physx@@U?$Hash@PEAVTriangleMesh@Gu@physx@@@shdfnd@3@VNonTrackingAllocator@53@$00@internal@shdfnd@physx@@QEAA@IMAEBVNonTrackingAllocator@23@@Z 000000018002b1c0 f i GuMeshFactory.obj
 0001:0002a200       ??0?$MutexT@V?$ReflectionAllocator@VMutexImpl@shdfnd@physx@@@shdfnd@physx@@@shdfnd@physx@@QEAA@AEBV?$ReflectionAllocator@VMutexImpl@shdfnd@physx@@@12@@Z 000000018002b200 f i GuMeshFactory.obj
 0001:0002a280       ??0?$ReflectionAllocator@E@shdfnd@physx@@QEAA@PEBD@Z 000000018002b280 f i GuMeshFactory.obj
 0001:0002a290       ??0?$ReflectionAllocator@G@shdfnd@physx@@QEAA@PEBD@Z 000000018002b290 f i GuMeshFactory.obj
 0001:0002a2a0       ??0?$ReflectionAllocator@I@shdfnd@physx@@QEAA@PEBD@Z 000000018002b2a0 f i GuMeshFactory.obj
 0001:0002a2b0       ??0?$ReflectionAllocator@VBV32Tree@Gu@physx@@@shdfnd@physx@@QEAA@PEBD@Z 000000018002b2b0 f i GuMeshFactory.obj
 0001:0002a2c0       ??0?$ReflectionAllocator@VBV4TriangleData@Gu@physx@@@shdfnd@physx@@QEAA@PEBD@Z 000000018002b2c0 f i GuMeshFactory.obj
 0001:0002a2d0       ??0?$ReflectionAllocator@VBV4TriangleMesh@Gu@physx@@@shdfnd@physx@@QEAA@PEBD@Z 000000018002b2d0 f i GuMeshFactory.obj
 0001:0002a2e0       ??0?$ReflectionAllocator@VBVHStructure@Gu@physx@@@shdfnd@physx@@QEAA@PEBD@Z 000000018002b2e0 f i GuMeshFactory.obj
 0001:0002a2f0       ??0?$ReflectionAllocator@VConvexMesh@Gu@physx@@@shdfnd@physx@@QEAA@PEBD@Z 000000018002b2f0 f i GuMeshFactory.obj
 0001:0002a300       ??0?$ReflectionAllocator@VHeightField@Gu@physx@@@shdfnd@physx@@QEAA@PEBD@Z 000000018002b300 f i GuMeshFactory.obj
 0001:0002a310       ??0?$ReflectionAllocator@VMutexImpl@shdfnd@physx@@@shdfnd@physx@@QEAA@AEBV012@@Z 000000018002b310 f i GuMeshFactory.obj
 0001:0002a320       ??0?$ReflectionAllocator@VMutexImpl@shdfnd@physx@@@shdfnd@physx@@QEAA@PEBD@Z 000000018002b320 f i GuMeshFactory.obj
 0001:0002a330       ??0?$ReflectionAllocator@VRTreeTriangleData@Gu@physx@@@shdfnd@physx@@QEAA@PEBD@Z 000000018002b330 f i GuMeshFactory.obj
 0001:0002a340       ??0?$ReflectionAllocator@VRTreeTriangleMesh@Gu@physx@@@shdfnd@physx@@QEAA@PEBD@Z 000000018002b340 f i GuMeshFactory.obj
 0001:0002a350       ??0BV4TriangleData@Gu@physx@@QEAA@XZ 000000018002b350 f i GuMeshFactory.obj
 0001:0002a3b0       ??0MeshDataBase@Gu@physx@@QEAA@XZ 000000018002b3b0 f i GuMeshFactory.obj
 0001:0002a460       ??0RTree@Gu@physx@@QEAA@XZ 000000018002b460 f i GuMeshFactory.obj
 0001:0002a4f0       ??0RTreeTriangleData@Gu@physx@@QEAA@XZ 000000018002b4f0 f i GuMeshFactory.obj
 0001:0002a540       ??0ScopedLock@?$MutexT@V?$ReflectionAllocator@VMutexImpl@shdfnd@physx@@@shdfnd@physx@@@shdfnd@physx@@QEAA@AEAV123@@Z 000000018002b540 f i GuMeshFactory.obj
 0001:0002a580       ??0TriangleMeshData@Gu@physx@@QEAA@XZ 000000018002b580 f i GuMeshFactory.obj
 0001:0002a600       ??1?$Array@PEAVGuMeshFactoryListener@physx@@VNamedAllocator@shdfnd@2@@shdfnd@physx@@QEAA@XZ 000000018002b600 f i GuMeshFactory.obj
 0001:0002a670       ??1?$CoalescedHashSet@PEAVBVHStructure@Gu@physx@@U?$Hash@PEAVBVHStructure@Gu@physx@@@shdfnd@3@VNonTrackingAllocator@53@@shdfnd@physx@@QEAA@XZ 000000018002b670 f i GuMeshFactory.obj
 0001:0002a690       ??1?$CoalescedHashSet@PEAVConvexMesh@Gu@physx@@U?$Hash@PEAVConvexMesh@Gu@physx@@@shdfnd@3@VNonTrackingAllocator@53@@shdfnd@physx@@QEAA@XZ 000000018002b690 f i GuMeshFactory.obj
 0001:0002a6b0       ??1?$CoalescedHashSet@PEAVHeightField@Gu@physx@@U?$Hash@PEAVHeightField@Gu@physx@@@shdfnd@3@VNonTrackingAllocator@53@@shdfnd@physx@@QEAA@XZ 000000018002b6b0 f i GuMeshFactory.obj
 0001:0002a6d0       ??1?$CoalescedHashSet@PEAVTriangleMesh@Gu@physx@@U?$Hash@PEAVTriangleMesh@Gu@physx@@@shdfnd@3@VNonTrackingAllocator@53@@shdfnd@physx@@QEAA@XZ 000000018002b6d0 f i GuMeshFactory.obj
 0001:0002a6f0       ??1?$HashBase@PEAVBVHStructure@Gu@physx@@PEAV123@U?$Hash@PEAVBVHStructure@Gu@physx@@@shdfnd@3@UGetKey@?$HashSetBase@PEAVBVHStructure@Gu@physx@@U?$Hash@PEAVBVHStructure@Gu@physx@@@shdfnd@3@VNonTrackingAllocator@53@$00@internal@53@VNonTrackingAllocator@53@$00@internal@shdfnd@physx@@QEAA@XZ 000000018002b6f0 f i GuMeshFactory.obj
 0001:0002a730       ??1?$HashBase@PEAVConvexMesh@Gu@physx@@PEAV123@U?$Hash@PEAVConvexMesh@Gu@physx@@@shdfnd@3@UGetKey@?$HashSetBase@PEAVConvexMesh@Gu@physx@@U?$Hash@PEAVConvexMesh@Gu@physx@@@shdfnd@3@VNonTrackingAllocator@53@$00@internal@53@VNonTrackingAllocator@53@$00@internal@shdfnd@physx@@QEAA@XZ 000000018002b730 f i GuMeshFactory.obj
 0001:0002a770       ??1?$HashBase@PEAVHeightField@Gu@physx@@PEAV123@U?$Hash@PEAVHeightField@Gu@physx@@@shdfnd@3@UGetKey@?$HashSetBase@PEAVHeightField@Gu@physx@@U?$Hash@PEAVHeightField@Gu@physx@@@shdfnd@3@VNonTrackingAllocator@53@$00@internal@53@VNonTrackingAllocator@53@$00@internal@shdfnd@physx@@QEAA@XZ 000000018002b770 f i GuMeshFactory.obj
 0001:0002a7b0       ??1?$HashBase@PEAVTriangleMesh@Gu@physx@@PEAV123@U?$Hash@PEAVTriangleMesh@Gu@physx@@@shdfnd@3@UGetKey@?$HashSetBase@PEAVTriangleMesh@Gu@physx@@U?$Hash@PEAVTriangleMesh@Gu@physx@@@shdfnd@3@VNonTrackingAllocator@53@$00@internal@53@VNonTrackingAllocator@53@$00@internal@shdfnd@physx@@QEAA@XZ 000000018002b7b0 f i GuMeshFactory.obj
 0001:0002a7f0       ??1?$HashSetBase@PEAVBVHStructure@Gu@physx@@U?$Hash@PEAVBVHStructure@Gu@physx@@@shdfnd@3@VNonTrackingAllocator@53@$00@internal@shdfnd@physx@@QEAA@XZ 000000018002b7f0 f i GuMeshFactory.obj
 0001:0002a810       ??1?$HashSetBase@PEAVConvexMesh@Gu@physx@@U?$Hash@PEAVConvexMesh@Gu@physx@@@shdfnd@3@VNonTrackingAllocator@53@$00@internal@shdfnd@physx@@QEAA@XZ 000000018002b810 f i GuMeshFactory.obj
 0001:0002a830       ??1?$HashSetBase@PEAVHeightField@Gu@physx@@U?$Hash@PEAVHeightField@Gu@physx@@@shdfnd@3@VNonTrackingAllocator@53@$00@internal@shdfnd@physx@@QEAA@XZ 000000018002b830 f i GuMeshFactory.obj
 0001:0002a850       ??1?$HashSetBase@PEAVTriangleMesh@Gu@physx@@U?$Hash@PEAVTriangleMesh@Gu@physx@@@shdfnd@3@VNonTrackingAllocator@53@$00@internal@shdfnd@physx@@QEAA@XZ 000000018002b850 f i GuMeshFactory.obj
 0001:0002a870       ??1?$MutexT@V?$ReflectionAllocator@VMutexImpl@shdfnd@physx@@@shdfnd@physx@@@shdfnd@physx@@QEAA@XZ 000000018002b870 f i GuMeshFactory.obj
 0001:0002a8a0       ??1BV4TriangleData@Gu@physx@@UEAA@XZ 000000018002b8a0 f i GuMeshFactory.obj
 0001:0002a8f0       ??1MeshDataBase@Gu@physx@@UEAA@XZ 000000018002b8f0 f i GuMeshFactory.obj
 0001:0002aa40       ??1RTree@Gu@physx@@QEAA@XZ 000000018002ba40 f i GuMeshFactory.obj
 0001:0002aa60       ??1RTreeTriangleData@Gu@physx@@UEAA@XZ 000000018002ba60 f i GuMeshFactory.obj
 0001:0002aaa0       ??1ScopedLock@?$MutexT@V?$ReflectionAllocator@VMutexImpl@shdfnd@physx@@@shdfnd@physx@@@shdfnd@physx@@QEAA@XZ 000000018002baa0 f i GuMeshFactory.obj
 0001:0002aac0       ??1TriangleMeshData@Gu@physx@@UEAA@XZ 000000018002bac0 f i GuMeshFactory.obj
 0001:0002abf0       ??2UserAllocated@shdfnd@physx@@SAPEAX_KPEAX@Z 000000018002bbf0 f i GuMeshFactory.obj
 0001:0002ac00       ??A?$Array@PEAVGuMeshFactoryListener@physx@@VNamedAllocator@shdfnd@2@@shdfnd@physx@@QEAAAEAPEAVGuMeshFactoryListener@2@I@Z 000000018002bc00 f i GuMeshFactory.obj
 0001:0002ac80       ??R?$Hash@PEAVBVHStructure@Gu@physx@@@shdfnd@physx@@QEBAIAEBQEAVBVHStructure@Gu@2@@Z 000000018002bc80 f i GuMeshFactory.obj
 0001:0002aca0       ??R?$Hash@PEAVConvexMesh@Gu@physx@@@shdfnd@physx@@QEBAIAEBQEAVConvexMesh@Gu@2@@Z 000000018002bca0 f i GuMeshFactory.obj
 0001:0002acc0       ??R?$Hash@PEAVHeightField@Gu@physx@@@shdfnd@physx@@QEBAIAEBQEAVHeightField@Gu@2@@Z 000000018002bcc0 f i GuMeshFactory.obj
 0001:0002ace0       ??R?$Hash@PEAVTriangleMesh@Gu@physx@@@shdfnd@physx@@QEBAIAEBQEAVTriangleMesh@Gu@2@@Z 000000018002bce0 f i GuMeshFactory.obj
 0001:0002ad00       ??RGetKey@?$HashSetBase@PEAVBVHStructure@Gu@physx@@U?$Hash@PEAVBVHStructure@Gu@physx@@@shdfnd@3@VNonTrackingAllocator@53@$00@internal@shdfnd@physx@@QEAAAEBQEAVBVHStructure@Gu@4@AEBQEAV564@@Z 000000018002bd00 f i GuMeshFactory.obj
 0001:0002ad10       ??RGetKey@?$HashSetBase@PEAVConvexMesh@Gu@physx@@U?$Hash@PEAVConvexMesh@Gu@physx@@@shdfnd@3@VNonTrackingAllocator@53@$00@internal@shdfnd@physx@@QEAAAEBQEAVConvexMesh@Gu@4@AEBQEAV564@@Z 000000018002bd10 f i GuMeshFactory.obj
 0001:0002ad20       ??RGetKey@?$HashSetBase@PEAVHeightField@Gu@physx@@U?$Hash@PEAVHeightField@Gu@physx@@@shdfnd@3@VNonTrackingAllocator@53@$00@internal@shdfnd@physx@@QEAAAEBQEAVHeightField@Gu@4@AEBQEAV564@@Z 000000018002bd20 f i GuMeshFactory.obj
 0001:0002ad30       ??RGetKey@?$HashSetBase@PEAVTriangleMesh@Gu@physx@@U?$Hash@PEAVTriangleMesh@Gu@physx@@@shdfnd@3@VNonTrackingAllocator@53@$00@internal@shdfnd@physx@@QEAAAEBQEAVTriangleMesh@Gu@4@AEBQEAV564@@Z 000000018002bd30 f i GuMeshFactory.obj
 0001:0002ad40       ??_EGuMeshFactory@physx@@MEAAPEAXI@Z 000000018002bd40 f i GuMeshFactory.obj
 0001:0002ae20       ??_GBV32Tree@Gu@physx@@QEAAPEAXI@Z 000000018002be20 f i GuMeshFactory.obj
 0001:0002ae80       ??_EBV4TriangleData@Gu@physx@@UEAAPEAXI@Z 000000018002be80 f i GuMeshFactory.obj
 0001:0002ae80       ??_GBV4TriangleData@Gu@physx@@UEAAPEAXI@Z 000000018002be80 f i GuMeshFactory.obj
 0001:0002aee0       ??_GGuMeshFactory@physx@@MEAAPEAXI@Z 000000018002bee0 f i GuMeshFactory.obj
 0001:0002af40       ??_GMeshDataBase@Gu@physx@@UEAAPEAXI@Z 000000018002bf40 f i GuMeshFactory.obj
 0001:0002af40       ??_EMeshDataBase@Gu@physx@@UEAAPEAXI@Z 000000018002bf40 f i GuMeshFactory.obj
 0001:0002afa0       ??_GMutexImpl@shdfnd@physx@@QEAAPEAXI@Z 000000018002bfa0 f i GuMeshFactory.obj
 0001:0002afe0       ??_ERTreeTriangleData@Gu@physx@@UEAAPEAXI@Z 000000018002bfe0 f i GuMeshFactory.obj
 0001:0002afe0       ??_GRTreeTriangleData@Gu@physx@@UEAAPEAXI@Z 000000018002bfe0 f i GuMeshFactory.obj
 0001:0002b040       ??_ETriangleMeshData@Gu@physx@@UEAAPEAXI@Z 000000018002c040 f i GuMeshFactory.obj
 0001:0002b040       ??_GTriangleMeshData@Gu@physx@@UEAAPEAXI@Z 000000018002c040 f i GuMeshFactory.obj
 0001:0002b0a0       ??_VUserAllocated@shdfnd@physx@@SAXPEAX@Z 000000018002c0a0 f i GuMeshFactory.obj
 0001:0002b0d0       ?__global_array_delete@@YAXPEAX@Z 000000018002c0d0 f i GuMeshFactory.obj
 0001:0002b0f0       ?__global_array_delete@@YAXPEAX_K@Z 000000018002c0f0 f i GuMeshFactory.obj
 0001:0002b120       ?__global_delete@@YAXPEAX@Z 000000018002c120 f i GuMeshFactory.obj
 0001:0002b140       ?__global_delete@@YAXPEAX_K@Z 000000018002c140 f i GuMeshFactory.obj
 0001:0002b170       ?allocate@?$Array@PEAVGuMeshFactoryListener@physx@@VNamedAllocator@shdfnd@2@@shdfnd@physx@@IEAAPEAPEAVGuMeshFactoryListener@3@I@Z 000000018002c170 f i GuMeshFactory.obj
 0001:0002b200       ?allocate@?$ReflectionAllocator@E@shdfnd@physx@@QEAAPEAX_KPEBDH@Z 000000018002c200 f i GuMeshFactory.obj
 0001:0002b280       ?allocate@?$ReflectionAllocator@G@shdfnd@physx@@QEAAPEAX_KPEBDH@Z 000000018002c280 f i GuMeshFactory.obj
 0001:0002b300       ?allocate@?$ReflectionAllocator@I@shdfnd@physx@@QEAAPEAX_KPEBDH@Z 000000018002c300 f i GuMeshFactory.obj
 0001:0002b380       ?allocate@?$ReflectionAllocator@VBV32Tree@Gu@physx@@@shdfnd@physx@@QEAAPEAX_KPEBDH@Z 000000018002c380 f i GuMeshFactory.obj
 0001:0002b400       ?allocate@?$ReflectionAllocator@VBV4TriangleData@Gu@physx@@@shdfnd@physx@@QEAAPEAX_KPEBDH@Z 000000018002c400 f i GuMeshFactory.obj
 0001:0002b480       ?allocate@?$ReflectionAllocator@VBV4TriangleMesh@Gu@physx@@@shdfnd@physx@@QEAAPEAX_KPEBDH@Z 000000018002c480 f i GuMeshFactory.obj
 0001:0002b500       ?allocate@?$ReflectionAllocator@VBVHStructure@Gu@physx@@@shdfnd@physx@@QEAAPEAX_KPEBDH@Z 000000018002c500 f i GuMeshFactory.obj
 0001:0002b580       ?allocate@?$ReflectionAllocator@VConvexMesh@Gu@physx@@@shdfnd@physx@@QEAAPEAX_KPEBDH@Z 000000018002c580 f i GuMeshFactory.obj
 0001:0002b600       ?allocate@?$ReflectionAllocator@VHeightField@Gu@physx@@@shdfnd@physx@@QEAAPEAX_KPEBDH@Z 000000018002c600 f i GuMeshFactory.obj
 0001:0002b680       ?allocate@?$ReflectionAllocator@VMutexImpl@shdfnd@physx@@@shdfnd@physx@@QEAAPEAX_KPEBDH@Z 000000018002c680 f i GuMeshFactory.obj
 0001:0002b700       ?allocate@?$ReflectionAllocator@VRTreeTriangleData@Gu@physx@@@shdfnd@physx@@QEAAPEAX_KPEBDH@Z 000000018002c700 f i GuMeshFactory.obj
 0001:0002b780       ?allocate@?$ReflectionAllocator@VRTreeTriangleMesh@Gu@physx@@@shdfnd@physx@@QEAAPEAX_KPEBDH@Z 000000018002c780 f i GuMeshFactory.obj
 0001:0002b800       ?allocateAdjacencies@TriangleMeshData@Gu@physx@@QEAAPEAIXZ 000000018002c800 f i GuMeshFactory.obj
 0001:0002b940       ?allocateExtraTrigData@TriangleMeshData@Gu@physx@@QEAAPEAEXZ 000000018002c940 f i GuMeshFactory.obj
 0001:0002ba50       ?allocateFaceRemap@TriangleMeshData@Gu@physx@@QEAAPEAIXZ 000000018002ca50 f i GuMeshFactory.obj
 0001:0002bb80       ?allocateMaterials@TriangleMeshData@Gu@physx@@QEAAPEAGXZ 000000018002cb80 f i GuMeshFactory.obj
 0001:0002bcb0       ?allocateTriangles@TriangleMeshData@Gu@physx@@QEAAPEAXI_NI@Z 000000018002ccb0 f i GuMeshFactory.obj
 0001:0002bef0       ?allocateVertices@MeshDataBase@Gu@physx@@QEAAPEAVPxVec3@3@I@Z 000000018002cef0 f i GuMeshFactory.obj
 0001:0002bfd0       ?capacity@?$Array@PEAVGuMeshFactoryListener@physx@@VNamedAllocator@shdfnd@2@@shdfnd@physx@@QEBAIXZ 000000018002cfd0 f i GuMeshFactory.obj
 0001:0002bff0       ?capacityIncrement@?$Array@PEAVGuMeshFactoryListener@physx@@VNamedAllocator@shdfnd@2@@shdfnd@physx@@IEBAIXZ 000000018002cff0 f i GuMeshFactory.obj
 0001:0002c030       ?copy@?$Array@PEAVGuMeshFactoryListener@physx@@VNamedAllocator@shdfnd@2@@shdfnd@physx@@KAXPEAPEAVGuMeshFactoryListener@3@0PEBQEAV43@@Z 000000018002d030 f i GuMeshFactory.obj
 0001:0002c0b0       ?create@?$HashBase@PEAVBVHStructure@Gu@physx@@PEAV123@U?$Hash@PEAVBVHStructure@Gu@physx@@@shdfnd@3@UGetKey@?$HashSetBase@PEAVBVHStructure@Gu@physx@@U?$Hash@PEAVBVHStructure@Gu@physx@@@shdfnd@3@VNonTrackingAllocator@53@$00@internal@53@VNonTrackingAllocator@53@$00@internal@shdfnd@physx@@QEAAPEAPEAVBVHStructure@Gu@4@AEBQEAV564@AEA_N@Z 000000018002d0b0 f i GuMeshFactory.obj
 0001:0002c260       ?create@?$HashBase@PEAVConvexMesh@Gu@physx@@PEAV123@U?$Hash@PEAVConvexMesh@Gu@physx@@@shdfnd@3@UGetKey@?$HashSetBase@PEAVConvexMesh@Gu@physx@@U?$Hash@PEAVConvexMesh@Gu@physx@@@shdfnd@3@VNonTrackingAllocator@53@$00@internal@53@VNonTrackingAllocator@53@$00@internal@shdfnd@physx@@QEAAPEAPEAVConvexMesh@Gu@4@AEBQEAV564@AEA_N@Z 000000018002d260 f i GuMeshFactory.obj
 0001:0002c410       ?create@?$HashBase@PEAVHeightField@Gu@physx@@PEAV123@U?$Hash@PEAVHeightField@Gu@physx@@@shdfnd@3@UGetKey@?$HashSetBase@PEAVHeightField@Gu@physx@@U?$Hash@PEAVHeightField@Gu@physx@@@shdfnd@3@VNonTrackingAllocator@53@$00@internal@53@VNonTrackingAllocator@53@$00@internal@shdfnd@physx@@QEAAPEAPEAVHeightField@Gu@4@AEBQEAV564@AEA_N@Z 000000018002d410 f i GuMeshFactory.obj
 0001:0002c5c0       ?create@?$HashBase@PEAVTriangleMesh@Gu@physx@@PEAV123@U?$Hash@PEAVTriangleMesh@Gu@physx@@@shdfnd@3@UGetKey@?$HashSetBase@PEAVTriangleMesh@Gu@physx@@U?$Hash@PEAVTriangleMesh@Gu@physx@@@shdfnd@3@VNonTrackingAllocator@53@$00@internal@53@VNonTrackingAllocator@53@$00@internal@shdfnd@physx@@QEAAPEAPEAVTriangleMesh@Gu@4@AEBQEAV564@AEA_N@Z 000000018002d5c0 f i GuMeshFactory.obj
 0001:0002c770       ?deallocate@?$AlignedAllocator@$0IA@VNonTrackingAllocator@shdfnd@physx@@@shdfnd@physx@@QEAAXPEAX@Z 000000018002d770 f i GuMeshFactory.obj
 0001:0002c7c0       ?deallocate@?$Array@PEAVGuMeshFactoryListener@physx@@VNamedAllocator@shdfnd@2@@shdfnd@physx@@IEAAXPEAX@Z 000000018002d7c0 f i GuMeshFactory.obj
 0001:0002c7f0       ?deallocate@?$ReflectionAllocator@VMutexImpl@shdfnd@physx@@@shdfnd@physx@@QEAAXPEAX@Z 000000018002d7f0 f i GuMeshFactory.obj
 0001:0002c830       ?decRefCount@RefCountable@Cm@physx@@QEAAXXZ 000000018002d830 f i GuMeshFactory.obj
 0001:0002c8c0       ?destroy@?$Array@PEAVGuMeshFactoryListener@physx@@VNamedAllocator@shdfnd@2@@shdfnd@physx@@KAXPEAPEAVGuMeshFactoryListener@3@0@Z 000000018002d8c0 f i GuMeshFactory.obj
 0001:0002c8f0       ?destroy@?$HashBase@PEAVBVHStructure@Gu@physx@@PEAV123@U?$Hash@PEAVBVHStructure@Gu@physx@@@shdfnd@3@UGetKey@?$HashSetBase@PEAVBVHStructure@Gu@physx@@U?$Hash@PEAVBVHStructure@Gu@physx@@@shdfnd@3@VNonTrackingAllocator@53@$00@internal@53@VNonTrackingAllocator@53@$00@internal@shdfnd@physx@@AEAAXXZ 000000018002d8f0 f i GuMeshFactory.obj
 0001:0002c950       ?destroy@?$HashBase@PEAVConvexMesh@Gu@physx@@PEAV123@U?$Hash@PEAVConvexMesh@Gu@physx@@@shdfnd@3@UGetKey@?$HashSetBase@PEAVConvexMesh@Gu@physx@@U?$Hash@PEAVConvexMesh@Gu@physx@@@shdfnd@3@VNonTrackingAllocator@53@$00@internal@53@VNonTrackingAllocator@53@$00@internal@shdfnd@physx@@AEAAXXZ 000000018002d950 f i GuMeshFactory.obj
 0001:0002c9b0       ?destroy@?$HashBase@PEAVHeightField@Gu@physx@@PEAV123@U?$Hash@PEAVHeightField@Gu@physx@@@shdfnd@3@UGetKey@?$HashSetBase@PEAVHeightField@Gu@physx@@U?$Hash@PEAVHeightField@Gu@physx@@@shdfnd@3@VNonTrackingAllocator@53@$00@internal@53@VNonTrackingAllocator@53@$00@internal@shdfnd@physx@@AEAAXXZ 000000018002d9b0 f i GuMeshFactory.obj
 0001:0002ca10       ?destroy@?$HashBase@PEAVTriangleMesh@Gu@physx@@PEAV123@U?$Hash@PEAVTriangleMesh@Gu@physx@@@shdfnd@3@UGetKey@?$HashSetBase@PEAVTriangleMesh@Gu@physx@@U?$Hash@PEAVTriangleMesh@Gu@physx@@@shdfnd@3@VNonTrackingAllocator@53@$00@internal@53@VNonTrackingAllocator@53@$00@internal@shdfnd@physx@@AEAAXXZ 000000018002da10 f i GuMeshFactory.obj
 0001:0002ca70       ?equal@?$Hash@PEAVBVHStructure@Gu@physx@@@shdfnd@physx@@QEBA_NAEBQEAVBVHStructure@Gu@3@0@Z 000000018002da70 f i GuMeshFactory.obj
 0001:0002cab0       ?equal@?$Hash@PEAVConvexMesh@Gu@physx@@@shdfnd@physx@@QEBA_NAEBQEAVConvexMesh@Gu@3@0@Z 000000018002dab0 f i GuMeshFactory.obj
 0001:0002caf0       ?equal@?$Hash@PEAVHeightField@Gu@physx@@@shdfnd@physx@@QEBA_NAEBQEAVHeightField@Gu@3@0@Z 000000018002daf0 f i GuMeshFactory.obj
 0001:0002cb30       ?equal@?$Hash@PEAVTriangleMesh@Gu@physx@@@shdfnd@physx@@QEBA_NAEBQEAVTriangleMesh@Gu@3@0@Z 000000018002db30 f i GuMeshFactory.obj
 0001:0002cb70       ?erase@?$HashBase@PEAVBVHStructure@Gu@physx@@PEAV123@U?$Hash@PEAVBVHStructure@Gu@physx@@@shdfnd@3@UGetKey@?$HashSetBase@PEAVBVHStructure@Gu@physx@@U?$Hash@PEAVBVHStructure@Gu@physx@@@shdfnd@3@VNonTrackingAllocator@53@$00@internal@53@VNonTrackingAllocator@53@$00@internal@shdfnd@physx@@QEAA_NAEBQEAVBVHStructure@Gu@4@@Z 000000018002db70 f i GuMeshFactory.obj
 0001:0002cc40       ?erase@?$HashBase@PEAVConvexMesh@Gu@physx@@PEAV123@U?$Hash@PEAVConvexMesh@Gu@physx@@@shdfnd@3@UGetKey@?$HashSetBase@PEAVConvexMesh@Gu@physx@@U?$Hash@PEAVConvexMesh@Gu@physx@@@shdfnd@3@VNonTrackingAllocator@53@$00@internal@53@VNonTrackingAllocator@53@$00@internal@shdfnd@physx@@QEAA_NAEBQEAVConvexMesh@Gu@4@@Z 000000018002dc40 f i GuMeshFactory.obj
 0001:0002cd10       ?erase@?$HashBase@PEAVHeightField@Gu@physx@@PEAV123@U?$Hash@PEAVHeightField@Gu@physx@@@shdfnd@3@UGetKey@?$HashSetBase@PEAVHeightField@Gu@physx@@U?$Hash@PEAVHeightField@Gu@physx@@@shdfnd@3@VNonTrackingAllocator@53@$00@internal@53@VNonTrackingAllocator@53@$00@internal@shdfnd@physx@@QEAA_NAEBQEAVHeightField@Gu@4@@Z 000000018002dd10 f i GuMeshFactory.obj
 0001:0002cde0       ?erase@?$HashBase@PEAVTriangleMesh@Gu@physx@@PEAV123@U?$Hash@PEAVTriangleMesh@Gu@physx@@@shdfnd@3@UGetKey@?$HashSetBase@PEAVTriangleMesh@Gu@physx@@U?$Hash@PEAVTriangleMesh@Gu@physx@@@shdfnd@3@VNonTrackingAllocator@53@$00@internal@53@VNonTrackingAllocator@53@$00@internal@shdfnd@physx@@QEAA_NAEBQEAVTriangleMesh@Gu@4@@Z 000000018002dde0 f i GuMeshFactory.obj
 0001:0002ceb0       ?erase@?$HashSetBase@PEAVBVHStructure@Gu@physx@@U?$Hash@PEAVBVHStructure@Gu@physx@@@shdfnd@3@VNonTrackingAllocator@53@$00@internal@shdfnd@physx@@QEAA_NAEBQEAVBVHStructure@Gu@4@@Z 000000018002deb0 f i GuMeshFactory.obj
 0001:0002cee0       ?erase@?$HashSetBase@PEAVConvexMesh@Gu@physx@@U?$Hash@PEAVConvexMesh@Gu@physx@@@shdfnd@3@VNonTrackingAllocator@53@$00@internal@shdfnd@physx@@QEAA_NAEBQEAVConvexMesh@Gu@4@@Z 000000018002dee0 f i GuMeshFactory.obj
 0001:0002cf10       ?erase@?$HashSetBase@PEAVHeightField@Gu@physx@@U?$Hash@PEAVHeightField@Gu@physx@@@shdfnd@3@VNonTrackingAllocator@53@$00@internal@shdfnd@physx@@QEAA_NAEBQEAVHeightField@Gu@4@@Z 000000018002df10 f i GuMeshFactory.obj
 0001:0002cf40       ?erase@?$HashSetBase@PEAVTriangleMesh@Gu@physx@@U?$Hash@PEAVTriangleMesh@Gu@physx@@@shdfnd@3@VNonTrackingAllocator@53@$00@internal@shdfnd@physx@@QEAA_NAEBQEAVTriangleMesh@Gu@4@@Z 000000018002df40 f i GuMeshFactory.obj
 0001:0002cf70       ?eraseInternal@?$HashBase@PEAVBVHStructure@Gu@physx@@PEAV123@U?$Hash@PEAVBVHStructure@Gu@physx@@@shdfnd@3@UGetKey@?$HashSetBase@PEAVBVHStructure@Gu@physx@@U?$Hash@PEAVBVHStructure@Gu@physx@@@shdfnd@3@VNonTrackingAllocator@53@$00@internal@53@VNonTrackingAllocator@53@$00@internal@shdfnd@physx@@AEAA_NPEAI@Z 000000018002df70 f i GuMeshFactory.obj
 0001:0002d000       ?eraseInternal@?$HashBase@PEAVConvexMesh@Gu@physx@@PEAV123@U?$Hash@PEAVConvexMesh@Gu@physx@@@shdfnd@3@UGetKey@?$HashSetBase@PEAVConvexMesh@Gu@physx@@U?$Hash@PEAVConvexMesh@Gu@physx@@@shdfnd@3@VNonTrackingAllocator@53@$00@internal@53@VNonTrackingAllocator@53@$00@internal@shdfnd@physx@@AEAA_NPEAI@Z 000000018002e000 f i GuMeshFactory.obj
 0001:0002d090       ?eraseInternal@?$HashBase@PEAVHeightField@Gu@physx@@PEAV123@U?$Hash@PEAVHeightField@Gu@physx@@@shdfnd@3@UGetKey@?$HashSetBase@PEAVHeightField@Gu@physx@@U?$Hash@PEAVHeightField@Gu@physx@@@shdfnd@3@VNonTrackingAllocator@53@$00@internal@53@VNonTrackingAllocator@53@$00@internal@shdfnd@physx@@AEAA_NPEAI@Z 000000018002e090 f i GuMeshFactory.obj
 0001:0002d120       ?eraseInternal@?$HashBase@PEAVTriangleMesh@Gu@physx@@PEAV123@U?$Hash@PEAVTriangleMesh@Gu@physx@@@shdfnd@3@UGetKey@?$HashSetBase@PEAVTriangleMesh@Gu@physx@@U?$Hash@PEAVTriangleMesh@Gu@physx@@@shdfnd@3@VNonTrackingAllocator@53@$00@internal@53@VNonTrackingAllocator@53@$00@internal@shdfnd@physx@@AEAA_NPEAI@Z 000000018002e120 f i GuMeshFactory.obj
 0001:0002d1b0       ?flip@physx@@YAXAEAG@Z     000000018002e1b0 f i GuMeshFactory.obj
 0001:0002d220       ?flip@physx@@YAXAEAI@Z     000000018002e220 f i GuMeshFactory.obj
 0001:0002d2e0       ?flip@physx@@YAXAEAM@Z     000000018002e2e0 f i GuMeshFactory.obj
 0001:0002d3a0       ?freeListAdd@?$HashBase@PEAVBVHStructure@Gu@physx@@PEAV123@U?$Hash@PEAVBVHStructure@Gu@physx@@@shdfnd@3@UGetKey@?$HashSetBase@PEAVBVHStructure@Gu@physx@@U?$Hash@PEAVBVHStructure@Gu@physx@@@shdfnd@3@VNonTrackingAllocator@53@$00@internal@53@VNonTrackingAllocator@53@$00@internal@shdfnd@physx@@AEAAXI@Z 000000018002e3a0 f i GuMeshFactory.obj
 0001:0002d450       ?freeListAdd@?$HashBase@PEAVBVHStructure@Gu@physx@@PEAV123@U?$Hash@PEAVBVHStructure@Gu@physx@@@shdfnd@3@UGetKey@?$HashSetBase@PEAVBVHStructure@Gu@physx@@U?$Hash@PEAVBVHStructure@Gu@physx@@@shdfnd@3@VNonTrackingAllocator@53@$00@internal@53@VNonTrackingAllocator@53@$00@internal@shdfnd@physx@@AEAAXII@Z 000000018002e450 f i GuMeshFactory.obj
 0001:0002d550       ?freeListAdd@?$HashBase@PEAVConvexMesh@Gu@physx@@PEAV123@U?$Hash@PEAVConvexMesh@Gu@physx@@@shdfnd@3@UGetKey@?$HashSetBase@PEAVConvexMesh@Gu@physx@@U?$Hash@PEAVConvexMesh@Gu@physx@@@shdfnd@3@VNonTrackingAllocator@53@$00@internal@53@VNonTrackingAllocator@53@$00@internal@shdfnd@physx@@AEAAXI@Z 000000018002e550 f i GuMeshFactory.obj
 0001:0002d600       ?freeListAdd@?$HashBase@PEAVConvexMesh@Gu@physx@@PEAV123@U?$Hash@PEAVConvexMesh@Gu@physx@@@shdfnd@3@UGetKey@?$HashSetBase@PEAVConvexMesh@Gu@physx@@U?$Hash@PEAVConvexMesh@Gu@physx@@@shdfnd@3@VNonTrackingAllocator@53@$00@internal@53@VNonTrackingAllocator@53@$00@internal@shdfnd@physx@@AEAAXII@Z 000000018002e600 f i GuMeshFactory.obj
 0001:0002d700       ?freeListAdd@?$HashBase@PEAVHeightField@Gu@physx@@PEAV123@U?$Hash@PEAVHeightField@Gu@physx@@@shdfnd@3@UGetKey@?$HashSetBase@PEAVHeightField@Gu@physx@@U?$Hash@PEAVHeightField@Gu@physx@@@shdfnd@3@VNonTrackingAllocator@53@$00@internal@53@VNonTrackingAllocator@53@$00@internal@shdfnd@physx@@AEAAXI@Z 000000018002e700 f i GuMeshFactory.obj
 0001:0002d7b0       ?freeListAdd@?$HashBase@PEAVHeightField@Gu@physx@@PEAV123@U?$Hash@PEAVHeightField@Gu@physx@@@shdfnd@3@UGetKey@?$HashSetBase@PEAVHeightField@Gu@physx@@U?$Hash@PEAVHeightField@Gu@physx@@@shdfnd@3@VNonTrackingAllocator@53@$00@internal@53@VNonTrackingAllocator@53@$00@internal@shdfnd@physx@@AEAAXII@Z 000000018002e7b0 f i GuMeshFactory.obj
 0001:0002d8b0       ?freeListAdd@?$HashBase@PEAVTriangleMesh@Gu@physx@@PEAV123@U?$Hash@PEAVTriangleMesh@Gu@physx@@@shdfnd@3@UGetKey@?$HashSetBase@PEAVTriangleMesh@Gu@physx@@U?$Hash@PEAVTriangleMesh@Gu@physx@@@shdfnd@3@VNonTrackingAllocator@53@$00@internal@53@VNonTrackingAllocator@53@$00@internal@shdfnd@physx@@AEAAXI@Z 000000018002e8b0 f i GuMeshFactory.obj
 0001:0002d960       ?freeListAdd@?$HashBase@PEAVTriangleMesh@Gu@physx@@PEAV123@U?$Hash@PEAVTriangleMesh@Gu@physx@@@shdfnd@3@UGetKey@?$HashSetBase@PEAVTriangleMesh@Gu@physx@@U?$Hash@PEAVTriangleMesh@Gu@physx@@@shdfnd@3@VNonTrackingAllocator@53@$00@internal@53@VNonTrackingAllocator@53@$00@internal@shdfnd@physx@@AEAAXII@Z 000000018002e960 f i GuMeshFactory.obj
 0001:0002da60       ?freeListEmpty@?$HashBase@PEAVBVHStructure@Gu@physx@@PEAV123@U?$Hash@PEAVBVHStructure@Gu@physx@@@shdfnd@3@UGetKey@?$HashSetBase@PEAVBVHStructure@Gu@physx@@U?$Hash@PEAVBVHStructure@Gu@physx@@@shdfnd@3@VNonTrackingAllocator@53@$00@internal@53@VNonTrackingAllocator@53@$00@internal@shdfnd@physx@@AEBA_NXZ 000000018002ea60 f i GuMeshFactory.obj
 0001:0002dad0       ?freeListEmpty@?$HashBase@PEAVConvexMesh@Gu@physx@@PEAV123@U?$Hash@PEAVConvexMesh@Gu@physx@@@shdfnd@3@UGetKey@?$HashSetBase@PEAVConvexMesh@Gu@physx@@U?$Hash@PEAVConvexMesh@Gu@physx@@@shdfnd@3@VNonTrackingAllocator@53@$00@internal@53@VNonTrackingAllocator@53@$00@internal@shdfnd@physx@@AEBA_NXZ 000000018002ead0 f i GuMeshFactory.obj
 0001:0002db40       ?freeListEmpty@?$HashBase@PEAVHeightField@Gu@physx@@PEAV123@U?$Hash@PEAVHeightField@Gu@physx@@@shdfnd@3@UGetKey@?$HashSetBase@PEAVHeightField@Gu@physx@@U?$Hash@PEAVHeightField@Gu@physx@@@shdfnd@3@VNonTrackingAllocator@53@$00@internal@53@VNonTrackingAllocator@53@$00@internal@shdfnd@physx@@AEBA_NXZ 000000018002eb40 f i GuMeshFactory.obj
 0001:0002dbb0       ?freeListEmpty@?$HashBase@PEAVTriangleMesh@Gu@physx@@PEAV123@U?$Hash@PEAVTriangleMesh@Gu@physx@@@shdfnd@3@UGetKey@?$HashSetBase@PEAVTriangleMesh@Gu@physx@@U?$Hash@PEAVTriangleMesh@Gu@physx@@@shdfnd@3@VNonTrackingAllocator@53@$00@internal@53@VNonTrackingAllocator@53@$00@internal@shdfnd@physx@@AEBA_NXZ 000000018002ebb0 f i GuMeshFactory.obj
 0001:0002dc20       ?freeListGetNext@?$HashBase@PEAVBVHStructure@Gu@physx@@PEAV123@U?$Hash@PEAVBVHStructure@Gu@physx@@@shdfnd@3@UGetKey@?$HashSetBase@PEAVBVHStructure@Gu@physx@@U?$Hash@PEAVBVHStructure@Gu@physx@@@shdfnd@3@VNonTrackingAllocator@53@$00@internal@53@VNonTrackingAllocator@53@$00@internal@shdfnd@physx@@AEAAIXZ 000000018002ec20 f i GuMeshFactory.obj
 0001:0002dd40       ?freeListGetNext@?$HashBase@PEAVConvexMesh@Gu@physx@@PEAV123@U?$Hash@PEAVConvexMesh@Gu@physx@@@shdfnd@3@UGetKey@?$HashSetBase@PEAVConvexMesh@Gu@physx@@U?$Hash@PEAVConvexMesh@Gu@physx@@@shdfnd@3@VNonTrackingAllocator@53@$00@internal@53@VNonTrackingAllocator@53@$00@internal@shdfnd@physx@@AEAAIXZ 000000018002ed40 f i GuMeshFactory.obj
 0001:0002de60       ?freeListGetNext@?$HashBase@PEAVHeightField@Gu@physx@@PEAV123@U?$Hash@PEAVHeightField@Gu@physx@@@shdfnd@3@UGetKey@?$HashSetBase@PEAVHeightField@Gu@physx@@U?$Hash@PEAVHeightField@Gu@physx@@@shdfnd@3@VNonTrackingAllocator@53@$00@internal@53@VNonTrackingAllocator@53@$00@internal@shdfnd@physx@@AEAAIXZ 000000018002ee60 f i GuMeshFactory.obj
 0001:0002df80       ?freeListGetNext@?$HashBase@PEAVTriangleMesh@Gu@physx@@PEAV123@U?$Hash@PEAVTriangleMesh@Gu@physx@@@shdfnd@3@UGetKey@?$HashSetBase@PEAVTriangleMesh@Gu@physx@@U?$Hash@PEAVTriangleMesh@Gu@physx@@@shdfnd@3@VNonTrackingAllocator@53@$00@internal@53@VNonTrackingAllocator@53@$00@internal@shdfnd@physx@@AEAAIXZ 000000018002ef80 f i GuMeshFactory.obj
 0001:0002e0a0       ?getEntries@?$CoalescedHashSet@PEAVBVHStructure@Gu@physx@@U?$Hash@PEAVBVHStructure@Gu@physx@@@shdfnd@3@VNonTrackingAllocator@53@@shdfnd@physx@@QEBAPEBQEAVBVHStructure@Gu@3@XZ 000000018002f0a0 f i GuMeshFactory.obj
 0001:0002e0c0       ?getEntries@?$CoalescedHashSet@PEAVConvexMesh@Gu@physx@@U?$Hash@PEAVConvexMesh@Gu@physx@@@shdfnd@3@VNonTrackingAllocator@53@@shdfnd@physx@@QEBAPEBQEAVConvexMesh@Gu@3@XZ 000000018002f0c0 f i GuMeshFactory.obj
 0001:0002e0e0       ?getEntries@?$CoalescedHashSet@PEAVHeightField@Gu@physx@@U?$Hash@PEAVHeightField@Gu@physx@@@shdfnd@3@VNonTrackingAllocator@53@@shdfnd@physx@@QEBAPEBQEAVHeightField@Gu@3@XZ 000000018002f0e0 f i GuMeshFactory.obj
 0001:0002e100       ?getEntries@?$CoalescedHashSet@PEAVTriangleMesh@Gu@physx@@U?$Hash@PEAVTriangleMesh@Gu@physx@@@shdfnd@3@VNonTrackingAllocator@53@@shdfnd@physx@@QEBAPEBQEAVTriangleMesh@Gu@3@XZ 000000018002f100 f i GuMeshFactory.obj
 0001:0002e120       ?getEntries@?$HashBase@PEAVBVHStructure@Gu@physx@@PEAV123@U?$Hash@PEAVBVHStructure@Gu@physx@@@shdfnd@3@UGetKey@?$HashSetBase@PEAVBVHStructure@Gu@physx@@U?$Hash@PEAVBVHStructure@Gu@physx@@@shdfnd@3@VNonTrackingAllocator@53@$00@internal@53@VNonTrackingAllocator@53@$00@internal@shdfnd@physx@@QEBAPEBQEAVBVHStructure@Gu@4@XZ 000000018002f120 f i GuMeshFactory.obj
 0001:0002e130       ?getEntries@?$HashBase@PEAVConvexMesh@Gu@physx@@PEAV123@U?$Hash@PEAVConvexMesh@Gu@physx@@@shdfnd@3@UGetKey@?$HashSetBase@PEAVConvexMesh@Gu@physx@@U?$Hash@PEAVConvexMesh@Gu@physx@@@shdfnd@3@VNonTrackingAllocator@53@$00@internal@53@VNonTrackingAllocator@53@$00@internal@shdfnd@physx@@QEBAPEBQEAVConvexMesh@Gu@4@XZ 000000018002f130 f i GuMeshFactory.obj
 0001:0002e140       ?getEntries@?$HashBase@PEAVHeightField@Gu@physx@@PEAV123@U?$Hash@PEAVHeightField@Gu@physx@@@shdfnd@3@UGetKey@?$HashSetBase@PEAVHeightField@Gu@physx@@U?$Hash@PEAVHeightField@Gu@physx@@@shdfnd@3@VNonTrackingAllocator@53@$00@internal@53@VNonTrackingAllocator@53@$00@internal@shdfnd@physx@@QEBAPEBQEAVHeightField@Gu@4@XZ 000000018002f140 f i GuMeshFactory.obj
 0001:0002e150       ?getEntries@?$HashBase@PEAVTriangleMesh@Gu@physx@@PEAV123@U?$Hash@PEAVTriangleMesh@Gu@physx@@@shdfnd@3@UGetKey@?$HashSetBase@PEAVTriangleMesh@Gu@physx@@U?$Hash@PEAVTriangleMesh@Gu@physx@@@shdfnd@3@VNonTrackingAllocator@53@$00@internal@53@VNonTrackingAllocator@53@$00@internal@shdfnd@physx@@QEBAPEBQEAVTriangleMesh@Gu@4@XZ 000000018002f150 f i GuMeshFactory.obj
 0001:0002e160       ?getName@?$ReflectionAllocator@E@shdfnd@physx@@CAPEBDXZ 000000018002f160 f i GuMeshFactory.obj
 0001:0002e1a0       ?getName@?$ReflectionAllocator@G@shdfnd@physx@@CAPEBDXZ 000000018002f1a0 f i GuMeshFactory.obj
 0001:0002e1e0       ?getName@?$ReflectionAllocator@I@shdfnd@physx@@CAPEBDXZ 000000018002f1e0 f i GuMeshFactory.obj
 0001:0002e220       ?getName@?$ReflectionAllocator@VBV32Tree@Gu@physx@@@shdfnd@physx@@CAPEBDXZ 000000018002f220 f i GuMeshFactory.obj
 0001:0002e260       ?getName@?$ReflectionAllocator@VBV4TriangleData@Gu@physx@@@shdfnd@physx@@CAPEBDXZ 000000018002f260 f i GuMeshFactory.obj
 0001:0002e2a0       ?getName@?$ReflectionAllocator@VBV4TriangleMesh@Gu@physx@@@shdfnd@physx@@CAPEBDXZ 000000018002f2a0 f i GuMeshFactory.obj
 0001:0002e2e0       ?getName@?$ReflectionAllocator@VBVHStructure@Gu@physx@@@shdfnd@physx@@CAPEBDXZ 000000018002f2e0 f i GuMeshFactory.obj
 0001:0002e320       ?getName@?$ReflectionAllocator@VConvexMesh@Gu@physx@@@shdfnd@physx@@CAPEBDXZ 000000018002f320 f i GuMeshFactory.obj
 0001:0002e360       ?getName@?$ReflectionAllocator@VHeightField@Gu@physx@@@shdfnd@physx@@CAPEBDXZ 000000018002f360 f i GuMeshFactory.obj
 0001:0002e3a0       ?getName@?$ReflectionAllocator@VMutexImpl@shdfnd@physx@@@shdfnd@physx@@CAPEBDXZ 000000018002f3a0 f i GuMeshFactory.obj
 0001:0002e3e0       ?getName@?$ReflectionAllocator@VRTreeTriangleData@Gu@physx@@@shdfnd@physx@@CAPEBDXZ 000000018002f3e0 f i GuMeshFactory.obj
 0001:0002e420       ?getName@?$ReflectionAllocator@VRTreeTriangleMesh@Gu@physx@@@shdfnd@physx@@CAPEBDXZ 000000018002f420 f i GuMeshFactory.obj
 0001:0002e460       ?getRefCount@RefCountable@Cm@physx@@QEBAIXZ 000000018002f460 f i GuMeshFactory.obj
 0001:0002e470       ?grow@?$HashBase@PEAVBVHStructure@Gu@physx@@PEAV123@U?$Hash@PEAVBVHStructure@Gu@physx@@@shdfnd@3@UGetKey@?$HashSetBase@PEAVBVHStructure@Gu@physx@@U?$Hash@PEAVBVHStructure@Gu@physx@@@shdfnd@3@VNonTrackingAllocator@53@$00@internal@53@VNonTrackingAllocator@53@$00@internal@shdfnd@physx@@AEAAXXZ 000000018002f470 f i GuMeshFactory.obj
 0001:0002e530       ?grow@?$HashBase@PEAVConvexMesh@Gu@physx@@PEAV123@U?$Hash@PEAVConvexMesh@Gu@physx@@@shdfnd@3@UGetKey@?$HashSetBase@PEAVConvexMesh@Gu@physx@@U?$Hash@PEAVConvexMesh@Gu@physx@@@shdfnd@3@VNonTrackingAllocator@53@$00@internal@53@VNonTrackingAllocator@53@$00@internal@shdfnd@physx@@AEAAXXZ 000000018002f530 f i GuMeshFactory.obj
 0001:0002e5f0       ?grow@?$HashBase@PEAVHeightField@Gu@physx@@PEAV123@U?$Hash@PEAVHeightField@Gu@physx@@@shdfnd@3@UGetKey@?$HashSetBase@PEAVHeightField@Gu@physx@@U?$Hash@PEAVHeightField@Gu@physx@@@shdfnd@3@VNonTrackingAllocator@53@$00@internal@53@VNonTrackingAllocator@53@$00@internal@shdfnd@physx@@AEAAXXZ 000000018002f5f0 f i GuMeshFactory.obj
 0001:0002e6b0       ?grow@?$HashBase@PEAVTriangleMesh@Gu@physx@@PEAV123@U?$Hash@PEAVTriangleMesh@Gu@physx@@@shdfnd@3@UGetKey@?$HashSetBase@PEAVTriangleMesh@Gu@physx@@U?$Hash@PEAVTriangleMesh@Gu@physx@@@shdfnd@3@VNonTrackingAllocator@53@$00@internal@53@VNonTrackingAllocator@53@$00@internal@shdfnd@physx@@AEAAXXZ 000000018002f6b0 f i GuMeshFactory.obj
 0001:0002e770       ?growAndPushBack@?$Array@PEAVGuMeshFactoryListener@physx@@VNamedAllocator@shdfnd@2@@shdfnd@physx@@IEAAAEAPEAVGuMeshFactoryListener@3@AEBQEAV43@@Z 000000018002f770 f i GuMeshFactory.obj
 0001:0002e8f0       ?has16BitIndices@MeshDataBase@Gu@physx@@QEBA_NXZ 000000018002f8f0 f i GuMeshFactory.obj
 0001:0002e920       ?hash@?$HashBase@PEAVBVHStructure@Gu@physx@@PEAV123@U?$Hash@PEAVBVHStructure@Gu@physx@@@shdfnd@3@UGetKey@?$HashSetBase@PEAVBVHStructure@Gu@physx@@U?$Hash@PEAVBVHStructure@Gu@physx@@@shdfnd@3@VNonTrackingAllocator@53@$00@internal@53@VNonTrackingAllocator@53@$00@internal@shdfnd@physx@@AEBAIAEBQEAVBVHStructure@Gu@4@@Z 000000018002f920 f i GuMeshFactory.obj
 0001:0002e950       ?hash@?$HashBase@PEAVBVHStructure@Gu@physx@@PEAV123@U?$Hash@PEAVBVHStructure@Gu@physx@@@shdfnd@3@UGetKey@?$HashSetBase@PEAVBVHStructure@Gu@physx@@U?$Hash@PEAVBVHStructure@Gu@physx@@@shdfnd@3@VNonTrackingAllocator@53@$00@internal@53@VNonTrackingAllocator@53@$00@internal@shdfnd@physx@@AEBAIAEBQEAVBVHStructure@Gu@4@I@Z 000000018002f950 f i GuMeshFactory.obj
 0001:0002e980       ?hash@?$HashBase@PEAVConvexMesh@Gu@physx@@PEAV123@U?$Hash@PEAVConvexMesh@Gu@physx@@@shdfnd@3@UGetKey@?$HashSetBase@PEAVConvexMesh@Gu@physx@@U?$Hash@PEAVConvexMesh@Gu@physx@@@shdfnd@3@VNonTrackingAllocator@53@$00@internal@53@VNonTrackingAllocator@53@$00@internal@shdfnd@physx@@AEBAIAEBQEAVConvexMesh@Gu@4@@Z 000000018002f980 f i GuMeshFactory.obj
 0001:0002e9b0       ?hash@?$HashBase@PEAVConvexMesh@Gu@physx@@PEAV123@U?$Hash@PEAVConvexMesh@Gu@physx@@@shdfnd@3@UGetKey@?$HashSetBase@PEAVConvexMesh@Gu@physx@@U?$Hash@PEAVConvexMesh@Gu@physx@@@shdfnd@3@VNonTrackingAllocator@53@$00@internal@53@VNonTrackingAllocator@53@$00@internal@shdfnd@physx@@AEBAIAEBQEAVConvexMesh@Gu@4@I@Z 000000018002f9b0 f i GuMeshFactory.obj
 0001:0002e9e0       ?hash@?$HashBase@PEAVHeightField@Gu@physx@@PEAV123@U?$Hash@PEAVHeightField@Gu@physx@@@shdfnd@3@UGetKey@?$HashSetBase@PEAVHeightField@Gu@physx@@U?$Hash@PEAVHeightField@Gu@physx@@@shdfnd@3@VNonTrackingAllocator@53@$00@internal@53@VNonTrackingAllocator@53@$00@internal@shdfnd@physx@@AEBAIAEBQEAVHeightField@Gu@4@@Z 000000018002f9e0 f i GuMeshFactory.obj
 0001:0002ea10       ?hash@?$HashBase@PEAVHeightField@Gu@physx@@PEAV123@U?$Hash@PEAVHeightField@Gu@physx@@@shdfnd@3@UGetKey@?$HashSetBase@PEAVHeightField@Gu@physx@@U?$Hash@PEAVHeightField@Gu@physx@@@shdfnd@3@VNonTrackingAllocator@53@$00@internal@53@VNonTrackingAllocator@53@$00@internal@shdfnd@physx@@AEBAIAEBQEAVHeightField@Gu@4@I@Z 000000018002fa10 f i GuMeshFactory.obj
 0001:0002ea40       ?hash@?$HashBase@PEAVTriangleMesh@Gu@physx@@PEAV123@U?$Hash@PEAVTriangleMesh@Gu@physx@@@shdfnd@3@UGetKey@?$HashSetBase@PEAVTriangleMesh@Gu@physx@@U?$Hash@PEAVTriangleMesh@Gu@physx@@@shdfnd@3@VNonTrackingAllocator@53@$00@internal@53@VNonTrackingAllocator@53@$00@internal@shdfnd@physx@@AEBAIAEBQEAVTriangleMesh@Gu@4@@Z 000000018002fa40 f i GuMeshFactory.obj
 0001:0002ea70       ?hash@?$HashBase@PEAVTriangleMesh@Gu@physx@@PEAV123@U?$Hash@PEAVTriangleMesh@Gu@physx@@@shdfnd@3@UGetKey@?$HashSetBase@PEAVTriangleMesh@Gu@physx@@U?$Hash@PEAVTriangleMesh@Gu@physx@@@shdfnd@3@VNonTrackingAllocator@53@$00@internal@53@VNonTrackingAllocator@53@$00@internal@shdfnd@physx@@AEBAIAEBQEAVTriangleMesh@Gu@4@I@Z 000000018002fa70 f i GuMeshFactory.obj
 0001:0002eaa0       ?init@?$HashBase@PEAVBVHStructure@Gu@physx@@PEAV123@U?$Hash@PEAVBVHStructure@Gu@physx@@@shdfnd@3@UGetKey@?$HashSetBase@PEAVBVHStructure@Gu@physx@@U?$Hash@PEAVBVHStructure@Gu@physx@@@shdfnd@3@VNonTrackingAllocator@53@$00@internal@53@VNonTrackingAllocator@53@$00@internal@shdfnd@physx@@AEAAXIM@Z 000000018002faa0 f i GuMeshFactory.obj
 0001:0002eb50       ?init@?$HashBase@PEAVConvexMesh@Gu@physx@@PEAV123@U?$Hash@PEAVConvexMesh@Gu@physx@@@shdfnd@3@UGetKey@?$HashSetBase@PEAVConvexMesh@Gu@physx@@U?$Hash@PEAVConvexMesh@Gu@physx@@@shdfnd@3@VNonTrackingAllocator@53@$00@internal@53@VNonTrackingAllocator@53@$00@internal@shdfnd@physx@@AEAAXIM@Z 000000018002fb50 f i GuMeshFactory.obj
 0001:0002ec00       ?init@?$HashBase@PEAVHeightField@Gu@physx@@PEAV123@U?$Hash@PEAVHeightField@Gu@physx@@@shdfnd@3@UGetKey@?$HashSetBase@PEAVHeightField@Gu@physx@@U?$Hash@PEAVHeightField@Gu@physx@@@shdfnd@3@VNonTrackingAllocator@53@$00@internal@53@VNonTrackingAllocator@53@$00@internal@shdfnd@physx@@AEAAXIM@Z 000000018002fc00 f i GuMeshFactory.obj
 0001:0002ecb0       ?init@?$HashBase@PEAVTriangleMesh@Gu@physx@@PEAV123@U?$Hash@PEAVTriangleMesh@Gu@physx@@@shdfnd@3@UGetKey@?$HashSetBase@PEAVTriangleMesh@Gu@physx@@U?$Hash@PEAVTriangleMesh@Gu@physx@@@shdfnd@3@VNonTrackingAllocator@53@$00@internal@53@VNonTrackingAllocator@53@$00@internal@shdfnd@physx@@AEAAXIM@Z 000000018002fcb0 f i GuMeshFactory.obj
 0001:0002ed60       ?insert@?$HashSetBase@PEAVBVHStructure@Gu@physx@@U?$Hash@PEAVBVHStructure@Gu@physx@@@shdfnd@3@VNonTrackingAllocator@53@$00@internal@shdfnd@physx@@QEAA_NAEBQEAVBVHStructure@Gu@4@@Z 000000018002fd60 f i GuMeshFactory.obj
 0001:0002ede0       ?insert@?$HashSetBase@PEAVConvexMesh@Gu@physx@@U?$Hash@PEAVConvexMesh@Gu@physx@@@shdfnd@3@VNonTrackingAllocator@53@$00@internal@shdfnd@physx@@QEAA_NAEBQEAVConvexMesh@Gu@4@@Z 000000018002fde0 f i GuMeshFactory.obj
 0001:0002ee60       ?insert@?$HashSetBase@PEAVHeightField@Gu@physx@@U?$Hash@PEAVHeightField@Gu@physx@@@shdfnd@3@VNonTrackingAllocator@53@$00@internal@shdfnd@physx@@QEAA_NAEBQEAVHeightField@Gu@4@@Z 000000018002fe60 f i GuMeshFactory.obj
 0001:0002eee0       ?insert@?$HashSetBase@PEAVTriangleMesh@Gu@physx@@U?$Hash@PEAVTriangleMesh@Gu@physx@@@shdfnd@3@VNonTrackingAllocator@53@$00@internal@shdfnd@physx@@QEAA_NAEBQEAVTriangleMesh@Gu@4@@Z 000000018002fee0 f i GuMeshFactory.obj
 0001:0002ef60       ?isInUserMemory@?$Array@PEAVGuMeshFactoryListener@physx@@VNamedAllocator@shdfnd@2@@shdfnd@physx@@QEBAIXZ 000000018002ff60 f i GuMeshFactory.obj
 0001:0002ef80       ?lock@?$MutexT@V?$ReflectionAllocator@VMutexImpl@shdfnd@physx@@@shdfnd@physx@@@shdfnd@physx@@QEBAXXZ 000000018002ff80 f i GuMeshFactory.obj
 0001:0002efa0       ?markSerializedMem@Cm@physx@@YAXPEAXI@Z 000000018002ffa0 f i GuMeshFactory.obj
 0001:0002efe0       ?pushBack@?$Array@PEAVGuMeshFactoryListener@physx@@VNamedAllocator@shdfnd@2@@shdfnd@physx@@QEAAAEAPEAVGuMeshFactoryListener@3@AEBQEAV43@@Z 000000018002ffe0 f i GuMeshFactory.obj
 0001:0002f080       ?release@RTree@Gu@physx@@QEAAXXZ 0000000180030080 f i GuMeshFactory.obj
 0001:0002f0e0       ?replaceWithLast@?$Array@PEAVGuMeshFactoryListener@physx@@VNamedAllocator@shdfnd@2@@shdfnd@physx@@QEAAXI@Z 00000001800300e0 f i GuMeshFactory.obj
 0001:0002f190       ?replaceWithLast@?$HashBase@PEAVBVHStructure@Gu@physx@@PEAV123@U?$Hash@PEAVBVHStructure@Gu@physx@@@shdfnd@3@UGetKey@?$HashSetBase@PEAVBVHStructure@Gu@physx@@U?$Hash@PEAVBVHStructure@Gu@physx@@@shdfnd@3@VNonTrackingAllocator@53@$00@internal@53@VNonTrackingAllocator@53@$00@internal@shdfnd@physx@@AEAAXI@Z 0000000180030190 f i GuMeshFactory.obj
 0001:0002f2e0       ?replaceWithLast@?$HashBase@PEAVConvexMesh@Gu@physx@@PEAV123@U?$Hash@PEAVConvexMesh@Gu@physx@@@shdfnd@3@UGetKey@?$HashSetBase@PEAVConvexMesh@Gu@physx@@U?$Hash@PEAVConvexMesh@Gu@physx@@@shdfnd@3@VNonTrackingAllocator@53@$00@internal@53@VNonTrackingAllocator@53@$00@internal@shdfnd@physx@@AEAAXI@Z 00000001800302e0 f i GuMeshFactory.obj
 0001:0002f430       ?replaceWithLast@?$HashBase@PEAVHeightField@Gu@physx@@PEAV123@U?$Hash@PEAVHeightField@Gu@physx@@@shdfnd@3@UGetKey@?$HashSetBase@PEAVHeightField@Gu@physx@@U?$Hash@PEAVHeightField@Gu@physx@@@shdfnd@3@VNonTrackingAllocator@53@$00@internal@53@VNonTrackingAllocator@53@$00@internal@shdfnd@physx@@AEAAXI@Z 0000000180030430 f i GuMeshFactory.obj
 0001:0002f580       ?replaceWithLast@?$HashBase@PEAVTriangleMesh@Gu@physx@@PEAV123@U?$Hash@PEAVTriangleMesh@Gu@physx@@@shdfnd@3@UGetKey@?$HashSetBase@PEAVTriangleMesh@Gu@physx@@U?$Hash@PEAVTriangleMesh@Gu@physx@@@shdfnd@3@VNonTrackingAllocator@53@$00@internal@53@VNonTrackingAllocator@53@$00@internal@shdfnd@physx@@AEAAXI@Z 0000000180030580 f i GuMeshFactory.obj
 0001:0002f6d0       ?reserve@?$HashBase@PEAVBVHStructure@Gu@physx@@PEAV123@U?$Hash@PEAVBVHStructure@Gu@physx@@@shdfnd@3@UGetKey@?$HashSetBase@PEAVBVHStructure@Gu@physx@@U?$Hash@PEAVBVHStructure@Gu@physx@@@shdfnd@3@VNonTrackingAllocator@53@$00@internal@53@VNonTrackingAllocator@53@$00@internal@shdfnd@physx@@QEAAXI@Z 00000001800306d0 f i GuMeshFactory.obj
 0001:0002f700       ?reserve@?$HashBase@PEAVConvexMesh@Gu@physx@@PEAV123@U?$Hash@PEAVConvexMesh@Gu@physx@@@shdfnd@3@UGetKey@?$HashSetBase@PEAVConvexMesh@Gu@physx@@U?$Hash@PEAVConvexMesh@Gu@physx@@@shdfnd@3@VNonTrackingAllocator@53@$00@internal@53@VNonTrackingAllocator@53@$00@internal@shdfnd@physx@@QEAAXI@Z 0000000180030700 f i GuMeshFactory.obj
 0001:0002f730       ?reserve@?$HashBase@PEAVHeightField@Gu@physx@@PEAV123@U?$Hash@PEAVHeightField@Gu@physx@@@shdfnd@3@UGetKey@?$HashSetBase@PEAVHeightField@Gu@physx@@U?$Hash@PEAVHeightField@Gu@physx@@@shdfnd@3@VNonTrackingAllocator@53@$00@internal@53@VNonTrackingAllocator@53@$00@internal@shdfnd@physx@@QEAAXI@Z 0000000180030730 f i GuMeshFactory.obj
 0001:0002f760       ?reserve@?$HashBase@PEAVTriangleMesh@Gu@physx@@PEAV123@U?$Hash@PEAVTriangleMesh@Gu@physx@@@shdfnd@3@UGetKey@?$HashSetBase@PEAVTriangleMesh@Gu@physx@@U?$Hash@PEAVTriangleMesh@Gu@physx@@@shdfnd@3@VNonTrackingAllocator@53@$00@internal@53@VNonTrackingAllocator@53@$00@internal@shdfnd@physx@@QEAAXI@Z 0000000180030760 f i GuMeshFactory.obj
 0001:0002f790       ?reserveInternal@?$HashBase@PEAVBVHStructure@Gu@physx@@PEAV123@U?$Hash@PEAVBVHStructure@Gu@physx@@@shdfnd@3@UGetKey@?$HashSetBase@PEAVBVHStructure@Gu@physx@@U?$Hash@PEAVBVHStructure@Gu@physx@@@shdfnd@3@VNonTrackingAllocator@53@$00@internal@53@VNonTrackingAllocator@53@$00@internal@shdfnd@physx@@AEAAXI@Z 0000000180030790 f i GuMeshFactory.obj
 0001:0002fcd0       ?reserveInternal@?$HashBase@PEAVConvexMesh@Gu@physx@@PEAV123@U?$Hash@PEAVConvexMesh@Gu@physx@@@shdfnd@3@UGetKey@?$HashSetBase@PEAVConvexMesh@Gu@physx@@U?$Hash@PEAVConvexMesh@Gu@physx@@@shdfnd@3@VNonTrackingAllocator@53@$00@internal@53@VNonTrackingAllocator@53@$00@internal@shdfnd@physx@@AEAAXI@Z 0000000180030cd0 f i GuMeshFactory.obj
 0001:00030210       ?reserveInternal@?$HashBase@PEAVHeightField@Gu@physx@@PEAV123@U?$Hash@PEAVHeightField@Gu@physx@@@shdfnd@3@UGetKey@?$HashSetBase@PEAVHeightField@Gu@physx@@U?$Hash@PEAVHeightField@Gu@physx@@@shdfnd@3@VNonTrackingAllocator@53@$00@internal@53@VNonTrackingAllocator@53@$00@internal@shdfnd@physx@@AEAAXI@Z 0000000180031210 f i GuMeshFactory.obj
 0001:00030750       ?reserveInternal@?$HashBase@PEAVTriangleMesh@Gu@physx@@PEAV123@U?$Hash@PEAVTriangleMesh@Gu@physx@@@shdfnd@3@UGetKey@?$HashSetBase@PEAVTriangleMesh@Gu@physx@@U?$Hash@PEAVTriangleMesh@Gu@physx@@@shdfnd@3@VNonTrackingAllocator@53@$00@internal@53@VNonTrackingAllocator@53@$00@internal@shdfnd@physx@@AEAAXI@Z 0000000180031750 f i GuMeshFactory.obj
 0001:00030c90       ?setMeshFactory@ConvexMesh@Gu@physx@@QEAAXPEAVGuMeshFactory@3@@Z 0000000180031c90 f i GuMeshFactory.obj
 0001:00030cb0       ?setNbTriangles@SourceMesh@Gu@physx@@QEAAXI@Z 0000000180031cb0 f i GuMeshFactory.obj
 0001:00030cd0       ?setNbVertices@SourceMeshBase@Gu@physx@@QEAAXI@Z 0000000180031cd0 f i GuMeshFactory.obj
 0001:00030cf0       ?setPointers@SourceMesh@Gu@physx@@QEAAXPEAVIndTri32@23@PEAVIndTri16@23@PEBVPxVec3@3@@Z 0000000180031cf0 f i GuMeshFactory.obj
 0001:00030d30       ?size@?$Array@PEAVGuMeshFactoryListener@physx@@VNamedAllocator@shdfnd@2@@shdfnd@physx@@QEBAIXZ 0000000180031d30 f i GuMeshFactory.obj
 0001:00030d40       ?size@?$HashBase@PEAVBVHStructure@Gu@physx@@PEAV123@U?$Hash@PEAVBVHStructure@Gu@physx@@@shdfnd@3@UGetKey@?$HashSetBase@PEAVBVHStructure@Gu@physx@@U?$Hash@PEAVBVHStructure@Gu@physx@@@shdfnd@3@VNonTrackingAllocator@53@$00@internal@53@VNonTrackingAllocator@53@$00@internal@shdfnd@physx@@QEBAIXZ 0000000180031d40 f i GuMeshFactory.obj
 0001:00030d50       ?size@?$HashBase@PEAVConvexMesh@Gu@physx@@PEAV123@U?$Hash@PEAVConvexMesh@Gu@physx@@@shdfnd@3@UGetKey@?$HashSetBase@PEAVConvexMesh@Gu@physx@@U?$Hash@PEAVConvexMesh@Gu@physx@@@shdfnd@3@VNonTrackingAllocator@53@$00@internal@53@VNonTrackingAllocator@53@$00@internal@shdfnd@physx@@QEBAIXZ 0000000180031d50 f i GuMeshFactory.obj
 0001:00030d60       ?size@?$HashBase@PEAVHeightField@Gu@physx@@PEAV123@U?$Hash@PEAVHeightField@Gu@physx@@@shdfnd@3@UGetKey@?$HashSetBase@PEAVHeightField@Gu@physx@@U?$Hash@PEAVHeightField@Gu@physx@@@shdfnd@3@VNonTrackingAllocator@53@$00@internal@53@VNonTrackingAllocator@53@$00@internal@shdfnd@physx@@QEBAIXZ 0000000180031d60 f i GuMeshFactory.obj
 0001:00030d70       ?size@?$HashBase@PEAVTriangleMesh@Gu@physx@@PEAV123@U?$Hash@PEAVTriangleMesh@Gu@physx@@@shdfnd@3@UGetKey@?$HashSetBase@PEAVTriangleMesh@Gu@physx@@U?$Hash@PEAVTriangleMesh@Gu@physx@@@shdfnd@3@VNonTrackingAllocator@53@$00@internal@53@VNonTrackingAllocator@53@$00@internal@shdfnd@physx@@QEBAIXZ 0000000180031d70 f i GuMeshFactory.obj
 0001:00030d80       ?size@?$HashSetBase@PEAVBVHStructure@Gu@physx@@U?$Hash@PEAVBVHStructure@Gu@physx@@@shdfnd@3@VNonTrackingAllocator@53@$00@internal@shdfnd@physx@@QEBAIXZ 0000000180031d80 f i GuMeshFactory.obj
 0001:00030da0       ?size@?$HashSetBase@PEAVConvexMesh@Gu@physx@@U?$Hash@PEAVConvexMesh@Gu@physx@@@shdfnd@3@VNonTrackingAllocator@53@$00@internal@shdfnd@physx@@QEBAIXZ 0000000180031da0 f i GuMeshFactory.obj
 0001:00030dc0       ?size@?$HashSetBase@PEAVHeightField@Gu@physx@@U?$Hash@PEAVHeightField@Gu@physx@@@shdfnd@3@VNonTrackingAllocator@53@$00@internal@shdfnd@physx@@QEBAIXZ 0000000180031dc0 f i GuMeshFactory.obj
 0001:00030de0       ?size@?$HashSetBase@PEAVTriangleMesh@Gu@physx@@U?$Hash@PEAVTriangleMesh@Gu@physx@@@shdfnd@3@VNonTrackingAllocator@53@$00@internal@shdfnd@physx@@QEBAIXZ 0000000180031de0 f i GuMeshFactory.obj
 0001:00030e00       ?to16@shdfnd@physx@@YAGI@Z 0000000180031e00 f i GuMeshFactory.obj
 0001:00030e70       ?unlock@?$MutexT@V?$ReflectionAllocator@VMutexImpl@shdfnd@physx@@@shdfnd@physx@@@shdfnd@physx@@QEBAXXZ 0000000180031e70 f i GuMeshFactory.obj
 0001:00030e90       ?getBinaryMetaData@HeightField@Gu@physx@@SAXAEAVPxOutputStream@3@@Z 0000000180031e90 f   GuMetaData.obj
 0001:00031530       ?getBinaryMetaData@BigConvexData@physx@@SAXAEAVPxOutputStream@2@@Z 0000000180032530 f   GuMetaData.obj
 0001:000319e0       ?getBinaryMetaData@ConvexMesh@Gu@physx@@SAXAEAVPxOutputStream@3@@Z 00000001800329e0 f   GuMetaData.obj
 0001:00032420       ?getBinaryMetaData@RTree@Gu@physx@@SAXAEAVPxOutputStream@3@@Z 0000000180033420 f   GuMetaData.obj
 0001:00032ab0       ?getBinaryMetaData@SourceMesh@Gu@physx@@SAXAEAVPxOutputStream@3@@Z 0000000180033ab0 f   GuMetaData.obj
 0001:00032e20       ?getBinaryMetaData@BV4Tree@Gu@physx@@SAXAEAVPxOutputStream@3@@Z 0000000180033e20 f   GuMetaData.obj
 0001:00033530       ?getBinaryMetaData@TriangleMesh@Gu@physx@@SAXAEAVPxOutputStream@3@@Z 0000000180034530 f   GuMetaData.obj
 0001:000345d0       ?getBinaryMetaData@BV4TriangleMesh@Gu@physx@@SAXAEAVPxOutputStream@3@@Z 00000001800355d0 f   GuMetaData.obj
 0001:00034810       ?getBinaryMetaData@RTreeTriangleMesh@Gu@physx@@SAXAEAVPxOutputStream@3@@Z 0000000180035810 f   GuMetaData.obj
 0001:000349c0       ?getBinaryMetaData@MaterialIndicesStruct@physx@@SAXAEAVPxOutputStream@2@@Z 00000001800359c0 f   GuMetaData.obj
 0001:00034cb0       ?getBinaryMetaData@GeometryUnion@Gu@physx@@SAXAEAVPxOutputStream@3@@Z 0000000180035cb0 f   GuMetaData.obj
 0001:000375b0       ??0BigConvexData@physx@@QEAA@W4PxEMPTY@1@@Z 00000001800385b0 f i GuMetaData.obj
 0001:000375c0       ??4BigConvexData@physx@@QEAAAEAV01@AEBV01@@Z 00000001800385c0 f i GuMetaData.obj
 0001:000375f0       ?GetAdjacentVerts@BigConvexData@physx@@QEBAPEBEXZ 00000001800385f0 f i GuMetaData.obj
 0001:00037600       ?GetNbNeighbors@BigConvexData@physx@@QEBAGI@Z 0000000180038600 f i GuMetaData.obj
 0001:00037620       ?GetNbSamples@BigConvexData@physx@@QEBAIXZ 0000000180038620 f i GuMetaData.obj
 0001:00037630       ?GetNbVerts@BigConvexData@physx@@QEBAIXZ 0000000180038630 f i GuMetaData.obj
 0001:00037640       ?GetNeighbors@BigConvexData@physx@@QEBAPEBEI@Z 0000000180038640 f i GuMetaData.obj
 0001:00037670       ?GetOffset@BigConvexData@physx@@QEBAGI@Z 0000000180038670 f i GuMetaData.obj
 0001:00037690       ?GetSubdiv@BigConvexData@physx@@QEBAIXZ 0000000180038690 f i GuMetaData.obj
 0001:000376a0       ?GetValencies@BigConvexData@physx@@QEBAPEBUValency@Gu@2@XZ 00000001800386a0 f i GuMetaData.obj
 0001:000376b0       ?GetValency@BigConvexData@physx@@QEBAGI@Z 00000001800386b0 f i GuMetaData.obj
 0001:0003a350       ?pointConvexDistance@@YA_NAEAVPxVec3@physx@@0AEAMAEBV12@PEBVConvexMesh@Gu@2@AEBVPxMeshScale@2@AEBVPxTransform@2@@Z 000000018003b350 f   GuMTD.obj
 0001:0003edb0       ??$PX_UNUSED@PEAVMeshPersistentContact@Gu@physx@@@@YAXAEBQEAVMeshPersistentContact@Gu@physx@@@Z 000000018003fdb0 f i GuMTD.obj
 0001:0003edc0       ??$PX_UNUSED@VPxGeometry@physx@@@@YAXAEBVPxGeometry@physx@@@Z 000000018003fdc0 f i GuMTD.obj
 0001:0003edd0       ??$getConvex@VCapsuleV@Gu@physx@@@GjkConvexBase@Gu@physx@@QEBAAEBVCapsuleV@12@XZ 000000018003fdd0 f i GuMTD.obj
 0001:0003ede0       ??$getConvex@VConvexHullV@Gu@physx@@@GjkConvexBase@Gu@physx@@QEBAAEBVConvexHullV@12@XZ 000000018003fde0 f i GuMTD.obj
 0001:0003edf0       ??$gjk@U?$LocalConvex@VCapsuleV@Gu@physx@@@Gu@physx@@U?$LocalConvex@VConvexHullV@Gu@physx@@@23@@Gu@physx@@YA?AW4GjkStatus@01@AEBU?$LocalConvex@VCapsuleV@Gu@physx@@@01@AEBU?$LocalConvex@VConvexHullV@Gu@physx@@@01@AEBT__m128@@2AEAT5@333@Z 000000018003fdf0 f i GuMTD.obj
 0001:0003ff30       ??$swap@M@shdfnd@physx@@YAXAEAM0@Z 0000000180040f30 f i GuMTD.obj
 0001:0003ff80       ??0?$LocalConvex@VCapsuleV@Gu@physx@@@Gu@physx@@QEAA@AEBVCapsuleV@12@@Z 0000000180040f80 f i GuMTD.obj
 0001:0003ffc0       ??0?$LocalConvex@VConvexHullV@Gu@physx@@@Gu@physx@@QEAA@AEBVConvexHullV@12@@Z 0000000180040fc0 f i GuMTD.obj
 0001:00040000       ??0?$SupportLocalImpl@VBoxV@Gu@physx@@@Gu@physx@@QEAA@AEBVBoxV@12@AEBVPsTransformV@aos@shdfnd@2@AEBUMat33V@562@2_N@Z 0000000180041000 f i GuMTD.obj
 0001:00040070       ??0?$SupportLocalImpl@VConvexHullNoScaleV@Gu@physx@@@Gu@physx@@QEAA@AEBVConvexHullNoScaleV@12@AEBVPsTransformV@aos@shdfnd@2@AEBUMat33V@562@2_N@Z 0000000180041070 f i GuMTD.obj
 0001:000400e0       ??0?$SupportLocalImpl@VConvexHullV@Gu@physx@@@Gu@physx@@QEAA@AEBVConvexHullV@12@AEBVPsTransformV@aos@shdfnd@2@AEBUMat33V@562@2_N@Z 00000001800410e0 f i GuMTD.obj
 0001:00040150       ??0BoxV@Gu@physx@@QEAA@AEBT__m128@@0@Z 0000000180041150 f i GuMTD.obj
 0001:000401e0       ??0Cache@Gu@physx@@QEAA@XZ 00000001800411e0 f i GuMTD.obj
 0001:00040200       ??0CapsuleV@Gu@physx@@QEAA@AEBT__m128@@00@Z 0000000180041200 f i GuMTD.obj
 0001:00040390       ??0CapsuleV@Gu@physx@@QEAA@AEBT__m128@@0@Z 0000000180041390 f i GuMTD.obj
 0001:00040480       ??0ContactBuffer@Gu@physx@@QEAA@XZ 0000000180041480 f i GuMTD.obj
 0001:000404c0       ??0ContactPoint@Gu@physx@@QEAA@XZ 00000001800414c0 f i GuMTD.obj
 0001:00040510       ??0ConvexHullV@Gu@physx@@QEAA@PEBUConvexHullData@12@AEBT__m128@@11_N@Z 0000000180041510 f i GuMTD.obj
 0001:00040630       ??0ConvexV@Gu@physx@@QEAA@W4Type@ConvexType@12@@Z 0000000180041630 f i GuMTD.obj
 0001:000406a0       ??0ConvexV@Gu@physx@@QEAA@W4Type@ConvexType@12@AEBT__m128@@@Z 00000001800416a0 f i GuMTD.obj
 0001:00040700       ??0GjkConvex@Gu@physx@@QEAA@AEBVConvexV@12@@Z 0000000180041700 f i GuMTD.obj
 0001:00040740       ??0GjkConvexBase@Gu@physx@@QEAA@AEBVConvexV@12@@Z 0000000180041740 f i GuMTD.obj
 0001:00040770       ??0HullPolygonData@Gu@physx@@QEAA@AEBU012@@Z 0000000180041770 f i GuMTD.obj
 0001:000407d0       ??0Mat33V@aos@shdfnd@physx@@QEAA@AEBT__m128@@00@Z 00000001800417d0 f i GuMTD.obj
 0001:00040820       ??0Mat33V@aos@shdfnd@physx@@QEAA@XZ 0000000180041820 f i GuMTD.obj
 0001:00040830       ??0MeshPersistentContact@Gu@physx@@QEAA@XZ 0000000180041830 f i GuMTD.obj
 0001:00040850       ??0MultiplePersistentContactManifold@Gu@physx@@QEAA@XZ 0000000180041850 f i GuMTD.obj
 0001:000408d0       ??0NarrowPhaseParams@Gu@physx@@QEAA@MMM@Z 00000001800418d0 f i GuMTD.obj
 0001:00040920       ??0PersistentContact@Gu@physx@@QEAA@XZ 0000000180041920 f i GuMTD.obj
 0001:00040930       ??0PolygonalBox@Gu@physx@@QEAA@AEBV012@@Z 0000000180041930 f i GuMTD.obj
 0001:000409c0       ??0PolygonalData@Gu@physx@@QEAA@XZ 00000001800419c0 f i GuMTD.obj
 0001:000409e0       ??0PsMatTransformV@aos@shdfnd@physx@@QEAA@AEBVPsTransformV@123@@Z 00000001800419e0 f i GuMTD.obj
 0001:00040a50       ??0PsTransformV@aos@shdfnd@physx@@QEAA@AEBT__m128@@0@Z 0000000180041a50 f i GuMTD.obj
 0001:00040b00       ??0PsTransformV@aos@shdfnd@physx@@QEAA@AEBVPxTransform@3@@Z 0000000180041b00 f i GuMTD.obj
 0001:00040b80       ??0PxBoxGeometry@physx@@QEAA@VPxVec3@1@@Z 0000000180041b80 f i GuMTD.obj
 0001:00040bc0       ??0PxCache@physx@@QEAA@XZ  0000000180041bc0 f i GuMTD.obj
 0001:00040c00       ??0PxSphereGeometry@physx@@QEAA@M@Z 0000000180041c00 f i GuMTD.obj
 0001:00040c40       ??0PxTransform@physx@@QEAA@AEBVPxVec3@1@@Z 0000000180041c40 f i GuMTD.obj
 0001:00040c80       ??0SeparatingAxes@Gu@physx@@QEAA@$$QEAV012@@Z 0000000180041c80 f i GuMTD.obj
 0001:00040ce0       ??0SeparatingAxes@Gu@physx@@QEAA@AEBV012@@Z 0000000180041ce0 f i GuMTD.obj
 0001:00040d40       ??0SeparatingAxes@Gu@physx@@QEAA@XZ 0000000180041d40 f i GuMTD.obj
 0001:00040d90       ??0SinglePersistentContactManifold@Gu@physx@@QEAA@XZ 0000000180041d90 f i GuMTD.obj
 0001:00040de0       ??0SupportLocal@Gu@physx@@QEAA@AEBVPsTransformV@aos@shdfnd@2@AEBUMat33V@452@1_N@Z 0000000180041de0 f i GuMTD.obj
 0001:00040e40       ??1?$LocalConvex@VCapsuleV@Gu@physx@@@Gu@physx@@UEAA@XZ 0000000180041e40 f i GuMTD.obj
 0001:00040e60       ??1?$LocalConvex@VConvexHullV@Gu@physx@@@Gu@physx@@UEAA@XZ 0000000180041e60 f i GuMTD.obj
 0001:00040e80       ??1?$SupportLocalImpl@VBoxV@Gu@physx@@@Gu@physx@@UEAA@XZ 0000000180041e80 f i GuMTD.obj
 0001:00040ea0       ??1?$SupportLocalImpl@VConvexHullNoScaleV@Gu@physx@@@Gu@physx@@UEAA@XZ 0000000180041ea0 f i GuMTD.obj
 0001:00040ec0       ??1?$SupportLocalImpl@VConvexHullV@Gu@physx@@@Gu@physx@@UEAA@XZ 0000000180041ec0 f i GuMTD.obj
 0001:00040ee0       ??1BoxV@Gu@physx@@QEAA@XZ  0000000180041ee0 f i GuMTD.obj
 0001:00040f00       ??1CapsuleV@Gu@physx@@QEAA@XZ 0000000180041f00 f i GuMTD.obj
 0001:00040f20       ??1ConvexHullV@Gu@physx@@QEAA@XZ 0000000180041f20 f i GuMTD.obj
 0001:00040f40       ??1ConvexV@Gu@physx@@IEAA@XZ 0000000180041f40 f i GuMTD.obj
 0001:00040f50       ??1GjkConvex@Gu@physx@@UEAA@XZ 0000000180041f50 f i GuMTD.obj
 0001:00040f70       ??1GjkConvexBase@Gu@physx@@UEAA@XZ 0000000180041f70 f i GuMTD.obj
 0001:00040f90       ??1SupportLocal@Gu@physx@@UEAA@XZ 0000000180041f90 f i GuMTD.obj
 0001:00040fb0       ??4MultiplePersistentContactManifold@Gu@physx@@QEAAAEAV012@$$QEAV012@@Z 0000000180041fb0 f i GuMTD.obj
 0001:000410e0       ??4MultiplePersistentContactManifold@Gu@physx@@QEAAAEAV012@AEBV012@@Z 00000001800420e0 f i GuMTD.obj
 0001:00041110       ??4SeparatingAxes@Gu@physx@@QEAAAEAV012@$$QEAV012@@Z 0000000180042110 f i GuMTD.obj
 0001:00041190       ??4SeparatingAxes@Gu@physx@@QEAAAEAV012@AEBV012@@Z 0000000180042190 f i GuMTD.obj
 0001:00041210       ??_E?$LocalConvex@VCapsuleV@Gu@physx@@@Gu@physx@@UEAAPEAXI@Z 0000000180042210 f i GuMTD.obj
 0001:00041210       ??_G?$LocalConvex@VCapsuleV@Gu@physx@@@Gu@physx@@UEAAPEAXI@Z 0000000180042210 f i GuMTD.obj
 0001:00041250       ??_G?$LocalConvex@VConvexHullV@Gu@physx@@@Gu@physx@@UEAAPEAXI@Z 0000000180042250 f i GuMTD.obj
 0001:00041250       ??_E?$LocalConvex@VConvexHullV@Gu@physx@@@Gu@physx@@UEAAPEAXI@Z 0000000180042250 f i GuMTD.obj
 0001:00041290       ??_G?$SupportLocalImpl@VBoxV@Gu@physx@@@Gu@physx@@UEAAPEAXI@Z 0000000180042290 f i GuMTD.obj
 0001:00041290       ??_E?$SupportLocalImpl@VBoxV@Gu@physx@@@Gu@physx@@UEAAPEAXI@Z 0000000180042290 f i GuMTD.obj
 0001:000412d0       ??_G?$SupportLocalImpl@VConvexHullNoScaleV@Gu@physx@@@Gu@physx@@UEAAPEAXI@Z 00000001800422d0 f i GuMTD.obj
 0001:000412d0       ??_E?$SupportLocalImpl@VConvexHullNoScaleV@Gu@physx@@@Gu@physx@@UEAAPEAXI@Z 00000001800422d0 f i GuMTD.obj
 0001:00041310       ??_E?$SupportLocalImpl@VConvexHullV@Gu@physx@@@Gu@physx@@UEAAPEAXI@Z 0000000180042310 f i GuMTD.obj
 0001:00041310       ??_G?$SupportLocalImpl@VConvexHullV@Gu@physx@@@Gu@physx@@UEAAPEAXI@Z 0000000180042310 f i GuMTD.obj
 0001:00041350       ??_GGjkConvex@Gu@physx@@UEAAPEAXI@Z 0000000180042350 f i GuMTD.obj
 0001:00041350       ??_EGjkConvex@Gu@physx@@UEAAPEAXI@Z 0000000180042350 f i GuMTD.obj
 0001:00041390       ??_EGjkConvexBase@Gu@physx@@UEAAPEAXI@Z 0000000180042390 f i GuMTD.obj
 0001:00041390       ??_GGjkConvexBase@Gu@physx@@UEAAPEAXI@Z 0000000180042390 f i GuMTD.obj
 0001:000413d0       ??_GSupportLocal@Gu@physx@@UEAAPEAXI@Z 00000001800423d0 f i GuMTD.obj
 0001:000413d0       ??_ESupportLocal@Gu@physx@@UEAAPEAXI@Z 00000001800423d0 f i GuMTD.obj
 0001:00041410       ??__G@YAXPEAX0_K1P6APEAX00@Z@Z 0000000180042410 f i GuMTD.obj
 0001:000414a0       ?BAllEqTTTT@aos@shdfnd@physx@@YAIT__m128@@@Z 00000001800424a0 f i GuMTD.obj
 0001:000414e0       ?BAllTrue3_R@internalWindowsSimd@aos@shdfnd@physx@@YAIT__m128@@@Z 00000001800424e0 f i GuMTD.obj
 0001:00041520       ?BAllTrue4_R@internalWindowsSimd@aos@shdfnd@physx@@YAIT__m128@@@Z 0000000180042520 f i GuMTD.obj
 0001:00041560       ?BAnd@aos@shdfnd@physx@@YA?AT__m128@@T4@0@Z 0000000180042560 f i GuMTD.obj
 0001:00041590       ?BFFFF@aos@shdfnd@physx@@YA?AT__m128@@XZ 0000000180042590 f i GuMTD.obj
 0001:000415b0       ?BLoad@aos@shdfnd@physx@@YA?AT__m128@@_N@Z 00000001800425b0 f i GuMTD.obj
 0001:000415e0       ?BOr@aos@shdfnd@physx@@YA?AT__m128@@T4@0@Z 00000001800425e0 f i GuMTD.obj
 0001:00041610       ?BTTTF@aos@shdfnd@physx@@YA?AT__m128@@XZ 0000000180042610 f i GuMTD.obj
 0001:00041650       ?BTTTT@aos@shdfnd@physx@@YA?AT__m128@@XZ 0000000180042650 f i GuMTD.obj
 0001:00041690       ?CalculateBoxMargin@Gu@physx@@YAXAEBT__m128@@AEAM11MM@Z 0000000180042690 f i GuMTD.obj
 0001:00041740       ?CalculateConvexMargin@Gu@physx@@YAXPEBUConvexHullData@12@AEAM11AEBT__m128@@@Z 0000000180042740 f i GuMTD.obj
 0001:00041860       ?ComputeCubemapNearestOffset@physx@@YAIAEBVPxVec3@1@I@Z 0000000180042860 f i GuMTD.obj
 0001:00041940       ?ConstructSkewMatrix@Gu@physx@@YAXAEBT__m128@@0AEAUMat33V@aos@shdfnd@2@1AEAT3@_N@Z 0000000180042940 f i GuMTD.obj
 0001:00041ec0       ?CubemapLookup@physx@@YA?AW4CubeIndex@1@AEBVPxVec3@1@AEAM1@Z 0000000180042ec0 f i GuMTD.obj
 0001:00042060       ?FAbs@aos@shdfnd@physx@@YA?AT__m128@@T4@@Z 0000000180043060 f i GuMTD.obj
 0001:00042100       ?FAdd@aos@shdfnd@physx@@YA?AT__m128@@T4@0@Z 0000000180043100 f i GuMTD.obj
 0001:00042210       ?FAllEq@aos@shdfnd@physx@@YAIT__m128@@0@Z 0000000180043210 f i GuMTD.obj
 0001:00042310       ?FAllGrtr@aos@shdfnd@physx@@YAIT__m128@@0@Z 0000000180043310 f i GuMTD.obj
 0001:00042410       ?FAllGrtrOrEq@aos@shdfnd@physx@@YAIT__m128@@0@Z 0000000180043410 f i GuMTD.obj
 0001:00042510       ?FClamp@aos@shdfnd@physx@@YA?AT__m128@@T4@00@Z 0000000180043510 f i GuMTD.obj
 0001:00042640       ?FDiv@aos@shdfnd@physx@@YA?AT__m128@@T4@0@Z 0000000180043640 f i GuMTD.obj
 0001:00042750       ?FEps@aos@shdfnd@physx@@YA?AT__m128@@XZ 0000000180043750 f i GuMTD.obj
 0001:00042770       ?FIsGrtr@aos@shdfnd@physx@@YA?AT__m128@@T4@0@Z 0000000180043770 f i GuMTD.obj
 0001:00042880       ?FIsGrtrOrEq@aos@shdfnd@physx@@YA?AT__m128@@T4@0@Z 0000000180043880 f i GuMTD.obj
 0001:00042990       ?FMax@aos@shdfnd@physx@@YA?AT__m128@@T4@0@Z 0000000180043990 f i GuMTD.obj
 0001:00042aa0       ?FMax@aos@shdfnd@physx@@YA?AT__m128@@XZ 0000000180043aa0 f i GuMTD.obj
 0001:00042ac0       ?FMin@aos@shdfnd@physx@@YA?AT__m128@@T4@0@Z 0000000180043ac0 f i GuMTD.obj
 0001:00042bd0       ?FMul@aos@shdfnd@physx@@YA?AT__m128@@T4@0@Z 0000000180043bd0 f i GuMTD.obj
 0001:00042ce0       ?FNeg@aos@shdfnd@physx@@YA?AT__m128@@T4@@Z 0000000180043ce0 f i GuMTD.obj
 0001:00042d80       ?FOne@aos@shdfnd@physx@@YA?AT__m128@@XZ 0000000180043d80 f i GuMTD.obj
 0001:00042da0       ?FRecip@aos@shdfnd@physx@@YA?AT__m128@@T4@@Z 0000000180043da0 f i GuMTD.obj
 0001:00042e40       ?FScaleAdd@aos@shdfnd@physx@@YA?AT__m128@@T4@00@Z 0000000180043e40 f i GuMTD.obj
 0001:00043030       ?FSel@aos@shdfnd@physx@@YA?AT__m128@@T4@00@Z 0000000180044030 f i GuMTD.obj
 0001:00043240       ?FStore@aos@shdfnd@physx@@YAXT__m128@@PEIAM@Z 0000000180044240 f i GuMTD.obj
 0001:000432d0       ?FSub@aos@shdfnd@physx@@YA?AT__m128@@T4@0@Z 00000001800442d0 f i GuMTD.obj
 0001:000433e0       ?FZero@aos@shdfnd@physx@@YA?AT__m128@@XZ 00000001800443e0 f i GuMTD.obj
 0001:00043400       ?GJKCPairDoSimplex@Gu@physx@@YA?AT__m128@@PEIAT3@00AEBT3@AEAI@Z 0000000180044400 f i GuMTD.obj
 0001:00043540       ?I4Load@aos@shdfnd@physx@@YA?AT__m128@@H@Z 0000000180044540 f i GuMTD.obj
 0001:00043560       ?Invalidate@PsTransformV@aos@shdfnd@physx@@QEAAXXZ 0000000180044560 f i GuMTD.obj
 0001:000435c0       ?M33Diagonal@aos@shdfnd@physx@@YA?AUMat33V@123@AEBT__m128@@@Z 00000001800445c0 f i GuMTD.obj
 0001:00043700       ?M33Identity@aos@shdfnd@physx@@YA?AUMat33V@123@XZ 0000000180044700 f i GuMTD.obj
 0001:00043750       ?M33MulM33@aos@shdfnd@physx@@YA?AUMat33V@123@AEBU4123@0@Z 0000000180044750 f i GuMTD.obj
 0001:00043810       ?M33MulV3@aos@shdfnd@physx@@YA?AT__m128@@AEBUMat33V@123@T4@@Z 0000000180044810 f i GuMTD.obj
 0001:00043a40       ?M33Trnsps@aos@shdfnd@physx@@YA?AUMat33V@123@AEBU4123@@Z 0000000180044a40 f i GuMTD.obj
 0001:00043ab0       ?M33TrnspsMulV3@aos@shdfnd@physx@@YA?AT__m128@@AEBUMat33V@123@T4@@Z 0000000180044ab0 f i GuMTD.obj
 0001:00043c40       ?PxI32_From_VecI32V@aos@shdfnd@physx@@YAXAEBT__m128@@PEAH@Z 0000000180044c40 f i GuMTD.obj
 0001:00043c60       ?QuatConjugate@aos@shdfnd@physx@@YA?AT__m128@@T4@@Z 0000000180044c60 f i GuMTD.obj
 0001:00043cf0       ?QuatDot@aos@shdfnd@physx@@YA?AT__m128@@T4@0@Z 0000000180044cf0 f i GuMTD.obj
 0001:00043d40       ?QuatIdentity@aos@shdfnd@physx@@YA?AT__m128@@XZ 0000000180044d40 f i GuMTD.obj
 0001:00043d90       ?QuatLength@aos@shdfnd@physx@@YA?AT__m128@@T4@@Z 0000000180044d90 f i GuMTD.obj
 0001:00043dc0       ?QuatMul@aos@shdfnd@physx@@YA?AT__m128@@T4@0@Z 0000000180044dc0 f i GuMTD.obj
 0001:00044130       ?QuatRotate@aos@shdfnd@physx@@YA?AT__m128@@T4@0@Z 0000000180045130 f i GuMTD.obj
 0001:00044410       ?QuatVLoadU@aos@shdfnd@physx@@YA?AT__m128@@PEBM@Z 0000000180045410 f i GuMTD.obj
 0001:00044440       ?QuatVLoadXYZW@aos@shdfnd@physx@@YA?AT__m128@@MMMM@Z 0000000180045440 f i GuMTD.obj
 0001:00044490       ?V3Abs@aos@shdfnd@physx@@YA?AT__m128@@T4@@Z 0000000180045490 f i GuMTD.obj
 0001:00044570       ?V3Add@aos@shdfnd@physx@@YA?AT__m128@@T4@0@Z 0000000180045570 f i GuMTD.obj
 0001:00044680       ?V3AllEq@aos@shdfnd@physx@@YAIT__m128@@0@Z 0000000180045680 f i GuMTD.obj
 0001:000447c0       ?V3Cross@aos@shdfnd@physx@@YA?AT__m128@@AEBUVecCrossV@123@0@Z 00000001800457c0 f i GuMTD.obj
 0001:00044820       ?V3Cross@aos@shdfnd@physx@@YA?AT__m128@@T4@0@Z 0000000180045820 f i GuMTD.obj
 0001:00044a10       ?V3Dot@aos@shdfnd@physx@@YA?AT__m128@@T4@0@Z 0000000180045a10 f i GuMTD.obj
 0001:00044bb0       ?V3ExtractMin@aos@shdfnd@physx@@YA?AT__m128@@T4@@Z 0000000180045bb0 f i GuMTD.obj
 0001:00044ce0       ?V3GetX@aos@shdfnd@physx@@YA?AT__m128@@T4@@Z 0000000180045ce0 f i GuMTD.obj
 0001:00044d70       ?V3GetY@aos@shdfnd@physx@@YA?AT__m128@@T4@@Z 0000000180045d70 f i GuMTD.obj
 0001:00044e00       ?V3GetZ@aos@shdfnd@physx@@YA?AT__m128@@T4@@Z 0000000180045e00 f i GuMTD.obj
 0001:00044e90       ?V3IsGrtr@aos@shdfnd@physx@@YA?AT__m128@@T4@0@Z 0000000180045e90 f i GuMTD.obj
 0001:00044fa0       ?V3Length@aos@shdfnd@physx@@YA?AT__m128@@T4@@Z 0000000180045fa0 f i GuMTD.obj
 0001:00045070       ?V3LoadU@aos@shdfnd@physx@@YA?AT__m128@@AEBVPxVec3@3@@Z 0000000180046070 f i GuMTD.obj
 0001:000450c0       ?V3LoadU_SafeReadW@aos@shdfnd@physx@@YA?AT__m128@@AEBVPxVec3@3@@Z 00000001800460c0 f i GuMTD.obj
 0001:00045100       ?V3Max@aos@shdfnd@physx@@YA?AT__m128@@T4@0@Z 0000000180046100 f i GuMTD.obj
 0001:00045210       ?V3Mul@aos@shdfnd@physx@@YA?AT__m128@@T4@0@Z 0000000180046210 f i GuMTD.obj
 0001:00045320       ?V3Neg@aos@shdfnd@physx@@YA?AT__m128@@T4@@Z 0000000180046320 f i GuMTD.obj
 0001:000453c0       ?V3NegScaleSub@aos@shdfnd@physx@@YA?AT__m128@@T4@00@Z 00000001800463c0 f i GuMTD.obj
 0001:000455b0       ?V3Normalize@aos@shdfnd@physx@@YA?AT__m128@@T4@@Z 00000001800465b0 f i GuMTD.obj
 0001:000456c0       ?V3One@aos@shdfnd@physx@@YA?AT__m128@@XZ 00000001800466c0 f i GuMTD.obj
 0001:000456e0       ?V3PrepareCross@aos@shdfnd@physx@@YA?AUVecCrossV@123@T__m128@@@Z 00000001800466e0 f i GuMTD.obj
 0001:000457e0       ?V3Recip@aos@shdfnd@physx@@YA?AT__m128@@T4@@Z 00000001800467e0 f i GuMTD.obj
 0001:00045920       ?V3Scale@aos@shdfnd@physx@@YA?AT__m128@@T4@0@Z 0000000180046920 f i GuMTD.obj
 0001:00045a30       ?V3ScaleAdd@aos@shdfnd@physx@@YA?AT__m128@@T4@00@Z 0000000180046a30 f i GuMTD.obj
 0001:00045c20       ?V3ScaleInv@aos@shdfnd@physx@@YA?AT__m128@@T4@0@Z 0000000180046c20 f i GuMTD.obj
 0001:00045d30       ?V3Sel@aos@shdfnd@physx@@YA?AT__m128@@T4@00@Z 0000000180046d30 f i GuMTD.obj
 0001:00045e60       ?V3Splat@aos@shdfnd@physx@@YA?AT__m128@@T4@@Z 0000000180046e60 f i GuMTD.obj
 0001:00045f40       ?V3StoreU@aos@shdfnd@physx@@YAXT__m128@@AEAVPxVec3@3@@Z 0000000180046f40 f i GuMTD.obj
 0001:00045fb0       ?V3Sub@aos@shdfnd@physx@@YA?AT__m128@@T4@0@Z 0000000180046fb0 f i GuMTD.obj
 0001:000460c0       ?V3Transpose@aos@shdfnd@physx@@YAXAEAT__m128@@00@Z 00000001800470c0 f i GuMTD.obj
 0001:00046370       ?V3UnitX@aos@shdfnd@physx@@YA?AT__m128@@XZ 0000000180047370 f i GuMTD.obj
 0001:000463c0       ?V3UnitY@aos@shdfnd@physx@@YA?AT__m128@@XZ 00000001800473c0 f i GuMTD.obj
 0001:00046410       ?V3UnitZ@aos@shdfnd@physx@@YA?AT__m128@@XZ 0000000180047410 f i GuMTD.obj
 0001:00046460       ?V3Zero@aos@shdfnd@physx@@YA?AT__m128@@XZ 0000000180047460 f i GuMTD.obj
 0001:00046480       ?V4Dot@aos@shdfnd@physx@@YA?AT__m128@@T4@0@Z 0000000180047480 f i GuMTD.obj
 0001:00046550       ?V4ExtractMax@aos@shdfnd@physx@@YA?AT__m128@@T4@@Z 0000000180047550 f i GuMTD.obj
 0001:00046620       ?V4IsEq@aos@shdfnd@physx@@YA?AT__m128@@T4@0@Z 0000000180047620 f i GuMTD.obj
 0001:00046650       ?V4Length@aos@shdfnd@physx@@YA?AT__m128@@T4@@Z 0000000180047650 f i GuMTD.obj
 0001:000466a0       ?V4LoadXYZW@aos@shdfnd@physx@@YA?AT__m128@@AEBM000@Z 00000001800476a0 f i GuMTD.obj
 0001:00046700       ?V4ReadW@aos@shdfnd@physx@@YAMAEBT__m128@@@Z 0000000180047700 f i GuMTD.obj
 0001:00046710       ?V4ReadX@aos@shdfnd@physx@@YAMAEBT__m128@@@Z 0000000180047710 f i GuMTD.obj
 0001:00046720       ?V4ReadY@aos@shdfnd@physx@@YAMAEBT__m128@@@Z 0000000180047720 f i GuMTD.obj
 0001:00046730       ?V4ReadZ@aos@shdfnd@physx@@YAMAEBT__m128@@@Z 0000000180047730 f i GuMTD.obj
 0001:00046740       ?V4Sel@aos@shdfnd@physx@@YA?AT__m128@@T4@00@Z 0000000180047740 f i GuMTD.obj
 0001:000467a0       ?V4SetW@aos@shdfnd@physx@@YA?AT__m128@@T4@0@Z 00000001800477a0 f i GuMTD.obj
 0001:00046880       ?V4Zero@aos@shdfnd@physx@@YA?AT__m128@@XZ 0000000180047880 f i GuMTD.obj
 0001:000468a0       ?VecI32V_And@aos@shdfnd@physx@@YA?AT__m128@@AEBT4@0@Z 00000001800478a0 f i GuMTD.obj
 0001:000468d0       ?VecI32V_From_BoolV@aos@shdfnd@physx@@YA?AT__m128@@AEBT4@@Z 00000001800478d0 f i GuMTD.obj
 0001:000468e0       ?VecI32V_IsEq@aos@shdfnd@physx@@YA?AT__m128@@AEBT4@0@Z 00000001800478e0 f i GuMTD.obj
 0001:00046980       ?VecI32V_One@aos@shdfnd@physx@@YA?AT__m128@@XZ 0000000180047980 f i GuMTD.obj
 0001:000469a0       ?allElementsEqualBoolV@_VecMathTests@aos@shdfnd@physx@@YA_NT__m128@@0@Z 00000001800479a0 f i GuMTD.obj
 0001:00046a00       ?bruteForceSearch@ConvexHullV@Gu@physx@@QEBAIAEBT__m128@@@Z 0000000180047a00 f i GuMTD.obj
 0001:00046ae0       ?bruteForceSearchMinMax@ConvexHullNoScaleV@Gu@physx@@QEBAXAEBT__m128@@AEAT4@1@Z 0000000180047ae0 f i GuMTD.obj
 0001:00046d00       ?bruteForceSearchMinMax@ConvexHullV@Gu@physx@@QEBAXAEBT__m128@@AEAT4@1@Z 0000000180047d00 f i GuMTD.obj
 0001:00046e40       ?clearManifold@MultiplePersistentContactManifold@Gu@physx@@QEAAXXZ 0000000180047e40 f i GuMTD.obj
 0001:00046ec0       ?clearManifold@SinglePersistentContactManifold@Gu@physx@@QEAAXXZ 0000000180047ec0 f i GuMTD.obj
 0001:00046ee0       ?closestPtPointSegment@Gu@physx@@YA?AT__m128@@PEIAT3@AEAI@Z 0000000180047ee0 f i GuMTD.obj
 0001:00047200       ?closestPtPointTriangle@Gu@physx@@YA?AT__m128@@PEIAT3@PEAT3@1AEAI@Z 0000000180048200 f i GuMTD.obj
 0001:00047640       ?closestPtPointTriangleBaryCentric@Gu@physx@@YA?AT__m128@@AEBT3@00PEIAIAEAIAEAT3@@Z 0000000180048640 f i GuMTD.obj
 0001:00049000       ?computeDirection@Segment@Gu@physx@@QEBA?AVPxVec3@3@XZ 000000018004a000 f i GuMTD.obj
 0001:00049040       ?distance@PxPlane@physx@@QEBAMAEBVPxVec3@2@@Z 000000018004a040 f i GuMTD.obj
 0001:00049070       ?distanceSegmentSegmentSquared@Gu@physx@@YAMAEBVSegment@12@0PEAM1@Z 000000018004a070 f i GuMTD.obj
 0001:00049100       ?doSupport@?$SupportLocalImpl@VBoxV@Gu@physx@@@Gu@physx@@UEBA?AT__m128@@AEBT4@@Z 000000018004a100 f i GuMTD.obj
 0001:00049140       ?doSupport@?$SupportLocalImpl@VBoxV@Gu@physx@@@Gu@physx@@UEBAXAEBT__m128@@AEAT4@1@Z 000000018004a140 f i GuMTD.obj
 0001:00049180       ?doSupport@?$SupportLocalImpl@VConvexHullNoScaleV@Gu@physx@@@Gu@physx@@UEBA?AT__m128@@AEBT4@@Z 000000018004a180 f i GuMTD.obj
 0001:000491c0       ?doSupport@?$SupportLocalImpl@VConvexHullNoScaleV@Gu@physx@@@Gu@physx@@UEBAXAEBT__m128@@AEAT4@1@Z 000000018004a1c0 f i GuMTD.obj
 0001:00049200       ?doSupport@?$SupportLocalImpl@VConvexHullV@Gu@physx@@@Gu@physx@@UEBA?AT__m128@@AEBT4@@Z 000000018004a200 f i GuMTD.obj
 0001:00049240       ?doSupport@?$SupportLocalImpl@VConvexHullV@Gu@physx@@@Gu@physx@@UEBAXAEBT__m128@@AEAT4@1@Z 000000018004a240 f i GuMTD.obj
 0001:00049280       ?doVirtualGetSweepMargin@GjkConvex@Gu@physx@@AEBA?AT__m128@@XZ 000000018004a280 f i GuMTD.obj
 0001:000492b0       ?doVirtualSupport@GjkConvex@Gu@physx@@AEBA?AT__m128@@AEBT4@@Z 000000018004a2b0 f i GuMTD.obj
 0001:000492f0       ?doVirtualSupport@GjkConvex@Gu@physx@@AEBA?AT__m128@@AEBT4@AEAH@Z 000000018004a2f0 f i GuMTD.obj
 0001:00049340       ?doVirtualSupportPoint@GjkConvex@Gu@physx@@AEBA?AT__m128@@H@Z 000000018004a340 f i GuMTD.obj
 0001:00049380       ?getAxes@SeparatingAxes@Gu@physx@@QEBAPEBVPxVec3@3@XZ 000000018004a380 f i GuMTD.obj
 0001:00049390       ?getCenter@?$LocalConvex@VCapsuleV@Gu@physx@@@Gu@physx@@UEBA?AT__m128@@XZ 000000018004a390 f i GuMTD.obj
 0001:000493c0       ?getCenter@?$LocalConvex@VConvexHullV@Gu@physx@@@Gu@physx@@UEBA?AT__m128@@XZ 000000018004a3c0 f i GuMTD.obj
 0001:000493f0       ?getCenter@ConvexV@Gu@physx@@QEBA?AT__m128@@XZ 000000018004a3f0 f i GuMTD.obj
 0001:00049410       ?getClosestPoint@Gu@physx@@YAXPEIBT__m128@@00AEBT3@AEAT3@2I@Z 000000018004a410 f i GuMTD.obj
 0001:00049ac0       ?getConjugate@PxQuat@physx@@QEBA?AV12@XZ 000000018004aac0 f i GuMTD.obj
 0001:00049b40       ?getEmptyManifold@MultiplePersistentContactManifold@Gu@physx@@QEAAPEAVSinglePersistentContactManifold@23@XZ 000000018004ab40 f i GuMTD.obj
 0001:00049b80       ?getIndex@CapsuleV@Gu@physx@@QEBAXT__m128@@AEAH@Z 000000018004ab80 f i GuMTD.obj
 0001:00049bf0       ?getManifold@MultiplePersistentContactManifold@Gu@physx@@QEAAPEAVSinglePersistentContactManifold@23@I@Z 000000018004abf0 f i GuMTD.obj
 0001:00049c70       ?getMargin@ConvexV@Gu@physx@@QEBA?AT__m128@@XZ 000000018004ac70 f i GuMTD.obj
 0001:00049cb0       ?getMargin@GjkConvexBase@Gu@physx@@QEBA?AT__m128@@XZ 000000018004acb0 f i GuMTD.obj
 0001:00049ce0       ?getMinMargin@ConvexV@Gu@physx@@QEBA?AT__m128@@XZ 000000018004ace0 f i GuMTD.obj
 0001:00049d20       ?getMinMargin@GjkConvexBase@Gu@physx@@QEBA?AT__m128@@XZ 000000018004ad20 f i GuMTD.obj
 0001:00049d50       ?getNbPolygonsFast@ConvexMesh@Gu@physx@@QEBAIXZ 000000018004ad50 f i GuMTD.obj
 0001:00049d60       ?getNbVerts@ConvexMesh@Gu@physx@@QEBAIXZ 000000018004ad60 f i GuMTD.obj
 0001:00049d70       ?getNumAxes@SeparatingAxes@Gu@physx@@QEBAIXZ 000000018004ad70 f i GuMTD.obj
 0001:00049d80       ?getPolygons@ConvexMesh@Gu@physx@@QEBAPEBUHullPolygonData@23@XZ 000000018004ad80 f i GuMTD.obj
 0001:00049d90       ?getSweepMargin@?$LocalConvex@VCapsuleV@Gu@physx@@@Gu@physx@@UEBA?AT__m128@@XZ 000000018004ad90 f i GuMTD.obj
 0001:00049dc0       ?getSweepMargin@?$LocalConvex@VConvexHullV@Gu@physx@@@Gu@physx@@UEBA?AT__m128@@XZ 000000018004adc0 f i GuMTD.obj
 0001:00049df0       ?getSweepMargin@CapsuleV@Gu@physx@@QEBA?AT__m128@@XZ 000000018004adf0 f i GuMTD.obj
 0001:00049e20       ?getSweepMargin@ConvexV@Gu@physx@@QEBA?AT__m128@@XZ 000000018004ae20 f i GuMTD.obj
 0001:00049e60       ?getSweepMargin@GjkConvex@Gu@physx@@UEBA?AT__m128@@XZ 000000018004ae60 f i GuMTD.obj
 0001:00049e90       ?getVerts@ConvexMesh@Gu@physx@@QEBAPEBVPxVec3@3@XZ 000000018004ae90 f i GuMTD.obj
 0001:00049eb0       ?hillClimbing@ConvexHullV@Gu@physx@@QEBAIAEBT__m128@@@Z 000000018004aeb0 f i GuMTD.obj
 0001:0004a1f0       ?initialize@MultiplePersistentContactManifold@Gu@physx@@QEAAXXZ 000000018004b1f0 f i GuMTD.obj
 0001:0004a270       ?initialize@SinglePersistentContactManifold@Gu@physx@@QEAAXXZ 000000018004b270 f i GuMTD.obj
 0001:0004a290       ?invalidate@MultiplePersistentContactManifold@Gu@physx@@QEAAIAEBVPsTransformV@aos@shdfnd@3@AEBT__m128@@1@Z 000000018004b290 f i GuMTD.obj
 0001:0004a470       ?invalidate@MultiplePersistentContactManifold@Gu@physx@@QEAAIAEBVPsTransformV@aos@shdfnd@3@AEBT__m128@@@Z 000000018004b470 f i GuMTD.obj
 0001:0004a4c0       ?isAlmostZero@shdfnd@physx@@YA_NAEBVPxVec3@2@@Z 000000018004b4c0 f i GuMTD.obj
 0001:0004a520       ?isEmpty@SinglePersistentContactManifold@Gu@physx@@QEAA_NXZ 000000018004b520 f i GuMTD.obj
 0001:0004a550       ?isFinite@PsTransformV@aos@shdfnd@physx@@QEBA_NXZ 000000018004b550 f i GuMTD.obj
 0001:0004a5a0       ?isFiniteQuatV@aos@shdfnd@physx@@YA_NT__m128@@@Z 000000018004b5a0 f i GuMTD.obj
 0001:0004a5d0       ?isFiniteVec3V@aos@shdfnd@physx@@YA_NT__m128@@@Z 000000018004b5d0 f i GuMTD.obj
 0001:0004a670       ?isFiniteVec4V@aos@shdfnd@physx@@YA_NT__m128@@@Z 000000018004b670 f i GuMTD.obj
 0001:0004a720       ?isMarginEqRadius@ConvexV@Gu@physx@@QEBA?AT__m128@@XZ 000000018004b720 f i GuMTD.obj
 0001:0004a760       ?isMarginEqRadius@GjkConvexBase@Gu@physx@@QEBA?AT__m128@@XZ 000000018004b760 f i GuMTD.obj
 0001:0004a790       ?isSane@PsTransformV@aos@shdfnd@physx@@QEBA_NXZ 000000018004b790 f i GuMTD.obj
 0001:0004a7e0       ?isSane@PxTransform@physx@@QEBA_NXZ 000000018004b7e0 f i GuMTD.obj
 0001:0004a830       ?isSaneQuatV@aos@shdfnd@physx@@YA_NT__m128@@@Z 000000018004b830 f i GuMTD.obj
 0001:0004a9a0       ?isValidFloatV@aos@shdfnd@physx@@YA_NT__m128@@@Z 000000018004b9a0 f i GuMTD.obj
 0001:0004aab0       ?isValidVec3V@aos@shdfnd@physx@@YA_NT__m128@@@Z 000000018004bab0 f i GuMTD.obj
 0001:0004ab10       ?length@Segment@Gu@physx@@QEBAMXZ 000000018004bb10 f i GuMTD.obj
 0001:0004ab50       ?m128_F2I@internalWindowsSimd@aos@shdfnd@physx@@YA?AT__m128i@@T__m128@@@Z 000000018004bb50 f i GuMTD.obj
 0001:0004ab70       ?m128_I2F@internalWindowsSimd@aos@shdfnd@physx@@YA?AT__m128@@T__m128i@@@Z 000000018004bb70 f i GuMTD.obj
 0001:0004ab90       ?maxTransformPositionDelta@MultiplePersistentContactManifold@Gu@physx@@QEAA?AT__m128@@AEBT4@@Z 000000018004bb90 f i GuMTD.obj
 0001:0004ac80       ?maxTransformQuatDelta@MultiplePersistentContactManifold@Gu@physx@@QEAA?AT__m128@@AEBT4@@Z 000000018004bc80 f i GuMTD.obj
 0001:0004ad50       ?maximum@PxVec3@physx@@QEBA?AV12@AEBV12@@Z 000000018004bd50 f i GuMTD.obj
 0001:0004adf0       ?minimum@PxVec3@physx@@QEBA?AV12@AEBV12@@Z 000000018004bdf0 f i GuMTD.obj
 0001:0004ae90       ?populateVerts@?$SupportLocalImpl@VBoxV@Gu@physx@@@Gu@physx@@UEBAXPEBEIPEBVPxVec3@3@PEAT__m128@@@Z 000000018004be90 f i GuMTD.obj
 0001:0004aee0       ?populateVerts@?$SupportLocalImpl@VConvexHullNoScaleV@Gu@physx@@@Gu@physx@@UEBAXPEBEIPEBVPxVec3@3@PEAT__m128@@@Z 000000018004bee0 f i GuMTD.obj
 0001:0004af30       ?populateVerts@?$SupportLocalImpl@VConvexHullV@Gu@physx@@@Gu@physx@@UEBAXPEBEIPEBVPxVec3@3@PEAT__m128@@@Z 000000018004bf30 f i GuMTD.obj
 0001:0004af80       ?populateVerts@BoxV@Gu@physx@@QEBAXPEBEIPEBVPxVec3@3@PEAT__m128@@@Z 000000018004bf80 f i GuMTD.obj
 0001:0004b000       ?populateVerts@ConvexHullNoScaleV@Gu@physx@@QEBAXPEBEIPEBVPxVec3@3@PEAT__m128@@@Z 000000018004c000 f i GuMTD.obj
 0001:0004b080       ?populateVerts@ConvexHullV@Gu@physx@@QEBAXPEBEIPEBVPxVec3@3@PEAT__m128@@@Z 000000018004c080 f i GuMTD.obj
 0001:0004b130       ?reduceManifoldContactsInDifferentPatches@MultiplePersistentContactManifold@Gu@physx@@QEAAIPEAPEAUPCMContactPatch@23@IPEAVMeshPersistentContact@23@IAEBT__m128@@@Z 000000018004c130 f i GuMTD.obj
 0001:0004b380       ?refineContactPatchConnective@MultiplePersistentContactManifold@Gu@physx@@QEAAXPEAPEAUPCMContactPatch@23@IPEAVMeshPersistentContact@23@AEBT__m128@@@Z 000000018004c380 f i GuMTD.obj
 0001:0004b550       ?refreshManifold@MultiplePersistentContactManifold@Gu@physx@@QEAAXAEBVPsMatTransformV@aos@shdfnd@3@AEBT__m128@@1@Z 000000018004c550 f i GuMTD.obj
 0001:0004b7d0       ?reset@ContactBuffer@Gu@physx@@QEAAXXZ 000000018004c7d0 f i GuMTD.obj
 0001:0004b7f0       ?reset@SeparatingAxes@Gu@physx@@QEAAXXZ 000000018004c7f0 f i GuMTD.obj
 0001:0004b810       ?rotate@PsMatTransformV@aos@shdfnd@physx@@QEBA?AT__m128@@AEBT5@@Z 000000018004c810 f i GuMTD.obj
 0001:0004b860       ?rotateInv@PxQuat@physx@@QEBA?BVPxVec3@2@AEBV32@@Z 000000018004c860 f i GuMTD.obj
 0001:0004ba40       ?rotateInv@PxTransform@physx@@QEBA?AVPxVec3@2@AEBV32@@Z 000000018004ca40 f i GuMTD.obj
 0001:0004bab0       ?setRelativeTransform@MultiplePersistentContactManifold@Gu@physx@@QEAAXAEBVPsTransformV@aos@shdfnd@3@@Z 000000018004cab0 f i GuMTD.obj
 0001:0004bad0       ?support@?$LocalConvex@VCapsuleV@Gu@physx@@@Gu@physx@@UEBA?AT__m128@@AEBT4@@Z 000000018004cad0 f i GuMTD.obj
 0001:0004bb10       ?support@?$LocalConvex@VCapsuleV@Gu@physx@@@Gu@physx@@UEBA?AT__m128@@AEBT4@AEAH@Z 000000018004cb10 f i GuMTD.obj
 0001:0004bb60       ?support@?$LocalConvex@VConvexHullV@Gu@physx@@@Gu@physx@@UEBA?AT__m128@@AEBT4@@Z 000000018004cb60 f i GuMTD.obj
 0001:0004bba0       ?support@?$LocalConvex@VConvexHullV@Gu@physx@@@Gu@physx@@UEBA?AT__m128@@AEBT4@AEAH@Z 000000018004cba0 f i GuMTD.obj
 0001:0004bbf0       ?support@GjkConvex@Gu@physx@@UEBA?AT__m128@@AEBT4@@Z 000000018004cbf0 f i GuMTD.obj
 0001:0004bc30       ?support@GjkConvex@Gu@physx@@UEBA?AT__m128@@AEBT4@AEAH@Z 000000018004cc30 f i GuMTD.obj
 0001:0004bc70       ?supportLocal@BoxV@Gu@physx@@QEBA?AT__m128@@AEBT4@@Z 000000018004cc70 f i GuMTD.obj
 0001:0004bd60       ?supportLocal@BoxV@Gu@physx@@QEBAXAEBT__m128@@AEAT4@1@Z 000000018004cd60 f i GuMTD.obj
 0001:0004bed0       ?supportLocal@CapsuleV@Gu@physx@@QEBA?AT__m128@@AEBT4@@Z 000000018004ced0 f i GuMTD.obj
 0001:0004c030       ?supportLocal@CapsuleV@Gu@physx@@QEBA?AT__m128@@AEBT4@AEAH@Z 000000018004d030 f i GuMTD.obj
 0001:0004c1d0       ?supportLocal@ConvexHullNoScaleV@Gu@physx@@QEBA?AT__m128@@AEBT4@@Z 000000018004d1d0 f i GuMTD.obj
 0001:0004c230       ?supportLocal@ConvexHullNoScaleV@Gu@physx@@QEBAXAEBT__m128@@AEAT4@1@Z 000000018004d230 f i GuMTD.obj
 0001:0004c270       ?supportLocal@ConvexHullV@Gu@physx@@QEBA?AT__m128@@AEBT4@@Z 000000018004d270 f i GuMTD.obj
 0001:0004c350       ?supportLocal@ConvexHullV@Gu@physx@@QEBA?AT__m128@@AEBT4@AEAH@Z 000000018004d350 f i GuMTD.obj
 0001:0004c440       ?supportLocal@ConvexHullV@Gu@physx@@QEBAXAEBT__m128@@AEAT4@1@Z 000000018004d440 f i GuMTD.obj
 0001:0004c480       ?supportPoint@?$LocalConvex@VCapsuleV@Gu@physx@@@Gu@physx@@UEBA?AT__m128@@H@Z 000000018004d480 f i GuMTD.obj
 0001:0004c4c0       ?supportPoint@?$LocalConvex@VConvexHullV@Gu@physx@@@Gu@physx@@UEBA?AT__m128@@H@Z 000000018004d4c0 f i GuMTD.obj
 0001:0004c500       ?supportPoint@CapsuleV@Gu@physx@@QEBA?AT__m128@@H@Z 000000018004d500 f i GuMTD.obj
 0001:0004c540       ?supportPoint@ConvexHullV@Gu@physx@@QEBA?AT__m128@@H@Z 000000018004d540 f i GuMTD.obj
 0001:0004c5c0       ?supportPoint@GjkConvex@Gu@physx@@UEBA?AT__m128@@H@Z 000000018004d5c0 f i GuMTD.obj
 0001:0004c600       ?supportVertexIndex@ConvexHullV@Gu@physx@@QEBAIAEBT__m128@@@Z 000000018004d600 f i GuMTD.obj
 0001:0004c650       ?supportVertexMinMax@ConvexHullNoScaleV@Gu@physx@@QEBAXAEBT__m128@@AEAT4@1@Z 000000018004d650 f i GuMTD.obj
 0001:0004c800       ?supportVertexMinMax@ConvexHullV@Gu@physx@@QEBAXAEBT__m128@@AEAT4@1@Z 000000018004d800 f i GuMTD.obj
 0001:0004ca60       ?toBuffer@MultiplePersistentContactManifold@Gu@physx@@QEAAXPEIAE@Z 000000018004da60 f i GuMTD.obj
 0001:0004cdc0       ?transformInv@PsTransformV@aos@shdfnd@physx@@QEBA?AV1234@AEBV1234@@Z 000000018004ddc0 f i GuMTD.obj
 0001:0004cfc0       ?transformInv@PxTransform@physx@@QEBA?AV12@AEBV12@@Z 000000018004dfc0 f i GuMTD.obj
 0001:0004d0d0       ?transformInv@PxTransform@physx@@QEBA?AVPxVec3@2@AEBV32@@Z 000000018004e0d0 f i GuMTD.obj
 0001:0004d1d0       ?getOverlapFuncTable@Gu@physx@@YAPEAY06Q6A_NAEBVPxGeometry@2@AEBVPxTransform@2@01PEAUTriggerCache@12@@ZXZ 000000018004e1d0 f   GuOverlapTests.obj
 0001:0004d1e0       ?registerHeightFields@Gu@physx@@YAXXZ 000000018004e1e0 f   GuOverlapTests.obj
 0001:0004fd70       ??$PX_UNUSED@PEAUTriggerCache@Gu@physx@@@@YAXAEBQEAUTriggerCache@Gu@physx@@@Z 0000000180050d70 f i GuOverlapTests.obj
 0001:0004fd80       ??$getConvex@VBoxV@Gu@physx@@@GjkConvexBase@Gu@physx@@QEBAAEBVBoxV@12@XZ 0000000180050d80 f i GuOverlapTests.obj
 0001:0004fd90       ??$gjk@U?$RelativeConvex@VBoxV@Gu@physx@@@Gu@physx@@U?$LocalConvex@VConvexHullV@Gu@physx@@@23@@Gu@physx@@YA?AW4GjkStatus@01@AEBU?$RelativeConvex@VBoxV@Gu@physx@@@01@AEBU?$LocalConvex@VConvexHullV@Gu@physx@@@01@AEBT__m128@@2AEAT5@333@Z 0000000180050d90 f i GuOverlapTests.obj
 0001:00050ed0       ??$gjk@U?$RelativeConvex@VConvexHullV@Gu@physx@@@Gu@physx@@U?$LocalConvex@VConvexHullV@Gu@physx@@@23@@Gu@physx@@YA?AW4GjkStatus@01@AEBU?$RelativeConvex@VConvexHullV@Gu@physx@@@01@AEBU?$LocalConvex@VConvexHullV@Gu@physx@@@01@AEBT__m128@@2AEAT5@333@Z 0000000180051ed0 f i GuOverlapTests.obj
 0001:00052010       ??0?$RelativeConvex@VBoxV@Gu@physx@@@Gu@physx@@QEAA@AEBVBoxV@12@AEBVPsMatTransformV@aos@shdfnd@2@@Z 0000000180053010 f i GuOverlapTests.obj
 0001:000520b0       ??0?$RelativeConvex@VConvexHullV@Gu@physx@@@Gu@physx@@QEAA@AEBVConvexHullV@12@AEBVPsMatTransformV@aos@shdfnd@2@@Z 00000001800530b0 f i GuOverlapTests.obj
 0001:00052150       ??0Matrix34@Cm@physx@@QEAA@AEBVPxTransform@2@@Z 0000000180053150 f i GuOverlapTests.obj
 0001:000521a0       ??1?$RelativeConvex@VBoxV@Gu@physx@@@Gu@physx@@UEAA@XZ 00000001800531a0 f i GuOverlapTests.obj
 0001:000521c0       ??1?$RelativeConvex@VConvexHullV@Gu@physx@@@Gu@physx@@UEAA@XZ 00000001800531c0 f i GuOverlapTests.obj
 0001:000521e0       ??_G?$RelativeConvex@VBoxV@Gu@physx@@@Gu@physx@@UEAAPEAXI@Z 00000001800531e0 f i GuOverlapTests.obj
 0001:000521e0       ??_E?$RelativeConvex@VBoxV@Gu@physx@@@Gu@physx@@UEAAPEAXI@Z 00000001800531e0 f i GuOverlapTests.obj
 0001:00052220       ??_G?$RelativeConvex@VConvexHullV@Gu@physx@@@Gu@physx@@UEAAPEAXI@Z 0000000180053220 f i GuOverlapTests.obj
 0001:00052220       ??_E?$RelativeConvex@VConvexHullV@Gu@physx@@@Gu@physx@@UEAAPEAXI@Z 0000000180053220 f i GuOverlapTests.obj
 0001:00052260       ?BGetBitMask@aos@shdfnd@physx@@YAIT__m128@@@Z 0000000180053260 f i GuOverlapTests.obj
 0001:00052280       ?getCenter@?$RelativeConvex@VBoxV@Gu@physx@@@Gu@physx@@UEBA?AT__m128@@XZ 0000000180053280 f i GuOverlapTests.obj
 0001:000522d0       ?getCenter@?$RelativeConvex@VConvexHullV@Gu@physx@@@Gu@physx@@UEBA?AT__m128@@XZ 00000001800532d0 f i GuOverlapTests.obj
 0001:00052320       ?getIndex@BoxV@Gu@physx@@QEBAXT__m128@@AEAH@Z 0000000180053320 f i GuOverlapTests.obj
 0001:00052360       ?getInverse@PxTransform@physx@@QEBA?AV12@XZ 0000000180053360 f i GuOverlapTests.obj
 0001:00052400       ?getSamples2@BigConvexRawData@Gu@physx@@QEBAPEBEXZ 0000000180053400 f i GuOverlapTests.obj
 0001:00052420       ?getSweepMargin@?$RelativeConvex@VBoxV@Gu@physx@@@Gu@physx@@UEBA?AT__m128@@XZ 0000000180053420 f i GuOverlapTests.obj
 0001:00052450       ?getSweepMargin@?$RelativeConvex@VConvexHullV@Gu@physx@@@Gu@physx@@UEBA?AT__m128@@XZ 0000000180053450 f i GuOverlapTests.obj
 0001:00052480       ?isNormalized@PxVec3@physx@@QEBA_NXZ 0000000180053480 f i GuOverlapTests.obj
 0001:000524f0       ?multiply@PxVec3@physx@@QEBA?AV12@AEBV12@@Z 00000001800534f0 f i GuOverlapTests.obj
 0001:00052570       ?support@?$RelativeConvex@VBoxV@Gu@physx@@@Gu@physx@@UEBA?AT__m128@@AEBT4@@Z 0000000180053570 f i GuOverlapTests.obj
 0001:000525d0       ?support@?$RelativeConvex@VBoxV@Gu@physx@@@Gu@physx@@UEBA?AT__m128@@AEBT4@AEAH@Z 00000001800535d0 f i GuOverlapTests.obj
 0001:00052640       ?support@?$RelativeConvex@VConvexHullV@Gu@physx@@@Gu@physx@@UEBA?AT__m128@@AEBT4@@Z 0000000180053640 f i GuOverlapTests.obj
 0001:000526a0       ?support@?$RelativeConvex@VConvexHullV@Gu@physx@@@Gu@physx@@UEBA?AT__m128@@AEBT4@AEAH@Z 00000001800536a0 f i GuOverlapTests.obj
 0001:00052710       ?supportLocal@BoxV@Gu@physx@@QEBA?AT__m128@@AEBT4@AEAH@Z 0000000180053710 f i GuOverlapTests.obj
 0001:00052840       ?supportPoint@?$RelativeConvex@VBoxV@Gu@physx@@@Gu@physx@@UEBA?AT__m128@@H@Z 0000000180053840 f i GuOverlapTests.obj
 0001:00052890       ?supportPoint@?$RelativeConvex@VConvexHullV@Gu@physx@@@Gu@physx@@UEBA?AT__m128@@H@Z 0000000180053890 f i GuOverlapTests.obj
 0001:000528e0       ?supportPoint@BoxV@Gu@physx@@QEBA?AT__m128@@H@Z 00000001800538e0 f i GuOverlapTests.obj
 0001:000529a0       ?supportRelative@BoxV@Gu@physx@@QEBA?AT__m128@@AEBT4@AEBVPsMatTransformV@aos@shdfnd@3@1@Z 00000001800539a0 f i GuOverlapTests.obj
 0001:00052a00       ?supportRelative@BoxV@Gu@physx@@QEBA?AT__m128@@AEBT4@AEBVPsMatTransformV@aos@shdfnd@3@1AEAH@Z 0000000180053a00 f i GuOverlapTests.obj
 0001:00052a70       ?supportRelative@ConvexHullV@Gu@physx@@QEBA?AT__m128@@AEBT4@AEBVPsMatTransformV@aos@shdfnd@3@1@Z 0000000180053a70 f i GuOverlapTests.obj
 0001:00052ad0       ?supportRelative@ConvexHullV@Gu@physx@@QEBA?AT__m128@@AEBT4@AEBVPsMatTransformV@aos@shdfnd@3@1AEAH@Z 0000000180053ad0 f i GuOverlapTests.obj
 0001:00052b40       ?transform@PsMatTransformV@aos@shdfnd@physx@@QEBA?AT__m128@@AEBT5@@Z 0000000180053b40 f i GuOverlapTests.obj
 0001:00052bd0       ?transform@PxTransform@physx@@QEBA?AV12@AEBV12@@Z 0000000180053bd0 f i GuOverlapTests.obj
 0001:00052d50       ?getRaycastFuncTable@Gu@physx@@YAAEAY06Q6AIAEBVPxGeometry@2@AEBVPxTransform@2@AEBVPxVec3@2@2MV?$PxFlags@W4Enum@PxHitFlag@physx@@G@2@IPEIAUPxRaycastHit@2@@ZXZ 0000000180053d50 f   GuRaycastTests.obj
 0001:00052e10       ?raycast_box@@YAIAEBVPxGeometry@physx@@AEBVPxTransform@2@AEBVPxVec3@2@2MV?$PxFlags@W4Enum@PxHitFlag@physx@@G@2@IPEIAUPxRaycastHit@2@@Z 0000000180053e10 f   GuRaycastTests.obj
 0001:00053240       ?raycast_sphere@@YAIAEBVPxGeometry@physx@@AEBVPxTransform@2@AEBVPxVec3@2@2MV?$PxFlags@W4Enum@PxHitFlag@physx@@G@2@IPEIAUPxRaycastHit@2@@Z 0000000180054240 f   GuRaycastTests.obj
 0001:000534f0       ?raycast_capsule@@YAIAEBVPxGeometry@physx@@AEBVPxTransform@2@AEBVPxVec3@2@2MV?$PxFlags@W4Enum@PxHitFlag@physx@@G@2@IPEIAUPxRaycastHit@2@@Z 00000001800544f0 f   GuRaycastTests.obj
 0001:000538a0       ?raycast_plane@@YAIAEBVPxGeometry@physx@@AEBVPxTransform@2@AEBVPxVec3@2@2MV?$PxFlags@W4Enum@PxHitFlag@physx@@G@2@IPEIAUPxRaycastHit@2@@Z 00000001800548a0 f   GuRaycastTests.obj
 0001:00053ac0       ?raycast_convexMesh@@YAIAEBVPxGeometry@physx@@AEBVPxTransform@2@AEBVPxVec3@2@2MV?$PxFlags@W4Enum@PxHitFlag@physx@@G@2@IPEIAUPxRaycastHit@2@@Z 0000000180054ac0 f   GuRaycastTests.obj
 0001:00054130       ?raycast_triangleMesh@@YAIAEBVPxGeometry@physx@@AEBVPxTransform@2@AEBVPxVec3@2@2MV?$PxFlags@W4Enum@PxHitFlag@physx@@G@2@IPEIAUPxRaycastHit@2@@Z 0000000180055130 f   GuRaycastTests.obj
 0001:000542b0       ?raycast_heightField@@YAIAEBVPxGeometry@physx@@AEBVPxTransform@2@AEBVPxVec3@2@2MV?$PxFlags@W4Enum@PxHitFlag@physx@@G@2@IPEIAUPxRaycastHit@2@@Z 00000001800552b0 f   GuRaycastTests.obj
 0001:000548e0       ?registerHeightFields_Raycasts@@YAXXZ 00000001800558e0 f   GuRaycastTests.obj
 0001:00054900       ??$PX_UNUSED@PEIAUPxRaycastHit@physx@@@@YAXAEBQEIAUPxRaycastHit@physx@@@Z 0000000180055900 f i GuRaycastTests.obj
 0001:00054910       ??$PX_UNUSED@V?$PxFlags@W4Enum@PxHitFlag@physx@@G@physx@@@@YAXAEBV?$PxFlags@W4Enum@PxHitFlag@physx@@G@physx@@@Z 0000000180055910 f i GuRaycastTests.obj
 0001:00054920       ??$PxMin@H@physx@@YAHHH@Z  0000000180055920 f i GuRaycastTests.obj
 0001:00056bd0       ??Dphysx@@YA?AVMatrix34@Cm@0@AEBVPxMeshScale@0@AEBVPxTransform@0@@Z 0000000180057bd0 f i GuRaycastTests.obj
 0001:00056c70       ?PxSign@physx@@YAMM@Z      0000000180057c70 f i GuRaycastTests.obj
 0001:00056d00       ?ceil@shdfnd@physx@@YAMM@Z 0000000180057d00 f i GuRaycastTests.obj
 0001:00056d20       ?computePoint@Segment@Gu@physx@@QEBAXAEAVPxVec3@3@M@Z 0000000180057d20 f i GuRaycastTests.obj
 0001:00057170       ?floatFloor@shdfnd@physx@@YAMM@Z 0000000180058170 f i GuRaycastTests.obj
 0001:00057190       ?floor@shdfnd@physx@@YAMM@Z 0000000180058190 f i GuRaycastTests.obj
 0001:000571b0       ?getConcreteType@PxBase@physx@@QEBAGXZ 00000001800581b0 f i GuRaycastTests.obj
 0001:000571c0       ?getInverse@PxMeshScale@physx@@QEBA?AV12@XZ 00000001800581c0 f i GuRaycastTests.obj
 0001:00057250       ?getMax@HeightField@Gu@physx@@QEBAIMI@Z 0000000180058250 f i GuRaycastTests.obj
 0001:000572c0       ?getMaxColumn@HeightField@Gu@physx@@QEBAIM@Z 00000001800582c0 f i GuRaycastTests.obj
 0001:00057300       ?getMaxRow@HeightField@Gu@physx@@QEBAIM@Z 0000000180058300 f i GuRaycastTests.obj
 0001:00057340       ?getMin@HeightField@Gu@physx@@QEBAIMI@Z 0000000180058340 f i GuRaycastTests.obj
 0001:000573b0       ?getMinColumn@HeightField@Gu@physx@@QEBAIM@Z 00000001800583b0 f i GuRaycastTests.obj
 0001:000573f0       ?getMinRow@HeightField@Gu@physx@@QEBAIM@Z 00000001800583f0 f i GuRaycastTests.obj
 0001:00057580       ?intersectRayCapsule@Gu@physx@@YA_NAEBVPxVec3@2@000MAEAM@Z 0000000180058580 f i GuRaycastTests.obj
 0001:00057760       ?intersectRayCapsule@Gu@physx@@YA_NAEBVPxVec3@2@0AEBVCapsule@12@AEAM@Z 0000000180058760 f i GuRaycastTests.obj
 0001:000577c0       ?intersectRayPlane@Gu@physx@@YA_NAEBVPxVec3@2@0AEBVPxPlane@2@AEAMPEAV32@@Z 00000001800587c0 f i GuRaycastTests.obj
 0001:00057880       ?intersectRayTriangle@Gu@physx@@YA_NAEBVPxVec3@2@0000AEAM11_NM@Z 0000000180058880 f i GuRaycastTests.obj
 0001:00057c50       ?isSet@?$PxFlags@W4Enum@PxHitFlag@physx@@G@physx@@QEBA_NW4Enum@PxHitFlag@2@@Z 0000000180058c50 f i GuRaycastTests.obj
 0001:00057c90       ?isSet@?$PxFlags@W4Enum@PxMeshGeometryFlag@physx@@E@physx@@QEBA_NW4Enum@PxMeshGeometryFlag@2@@Z 0000000180058c90 f i GuRaycastTests.obj
 0001:00057cd0       ?normalizeSafe@PxVec3@physx@@QEAAMXZ 0000000180058cd0 f i GuRaycastTests.obj
 0001:00058000       ?raycastTriangleMesh@Midphase@Gu@physx@@YAIPEBVTriangleMesh@23@AEBVPxTriangleMeshGeometry@3@AEBVPxTransform@3@AEBVPxVec3@3@3MV?$PxFlags@W4Enum@PxHitFlag@physx@@G@3@IPEIAUPxRaycastHit@3@@Z 0000000180059000 f i GuRaycastTests.obj
 0001:00058130       ?rotateTranspose@Matrix34@Cm@physx@@QEBA?AVPxVec3@3@AEBV43@@Z 0000000180059130 f i GuRaycastTests.obj
 0001:00058170       ?sign@intrinsics@physx@@YAMM@Z 0000000180059170 f i GuRaycastTests.obj
 0001:00058720       ?readChunk@physx@@YAXAEAC000AEAVPxInputStream@1@@Z 0000000180059720 f   GuSerialize.obj
 0001:000587b0       ?readWord@physx@@YAG_NAEAVPxInputStream@1@@Z 00000001800597b0 f   GuSerialize.obj
 0001:00058800       ?readDword@physx@@YAI_NAEAVPxInputStream@1@@Z 0000000180059800 f   GuSerialize.obj
 0001:00058850       ?readFloat@physx@@YAM_NAEAVPxInputStream@1@@Z 0000000180059850 f   GuSerialize.obj
 0001:000588a0       ?writeWord@physx@@YAXG_NAEAVPxOutputStream@1@@Z 00000001800598a0 f   GuSerialize.obj
 0001:000588f0       ?writeDword@physx@@YAXI_NAEAVPxOutputStream@1@@Z 00000001800598f0 f   GuSerialize.obj
 0001:00058940       ?writeFloat@physx@@YAXM_NAEAVPxOutputStream@1@@Z 0000000180059940 f   GuSerialize.obj
 0001:00058990       ?readFloatBuffer@physx@@YA_NPEAMI_NAEAVPxInputStream@1@@Z 0000000180059990 f   GuSerialize.obj
 0001:00058a20       ?writeFloatBuffer@physx@@YAXPEBMI_NAEAVPxOutputStream@1@@Z 0000000180059a20 f   GuSerialize.obj
 0001:00058ae0       ?writeWordBuffer@physx@@YAXPEBGI_NAEAVPxOutputStream@1@@Z 0000000180059ae0 f   GuSerialize.obj
 0001:00058b90       ?readWordBuffer@physx@@YAXPEAGI_NAEAVPxInputStream@1@@Z 0000000180059b90 f   GuSerialize.obj
 0001:00058c20       ?writeHeader@physx@@YA_NCCCCI_NAEAVPxOutputStream@1@@Z 0000000180059c20 f   GuSerialize.obj
 0001:00058cc0       ?readHeader@physx@@YA_NCCCCAEAIAEA_NAEAVPxInputStream@1@@Z 0000000180059cc0 f   GuSerialize.obj
 0001:00058df0       ?computeMaxIndex@physx@@YAIPEBII@Z 0000000180059df0 f   GuSerialize.obj
 0001:00058e60       ?computeMaxIndex@physx@@YAGPEBGI@Z 0000000180059e60 f   GuSerialize.obj
 0001:00058ed0       ?storeIndices@physx@@YAXIIPEBIAEAVPxOutputStream@1@_N@Z 0000000180059ed0 f   GuSerialize.obj
 0001:00058fb0       ?readIndices@physx@@YAXIIPEAIAEAVPxInputStream@1@_N@Z 0000000180059fb0 f   GuSerialize.obj
 0001:00059090       ?WriteHeader@Gu@physx@@YA_NEEEEI_NAEAVPxOutputStream@2@@Z 000000018005a090 f   GuSerialize.obj
 0001:00059130       ?ReadHeader@Gu@physx@@YA_NEEEEAEAIAEA_NAEAVPxInputStream@2@@Z 000000018005a130 f   GuSerialize.obj
 0001:00059260       ?StoreIndices@Gu@physx@@YAXIIPEBIAEAVPxOutputStream@2@_N@Z 000000018005a260 f   GuSerialize.obj
 0001:00059370       ?ReadIndices@Gu@physx@@YAXIIPEAIAEAVPxInputStream@2@_N@Z 000000018005a370 f   GuSerialize.obj
 0001:000594c0       ?StoreIndices@Gu@physx@@YAXGIPEBGAEAVPxOutputStream@2@_N@Z 000000018005a4c0 f   GuSerialize.obj
 0001:00059580       ?ReadIndices@Gu@physx@@YAXGIPEAGAEAVPxInputStream@2@_N@Z 000000018005a580 f   GuSerialize.obj
 0001:00059640       ?ReadDwordBuffer@physx@@YA_NPEAII_NAEAVPxInputStream@1@@Z 000000018005a640 f i GuSerialize.obj
 0001:00059680       ?littleEndian@shdfnd@physx@@YADXZ 000000018005a680 f i GuSerialize.obj
 0001:000596a0       ?readIntBuffer@physx@@YA_NPEAII_NAEAVPxInputStream@1@@Z 000000018005a6a0 f i GuSerialize.obj
 0001:000596e0       ?writeChunk@physx@@YAXCCCCAEAVPxOutputStream@1@@Z 000000018005a6e0 f i GuSerialize.obj
 0001:00059770       ?writeIntBuffer@physx@@YAXPEBII_NAEAVPxOutputStream@1@@Z 000000018005a770 f i GuSerialize.obj
 0001:000598e0       ?computeCapsule_TriangleMeshMTD@Gu@physx@@YA_NAEBVPxTriangleMeshGeometry@2@AEBVPxTransform@2@AEAVCapsuleV@12@M_NAEAUPxSweepHit@2@@Z 000000018005a8e0 f   GuSweepMTD.obj
 0001:0005a380       ?computeCapsule_HeightFieldMTD@Gu@physx@@YA_NAEBVPxHeightFieldGeometry@2@AEBVPxTransform@2@AEAVCapsuleV@12@M_NIAEAUPxSweepHit@2@@Z 000000018005b380 f   GuSweepMTD.obj
 0001:0005ae00       ?computeBox_TriangleMeshMTD@Gu@physx@@YA_NAEBVPxTriangleMeshGeometry@2@AEBVPxTransform@2@AEBVBox@12@1M_NAEAUPxSweepHit@2@@Z 000000018005be00 f   GuSweepMTD.obj
 0001:0005bb80       ?computeBox_HeightFieldMTD@Gu@physx@@YA_NAEBVPxHeightFieldGeometry@2@AEBVPxTransform@2@AEBVBox@12@1M_NIAEAUPxSweepHit@2@@Z 000000018005cb80 f   GuSweepMTD.obj
 0001:0005c910       ?computeConvex_TriangleMeshMTD@Gu@physx@@YA_NAEBVPxTriangleMeshGeometry@2@AEBVPxTransform@2@AEBVPxConvexMeshGeometry@2@1M_NAEAUPxSweepHit@2@@Z 000000018005d910 f   GuSweepMTD.obj
 0001:0005d850       ?computeConvex_HeightFieldMTD@Gu@physx@@YA_NAEBVPxHeightFieldGeometry@2@AEBVPxTransform@2@AEBVPxConvexMeshGeometry@2@1M_NIAEAUPxSweepHit@2@@Z 000000018005e850 f   GuSweepMTD.obj
 0001:0005e790       ?computeSphere_SphereMTD@Gu@physx@@YA_NAEBVSphere@12@0AEAUPxSweepHit@2@@Z 000000018005f790 f   GuSweepMTD.obj
 0001:0005e880       ?computeSphere_CapsuleMTD@Gu@physx@@YA_NAEBVSphere@12@AEBVCapsule@12@AEAUPxSweepHit@2@@Z 000000018005f880 f   GuSweepMTD.obj
 0001:0005e9c0       ?computeCapsule_CapsuleMTD@Gu@physx@@YA_NAEBVCapsule@12@0AEAUPxSweepHit@2@@Z 000000018005f9c0 f   GuSweepMTD.obj
 0001:0005eb10       ?computePlane_CapsuleMTD@Gu@physx@@YA_NAEBVPxPlane@2@AEBVCapsule@12@AEAUPxSweepHit@2@@Z 000000018005fb10 f   GuSweepMTD.obj
 0001:0005ec40       ?computePlane_BoxMTD@Gu@physx@@YA_NAEBVPxPlane@2@AEBVBox@12@AEAUPxSweepHit@2@@Z 000000018005fc40 f   GuSweepMTD.obj
 0001:0005eda0       ?computePlane_ConvexMTD@Gu@physx@@YA_NAEBVPxPlane@2@AEBVPxConvexMeshGeometry@2@AEBVPxTransform@2@AEAUPxSweepHit@2@@Z 000000018005fda0 f   GuSweepMTD.obj
 0001:0005f980       ??0?$Array@IVNamedAllocator@shdfnd@physx@@@shdfnd@physx@@QEAA@AEBVNamedAllocator@12@@Z 0000000180060980 f i GuSweepMTD.obj
 0001:0005f9d0       ??0?$MeshHitCallback@UPxRaycastHit@physx@@@Gu@physx@@QEAA@W4Enum@CallbackMode@12@@Z 00000001800609d0 f i GuSweepMTD.obj
 0001:0005fa00       ??0FastVertex2ShapeScaling@Cm@physx@@QEAA@AEBVPxMeshScale@2@@Z 0000000180060a00 f i GuSweepMTD.obj
 0001:0005fa50       ??0FastVertex2ShapeScaling@Cm@physx@@QEAA@XZ 0000000180060a50 f i GuSweepMTD.obj
 0001:0005fae0       ??0MTDTriangle@@QEAA@XZ    0000000180060ae0 f i GuSweepMTD.obj
 0001:0005fb00       ??0MeshMTDGenerationCallback@@QEAA@AEAV?$Array@IVNamedAllocator@shdfnd@physx@@@shdfnd@physx@@@Z 0000000180060b00 f i GuSweepMTD.obj
 0001:0005fb50       ??0MidPhaseQueryLocalReport@@QEAA@AEAV?$Array@IVNamedAllocator@shdfnd@physx@@@shdfnd@physx@@@Z 0000000180060b50 f i GuSweepMTD.obj
 0001:0005fb90       ??0PsMatTransformV@aos@shdfnd@physx@@QEAA@AEBT__m128@@AEBUMat33V@123@@Z 0000000180060b90 f i GuSweepMTD.obj
 0001:0005fbe0       ??0PxTransform@physx@@QEAA@AEBV01@@Z 0000000180060be0 f i GuSweepMTD.obj
 0001:0005fc30       ??0TriangleV@Gu@physx@@QEAA@XZ 0000000180060c30 f i GuSweepMTD.obj
 0001:0005fc90       ??1?$Array@IVNamedAllocator@shdfnd@physx@@@shdfnd@physx@@QEAA@XZ 0000000180060c90 f i GuSweepMTD.obj
 0001:0005fd00       ??1?$MeshHitCallback@UPxRaycastHit@physx@@@Gu@physx@@UEAA@XZ 0000000180060d00 f i GuSweepMTD.obj
 0001:0005fd20       ??1MTDTriangle@@QEAA@XZ    0000000180060d20 f i GuSweepMTD.obj
 0001:0005fd40       ??1MeshMTDGenerationCallback@@UEAA@XZ 0000000180060d40 f i GuSweepMTD.obj
 0001:0005fd60       ??1MidPhaseQueryLocalReport@@UEAA@XZ 0000000180060d60 f i GuSweepMTD.obj
 0001:0005fd80       ??1TriangleV@Gu@physx@@QEAA@XZ 0000000180060d80 f i GuSweepMTD.obj
 0001:0005fda0       ??A?$Array@IVNamedAllocator@shdfnd@physx@@@shdfnd@physx@@QEAAAEAII@Z 0000000180060da0 f i GuSweepMTD.obj
 0001:0005fe20       ??DFastVertex2ShapeScaling@Cm@physx@@QEBA?AVPxVec3@2@AEBV32@@Z 0000000180060e20 f i GuSweepMTD.obj
 0001:0005fe60       ??DMatrix34@Cm@physx@@QEBA?AV012@AEBV012@@Z 0000000180060e60 f i GuSweepMTD.obj
 0001:0005ff20       ??Dphysx@@YA?AVMatrix34@Cm@0@AEBVPxTransform@0@AEBVPxMeshScale@0@@Z 0000000180060f20 f i GuSweepMTD.obj
 0001:0005ffb0       ??_G?$MeshHitCallback@UPxRaycastHit@physx@@@Gu@physx@@UEAAPEAXI@Z 0000000180060fb0 f i GuSweepMTD.obj
 0001:0005ffb0       ??_E?$MeshHitCallback@UPxRaycastHit@physx@@@Gu@physx@@UEAAPEAXI@Z 0000000180060fb0 f i GuSweepMTD.obj
 0001:0005fff0       ??_GMeshMTDGenerationCallback@@UEAAPEAXI@Z 0000000180060ff0 f i GuSweepMTD.obj
 0001:0005fff0       ??_EMeshMTDGenerationCallback@@UEAAPEAXI@Z 0000000180060ff0 f i GuSweepMTD.obj
 0001:00060030       ??_GMidPhaseQueryLocalReport@@UEAAPEAXI@Z 0000000180061030 f i GuSweepMTD.obj
 0001:00060030       ??_EMidPhaseQueryLocalReport@@UEAAPEAXI@Z 0000000180061030 f i GuSweepMTD.obj
 0001:00060070       ?CalculateMTDBoxMargin@Gu@physx@@YA?AT__m128@@AEBT3@@Z 0000000180061070 f i GuSweepMTD.obj
 0001:00060100       ?CalculateMTDConvexMargin@Gu@physx@@YA?AT__m128@@PEBUConvexHullData@12@AEBT3@@Z 0000000180061100 f i GuSweepMTD.obj
 0001:000601f0       ?QuatTransform@aos@shdfnd@physx@@YA?AT__m128@@T4@00@Z 00000001800611f0 f i GuSweepMTD.obj
 0001:00060500       ?allocate@?$Array@IVNamedAllocator@shdfnd@physx@@@shdfnd@physx@@IEAAPEAII@Z 0000000180061500 f i GuSweepMTD.obj
 0001:00060590       ?begin@?$Array@IVNamedAllocator@shdfnd@physx@@@shdfnd@physx@@QEAAPEAIXZ 0000000180061590 f i GuSweepMTD.obj
 0001:000605a0       ?capacity@?$Array@IVNamedAllocator@shdfnd@physx@@@shdfnd@physx@@QEBAIXZ 00000001800615a0 f i GuSweepMTD.obj
 0001:000605c0       ?capacityIncrement@?$Array@IVNamedAllocator@shdfnd@physx@@@shdfnd@physx@@IEBAIXZ 00000001800615c0 f i GuSweepMTD.obj
 0001:00060600       ?computeWorldTriangle@TriangleMesh@Gu@physx@@QEBAXAEAVPxTriangle@3@IAEBVMatrix34@Cm@3@_NPEIAI3@Z 0000000180061600 f i GuSweepMTD.obj
 0001:000609c0       ?copy@?$Array@IVNamedAllocator@shdfnd@physx@@@shdfnd@physx@@KAXPEAI0PEBI@Z 00000001800619c0 f i GuSweepMTD.obj
 0001:00060a40       ?createDiagonal@PxMat33@physx@@SA?BV12@AEBVPxVec3@2@@Z 0000000180061a40 f i GuSweepMTD.obj
 0001:00060ad0       ?deallocate@?$Array@IVNamedAllocator@shdfnd@physx@@@shdfnd@physx@@IEAAXPEAX@Z 0000000180061ad0 f i GuSweepMTD.obj
 0001:00060b00       ?destroy@?$Array@IVNamedAllocator@shdfnd@physx@@@shdfnd@physx@@KAXPEAI0@Z 0000000180061b00 f i GuSweepMTD.obj
 0001:00060b30       ?empty@?$Array@IVNamedAllocator@shdfnd@physx@@@shdfnd@physx@@QEBA_NXZ 0000000180061b30 f i GuSweepMTD.obj
 0001:00060b60       ?forceSize_Unsafe@?$Array@IVNamedAllocator@shdfnd@physx@@@shdfnd@physx@@QEAAXI@Z 0000000180061b60 f i GuSweepMTD.obj
 0001:00060be0       ?getAdjacencies@TriangleMesh@Gu@physx@@QEBAPEBIXZ 0000000180061be0 f i GuSweepMTD.obj
 0001:00060bf0       ?getConvexEdgeFlags@Gu@physx@@YAEPEBEI@Z 0000000180061bf0 f i GuSweepMTD.obj
 0001:00060c30       ?getDeterminant@PxMat33@physx@@QEBAMXZ 0000000180061c30 f i GuSweepMTD.obj
 0001:00060c70       ?getExtraTrigData@TriangleMesh@Gu@physx@@QEBAPEBEXZ 0000000180061c70 f i GuSweepMTD.obj
 0001:00060c80       ?getInverse@PxMat33@physx@@QEBA?BV12@XZ 0000000180061c80 f i GuSweepMTD.obj
 0001:00060f50       ?getLocalTriangle@TriangleMesh@Gu@physx@@QEBAXAEAVPxTriangle@3@I_N@Z 0000000180061f50 f i GuSweepMTD.obj
 0001:000610f0       ?getTrianglesFast@TriangleMesh@Gu@physx@@QEBAPEBXXZ 00000001800620f0 f i GuSweepMTD.obj
 0001:00061100       ?getVerticesFast@TriangleMesh@Gu@physx@@QEBAPEBVPxVec3@3@XZ 0000000180062100 f i GuSweepMTD.obj
 0001:00061110       ?grow@?$Array@IVNamedAllocator@shdfnd@physx@@@shdfnd@physx@@IEAAXI@Z 0000000180062110 f i GuSweepMTD.obj
 0001:00061190       ?growAndPushBack@?$Array@IVNamedAllocator@shdfnd@physx@@@shdfnd@physx@@IEAAAEAIAEBI@Z 0000000180062190 f i GuSweepMTD.obj
 0001:00061310       ?has16BitIndices@TriangleMesh@Gu@physx@@QEBA_NXZ 0000000180062310 f i GuSweepMTD.obj
 0001:00061340       ?hasNegativeDeterminant@PxMeshScale@physx@@QEBA_NXZ 0000000180062340 f i GuSweepMTD.obj
 0001:00061390       ?init@FastVertex2ShapeScaling@Cm@physx@@QEAAXAEBVPxMeshScale@3@@Z 0000000180062390 f i GuSweepMTD.obj
 0001:000613d0       ?init@FastVertex2ShapeScaling@Cm@physx@@QEAAXAEBVPxVec3@3@AEBVPxQuat@3@@Z 00000001800623d0 f i GuSweepMTD.obj
 0001:00061510       ?intersectOBB@Midphase@Gu@physx@@YAXPEBVTriangleMesh@23@AEBVBox@23@AEAU?$MeshHitCallback@UPxRaycastHit@physx@@@23@_N3@Z 0000000180062510 f i GuSweepMTD.obj
 0001:00061580       ?isInUserMemory@?$Array@IVNamedAllocator@shdfnd@physx@@@shdfnd@physx@@QEBAIXZ 0000000180062580 f i GuSweepMTD.obj
 0001:000615a0       ?normal@TriangleV@Gu@physx@@QEBA?AT__m128@@XZ 00000001800625a0 f i GuSweepMTD.obj
 0001:00061700       ?onEvent@MidPhaseQueryLocalReport@@UEAA_NIPEAI@Z 0000000180062700 f i GuSweepMTD.obj
 0001:00061760       ?processHit@MeshMTDGenerationCallback@@UEAA_NAEBUPxRaycastHit@physx@@AEBVPxVec3@3@11AEAMPEBI@Z 0000000180062760 f i GuSweepMTD.obj
 0001:000617a0       ?pushBack@?$Array@IVNamedAllocator@shdfnd@physx@@@shdfnd@physx@@QEAAAEAIAEBI@Z 00000001800627a0 f i GuSweepMTD.obj
 0001:00061840       ?recreate@?$Array@IVNamedAllocator@shdfnd@physx@@@shdfnd@physx@@IEAAXI@Z 0000000180062840 f i GuSweepMTD.obj
 0001:00061950       ?reserve@?$Array@IVNamedAllocator@shdfnd@physx@@@shdfnd@physx@@QEAAXI@Z 0000000180062950 f i GuSweepMTD.obj
 0001:00061980       ?rotate@PsTransformV@aos@shdfnd@physx@@QEBA?AT__m128@@AEBT5@@Z 0000000180062980 f i GuSweepMTD.obj
 0001:00061a40       ?setCenter@CapsuleV@Gu@physx@@QEAAXAEBT__m128@@@Z 0000000180062a40 f i GuSweepMTD.obj
 0001:00061b50       ?setShapeSpaceCenterofMass@SupportLocal@Gu@physx@@QEAAXAEBT__m128@@@Z 0000000180062b50 f i GuSweepMTD.obj
 0001:00061b70       ?size@?$Array@IVNamedAllocator@shdfnd@physx@@@shdfnd@physx@@QEBAIXZ 0000000180062b70 f i GuSweepMTD.obj
 0001:00061b80       ?transform@PsTransformV@aos@shdfnd@physx@@QEBA?AT__m128@@AEBT5@@Z 0000000180062b80 f i GuSweepMTD.obj
 0001:00061ce0       ?sweepCapsuleTriangles@Gu@physx@@YA_NIPEBVPxTriangle@2@_NAEBVPxCapsuleGeometry@2@AEBVPxTransform@2@AEBVPxVec3@2@MAEAUPxSweepHit@2@PEBIMV?$PxFlags@W4Enum@PxHitFlag@physx@@G@2@@Z 0000000180062ce0 f   GuSweepSharedTests.obj
 0001:000624f0       ?sweepCapsule_SphereGeom@@YA_NAEBVPxGeometry@physx@@AEBVPxTransform@2@AEBVPxCapsuleGeometry@2@1AEBVCapsule@Gu@2@AEBVPxVec3@2@MAEAUPxSweepHit@2@V?$PxFlags@W4Enum@PxHitFlag@physx@@G@2@M@Z 00000001800634f0 f   GuSweepSharedTests.obj
 0001:00062840       ?sweepCapsule_PlaneGeom@@YA_NAEBVPxGeometry@physx@@AEBVPxTransform@2@AEBVPxCapsuleGeometry@2@1AEBVCapsule@Gu@2@AEBVPxVec3@2@MAEAUPxSweepHit@2@V?$PxFlags@W4Enum@PxHitFlag@physx@@G@2@M@Z 0000000180063840 f   GuSweepSharedTests.obj
 0001:00062c20       ?sweepCapsule_CapsuleGeom@@YA_NAEBVPxGeometry@physx@@AEBVPxTransform@2@AEBVPxCapsuleGeometry@2@1AEBVCapsule@Gu@2@AEBVPxVec3@2@MAEAUPxSweepHit@2@V?$PxFlags@W4Enum@PxHitFlag@physx@@G@2@M@Z 0000000180063c20 f   GuSweepSharedTests.obj
 0001:00062eb0       ?sweepCapsule_ConvexGeom@@YA_NAEBVPxGeometry@physx@@AEBVPxTransform@2@AEBVPxCapsuleGeometry@2@1AEBVCapsule@Gu@2@AEBVPxVec3@2@MAEAUPxSweepHit@2@V?$PxFlags@W4Enum@PxHitFlag@physx@@G@2@M@Z 0000000180063eb0 f   GuSweepSharedTests.obj
 0001:00063710       ?sweepBox_PlaneGeom@@YA_NAEBVPxGeometry@physx@@AEBVPxTransform@2@AEBVPxBoxGeometry@2@1AEBVBox@Gu@2@AEBVPxVec3@2@MAEAUPxSweepHit@2@V?$PxFlags@W4Enum@PxHitFlag@physx@@G@2@M@Z 0000000180064710 f   GuSweepSharedTests.obj
 0001:00063a90       ?sweepBox_ConvexGeom@@YA_NAEBVPxGeometry@physx@@AEBVPxTransform@2@AEBVPxBoxGeometry@2@1AEBVBox@Gu@2@AEBVPxVec3@2@MAEAUPxSweepHit@2@V?$PxFlags@W4Enum@PxHitFlag@physx@@G@2@M@Z 0000000180064a90 f   GuSweepSharedTests.obj
 0001:000641a0       ?sweepConvex_SphereGeom@@YA_NAEBVPxGeometry@physx@@AEBVPxTransform@2@AEBVPxConvexMeshGeometry@2@1AEBVPxVec3@2@MAEAUPxSweepHit@2@V?$PxFlags@W4Enum@PxHitFlag@physx@@G@2@M@Z 00000001800651a0 f   GuSweepSharedTests.obj
 0001:00064870       ?sweepConvex_PlaneGeom@@YA_NAEBVPxGeometry@physx@@AEBVPxTransform@2@AEBVPxConvexMeshGeometry@2@1AEBVPxVec3@2@MAEAUPxSweepHit@2@V?$PxFlags@W4Enum@PxHitFlag@physx@@G@2@M@Z 0000000180065870 f   GuSweepSharedTests.obj
 0001:00064c20       ?sweepConvex_CapsuleGeom@@YA_NAEBVPxGeometry@physx@@AEBVPxTransform@2@AEBVPxConvexMeshGeometry@2@1AEBVPxVec3@2@MAEAUPxSweepHit@2@V?$PxFlags@W4Enum@PxHitFlag@physx@@G@2@M@Z 0000000180065c20 f   GuSweepSharedTests.obj
 0001:00064e80       ?sweepConvex_BoxGeom@@YA_NAEBVPxGeometry@physx@@AEBVPxTransform@2@AEBVPxConvexMeshGeometry@2@1AEBVPxVec3@2@MAEAUPxSweepHit@2@V?$PxFlags@W4Enum@PxHitFlag@physx@@G@2@M@Z 0000000180065e80 f   GuSweepSharedTests.obj
 0001:00065100       ?sweepConvex_ConvexGeom@@YA_NAEBVPxGeometry@physx@@AEBVPxTransform@2@AEBVPxConvexMeshGeometry@2@1AEBVPxVec3@2@MAEAUPxSweepHit@2@V?$PxFlags@W4Enum@PxHitFlag@physx@@G@2@M@Z 0000000180066100 f   GuSweepSharedTests.obj
 0001:00065830       ??$PX_UNUSED@T__m128@@@@YAXAEBT__m128@@@Z 0000000180066830 f i GuSweepSharedTests.obj
 0001:00065840       ??$gjkPenetration@U?$LocalConvex@VCapsuleV@Gu@physx@@@Gu@physx@@U?$LocalConvex@VConvexHullV@Gu@physx@@@23@@Gu@physx@@YA?AW4GjkStatus@01@AEBU?$LocalConvex@VCapsuleV@Gu@physx@@@01@AEBU?$LocalConvex@VConvexHullV@Gu@physx@@@01@AEBT__m128@@2_NPEIAE4AEAEAEAUGjkOutput@01@@Z 0000000180066840 f i GuSweepSharedTests.obj
 0001:00066a80       ??$gjkPenetration@U?$RelativeConvex@VBoxV@Gu@physx@@@Gu@physx@@U?$LocalConvex@VConvexHullV@Gu@physx@@@23@@Gu@physx@@YA?AW4GjkStatus@01@AEBU?$RelativeConvex@VBoxV@Gu@physx@@@01@AEBU?$LocalConvex@VConvexHullV@Gu@physx@@@01@AEBT__m128@@2_NPEIAE4AEAEAEAUGjkOutput@01@@Z 0000000180067a80 f i GuSweepSharedTests.obj
 0001:00067cc0       ??$gjkPenetration@U?$RelativeConvex@VConvexHullV@Gu@physx@@@Gu@physx@@U?$LocalConvex@VConvexHullV@Gu@physx@@@23@@Gu@physx@@YA?AW4GjkStatus@01@AEBU?$RelativeConvex@VConvexHullV@Gu@physx@@@01@AEBU?$LocalConvex@VConvexHullV@Gu@physx@@@01@AEBT__m128@@2_NPEIAE4AEAEAEAUGjkOutput@01@@Z 0000000180068cc0 f i GuSweepSharedTests.obj
 0001:00068f00       ??$gjkRaycast@U?$LocalConvex@VCapsuleV@Gu@physx@@@Gu@physx@@U?$LocalConvex@VConvexHullV@Gu@physx@@@23@@Gu@physx@@YA_NAEBU?$LocalConvex@VCapsuleV@Gu@physx@@@01@AEBU?$LocalConvex@VConvexHullV@Gu@physx@@@01@AEBT__m128@@222AEAT4@33M@Z 0000000180069f00 f i GuSweepSharedTests.obj
 0001:0006a390       ??$gjkRaycast@U?$RelativeConvex@VBoxV@Gu@physx@@@Gu@physx@@U?$LocalConvex@VConvexHullV@Gu@physx@@@23@@Gu@physx@@YA_NAEBU?$RelativeConvex@VBoxV@Gu@physx@@@01@AEBU?$LocalConvex@VConvexHullV@Gu@physx@@@01@AEBT__m128@@222AEAT4@33M@Z 000000018006b390 f i GuSweepSharedTests.obj
 0001:0006b820       ??$gjkRaycast@U?$RelativeConvex@VConvexHullV@Gu@physx@@@Gu@physx@@U?$LocalConvex@VConvexHullV@Gu@physx@@@23@@Gu@physx@@YA_NAEBU?$RelativeConvex@VConvexHullV@Gu@physx@@@01@AEBU?$LocalConvex@VConvexHullV@Gu@physx@@@01@AEBT__m128@@222AEAT4@33M@Z 000000018006c820 f i GuSweepSharedTests.obj
 0001:0006ccb0       ??$gjkRaycastPenetration@U?$LocalConvex@VCapsuleV@Gu@physx@@@Gu@physx@@U?$LocalConvex@VConvexHullV@Gu@physx@@@23@@Gu@physx@@YA_NAEBU?$LocalConvex@VCapsuleV@Gu@physx@@@01@AEBU?$LocalConvex@VConvexHullV@Gu@physx@@@01@AEBT__m128@@222AEAT4@33M_N@Z 000000018006dcb0 f i GuSweepSharedTests.obj
 0001:0006d100       ??$gjkRaycastPenetration@U?$RelativeConvex@VBoxV@Gu@physx@@@Gu@physx@@U?$LocalConvex@VConvexHullV@Gu@physx@@@23@@Gu@physx@@YA_NAEBU?$RelativeConvex@VBoxV@Gu@physx@@@01@AEBU?$LocalConvex@VConvexHullV@Gu@physx@@@01@AEBT__m128@@222AEAT4@33M_N@Z 000000018006e100 f i GuSweepSharedTests.obj
 0001:0006d550       ??$gjkRaycastPenetration@U?$RelativeConvex@VConvexHullV@Gu@physx@@@Gu@physx@@U?$LocalConvex@VConvexHullV@Gu@physx@@@23@@Gu@physx@@YA_NAEBU?$RelativeConvex@VConvexHullV@Gu@physx@@@01@AEBU?$LocalConvex@VConvexHullV@Gu@physx@@@01@AEBT__m128@@222AEAT4@33M_N@Z 000000018006e550 f i GuSweepSharedTests.obj
 0001:0006d9a0       ??0BoxPadded@Gu@physx@@QEAA@XZ 000000018006e9a0 f i GuSweepSharedTests.obj
 0001:0006d9c0       ??0GjkOutput@Gu@physx@@QEAA@XZ 000000018006e9c0 f i GuSweepSharedTests.obj
 0001:0006da30       ??0PxPlane@physx@@QEAA@XZ  000000018006ea30 f i GuSweepSharedTests.obj
 0001:0006da50       ??1BoxPadded@Gu@physx@@QEAA@XZ 000000018006ea50 f i GuSweepSharedTests.obj
 0001:0006da70       ??S?$PxFlags@W4Enum@PxHitFlag@physx@@G@physx@@QEBA?AV01@XZ 000000018006ea70 f i GuSweepSharedTests.obj
 0001:0006dab0       ??Sphysx@@YA?AV?$PxFlags@W4Enum@PxHitFlag@physx@@G@0@W4Enum@PxHitFlag@0@@Z 000000018006eab0 f i GuSweepSharedTests.obj
 0001:0006daf0       ??_4?$PxFlags@W4Enum@PxHitFlag@physx@@G@physx@@QEAAAEAV01@AEBV01@@Z 000000018006eaf0 f i GuSweepSharedTests.obj
 0001:0006db20       ?BAllEqFFFF@aos@shdfnd@physx@@YAIT__m128@@@Z 000000018006eb20 f i GuSweepSharedTests.obj
 0001:0006db50       ?GJKCPairDoSimplex@Gu@physx@@YA?AT__m128@@PEIAT3@00PEIAH1AEBT3@AEAI@Z 000000018006eb50 f i GuSweepSharedTests.obj
 0001:0006dcd0       ?QuatRotateInv@aos@shdfnd@physx@@YA?AT__m128@@T4@0@Z 000000018006ecd0 f i GuSweepSharedTests.obj
 0001:0006dfb0       ?V3NormalizeSafe@aos@shdfnd@physx@@YA?AT__m128@@T4@0@Z 000000018006efb0 f i GuSweepSharedTests.obj
 0001:0006e160       ?assignWarmStartValue@Gu@physx@@YAXPEIAE0AEAEPEIAH2I@Z 000000018006f160 f i GuSweepSharedTests.obj
 0001:0006e250       ?closestPtPointTriangle@Gu@physx@@YA?AT__m128@@PEIAT3@PEAT3@1PEIAH2AEAI@Z 000000018006f250 f i GuSweepSharedTests.obj
 0001:0006e760       ?getGjkConvex@?$LocalConvex@VCapsuleV@Gu@physx@@@Gu@physx@@QEBA?AU123@XZ 000000018006f760 f i GuSweepSharedTests.obj
 0001:0006e790       ?getGjkConvex@?$LocalConvex@VConvexHullV@Gu@physx@@@Gu@physx@@QEBA?AU123@XZ 000000018006f790 f i GuSweepSharedTests.obj
 0001:0006e7c0       ?getGjkConvex@?$RelativeConvex@VBoxV@Gu@physx@@@Gu@physx@@QEBA?AU123@XZ 000000018006f7c0 f i GuSweepSharedTests.obj
 0001:0006e800       ?getGjkConvex@?$RelativeConvex@VConvexHullV@Gu@physx@@@Gu@physx@@QEBA?AU123@XZ 000000018006f800 f i GuSweepSharedTests.obj
 0001:0006e840       ?getSweepContactEps@Gu@physx@@YA?AT__m128@@AEBT3@0@Z 000000018006f840 f i GuSweepSharedTests.obj
 0001:0006e900       ?loadTransformU@aos@shdfnd@physx@@YA?AVPsTransformV@123@AEBVPxTransform@3@@Z 000000018006f900 f i GuSweepSharedTests.obj
 0001:0006e970       ?rotateInv@PsTransformV@aos@shdfnd@physx@@QEBA?AT__m128@@AEBT5@@Z 000000018006f970 f i GuSweepSharedTests.obj
 0001:0006ea30       ?to8@shdfnd@physx@@YAEH@Z  000000018006fa30 f i GuSweepSharedTests.obj
 0001:0006eaf0       ?to8@shdfnd@physx@@YAEI@Z  000000018006faf0 f i GuSweepSharedTests.obj
 0001:0006eb60       ?transformPlaneToShapeSpace@FastVertex2ShapeScaling@Cm@physx@@QEBAXAEBVPxVec3@3@MAEAV43@AEAM@Z 000000018006fb60 f i GuSweepSharedTests.obj
 0001:0006ec00       ?getSweepFuncTable@Gu@physx@@YAAEBUGeomSweepFuncs@12@XZ 000000018006fc00 f   GuSweepTests.obj
 0001:0006ec10       ?sweepBoxTriangles@Gu@physx@@YA_NIPEBVPxTriangle@2@_NAEBVPxBoxGeometry@2@AEBVPxTransform@2@AEBVPxVec3@2@MAEAUPxSweepHit@2@PEBIMV?$PxFlags@W4Enum@PxHitFlag@physx@@G@2@@Z 000000018006fc10 f   GuSweepTests.obj
 0001:0006fbf0       ?sweepCapsule_BoxGeom@@YA_NAEBVPxGeometry@physx@@AEBVPxTransform@2@AEBVPxCapsuleGeometry@2@1AEBVCapsule@Gu@2@AEBVPxVec3@2@MAEAUPxSweepHit@2@V?$PxFlags@W4Enum@PxHitFlag@physx@@G@2@M@Z 0000000180070bf0 f   GuSweepTests.obj
 0001:00070470       ?sweepBox_SphereGeom@@YA_NAEBVPxGeometry@physx@@AEBVPxTransform@2@AEBVPxBoxGeometry@2@1AEBVBox@Gu@2@AEBVPxVec3@2@MAEAUPxSweepHit@2@V?$PxFlags@W4Enum@PxHitFlag@physx@@G@2@M@Z 0000000180071470 f   GuSweepTests.obj
 0001:00070bc0       ?sweepBox_CapsuleGeom@@YA_NAEBVPxGeometry@physx@@AEBVPxTransform@2@AEBVPxBoxGeometry@2@1AEBVBox@Gu@2@AEBVPxVec3@2@MAEAUPxSweepHit@2@V?$PxFlags@W4Enum@PxHitFlag@physx@@G@2@M@Z 0000000180071bc0 f   GuSweepTests.obj
 0001:000713c0       ?sweepBox_BoxGeom@@YA_NAEBVPxGeometry@physx@@AEBVPxTransform@2@AEBVPxBoxGeometry@2@1AEBVBox@Gu@2@AEBVPxVec3@2@MAEAUPxSweepHit@2@V?$PxFlags@W4Enum@PxHitFlag@physx@@G@2@M@Z 00000001800723c0 f   GuSweepTests.obj
 0001:00071d10       ?registerHeightFields_Sweeps@@YAXXZ 0000000180072d10 f   GuSweepTests.obj
 0001:00071da0       ??$PX_UNUSED@UPxSweepHit@physx@@@@YAXAEBUPxSweepHit@physx@@@Z 0000000180072da0 f i GuSweepTests.obj
 0001:00071db0       ??$PX_UNUSED@VBox@Gu@physx@@@@YAXAEBVBox@Gu@physx@@@Z 0000000180072db0 f i GuSweepTests.obj
 0001:00071dc0       ??$PX_UNUSED@VCapsule@Gu@physx@@@@YAXAEBVCapsule@Gu@physx@@@Z 0000000180072dc0 f i GuSweepTests.obj
 0001:00071dd0       ??$PX_UNUSED@VPxConvexMeshGeometry@physx@@@@YAXAEBVPxConvexMeshGeometry@physx@@@Z 0000000180072dd0 f i GuSweepTests.obj
 0001:00071de0       ??$getConvex@VTriangleV@Gu@physx@@@GjkConvexBase@Gu@physx@@QEBAAEBVTriangleV@12@XZ 0000000180072de0 f i GuSweepTests.obj
 0001:00071df0       ??$gjkPenetration@U?$LocalConvex@VCapsuleV@Gu@physx@@@Gu@physx@@U?$LocalConvex@VBoxV@Gu@physx@@@23@@Gu@physx@@YA?AW4GjkStatus@01@AEBU?$LocalConvex@VCapsuleV@Gu@physx@@@01@AEBU?$LocalConvex@VBoxV@Gu@physx@@@01@AEBT__m128@@2_NPEIAE4AEAEAEAUGjkOutput@01@@Z 0000000180072df0 f i GuSweepTests.obj
 0001:00073030       ??$gjkPenetration@U?$LocalConvex@VTriangleV@Gu@physx@@@Gu@physx@@U?$LocalConvex@VBoxV@Gu@physx@@@23@@Gu@physx@@YA?AW4GjkStatus@01@AEBU?$LocalConvex@VTriangleV@Gu@physx@@@01@AEBU?$LocalConvex@VBoxV@Gu@physx@@@01@AEBT__m128@@2_NPEIAE4AEAEAEAUGjkOutput@01@@Z 0000000180074030 f i GuSweepTests.obj
 0001:00074270       ??$gjkPenetration@U?$RelativeConvex@VBoxV@Gu@physx@@@Gu@physx@@U?$LocalConvex@VBoxV@Gu@physx@@@23@@Gu@physx@@YA?AW4GjkStatus@01@AEBU?$RelativeConvex@VBoxV@Gu@physx@@@01@AEBU?$LocalConvex@VBoxV@Gu@physx@@@01@AEBT__m128@@2_NPEIAE4AEAEAEAUGjkOutput@01@@Z 0000000180075270 f i GuSweepTests.obj
 0001:000754b0       ??$gjkRaycast@U?$LocalConvex@VCapsuleV@Gu@physx@@@Gu@physx@@U?$LocalConvex@VBoxV@Gu@physx@@@23@@Gu@physx@@YA_NAEBU?$LocalConvex@VCapsuleV@Gu@physx@@@01@AEBU?$LocalConvex@VBoxV@Gu@physx@@@01@AEBT__m128@@222AEAT4@33M@Z 00000001800764b0 f i GuSweepTests.obj
 0001:00076940       ??$gjkRaycast@U?$LocalConvex@VTriangleV@Gu@physx@@@Gu@physx@@U?$LocalConvex@VBoxV@Gu@physx@@@23@@Gu@physx@@YA_NAEBU?$LocalConvex@VTriangleV@Gu@physx@@@01@AEBU?$LocalConvex@VBoxV@Gu@physx@@@01@AEBT__m128@@222AEAT4@33M@Z 0000000180077940 f i GuSweepTests.obj
 0001:00077dd0       ??$gjkRaycast@U?$RelativeConvex@VBoxV@Gu@physx@@@Gu@physx@@U?$LocalConvex@VBoxV@Gu@physx@@@23@@Gu@physx@@YA_NAEBU?$RelativeConvex@VBoxV@Gu@physx@@@01@AEBU?$LocalConvex@VBoxV@Gu@physx@@@01@AEBT__m128@@222AEAT4@33M@Z 0000000180078dd0 f i GuSweepTests.obj
 0001:00079260       ??$gjkRaycastPenetration@U?$LocalConvex@VCapsuleV@Gu@physx@@@Gu@physx@@U?$LocalConvex@VBoxV@Gu@physx@@@23@@Gu@physx@@YA_NAEBU?$LocalConvex@VCapsuleV@Gu@physx@@@01@AEBU?$LocalConvex@VBoxV@Gu@physx@@@01@AEBT__m128@@222AEAT4@33M_N@Z 000000018007a260 f i GuSweepTests.obj
 0001:000796b0       ??$gjkRaycastPenetration@U?$LocalConvex@VTriangleV@Gu@physx@@@Gu@physx@@U?$LocalConvex@VBoxV@Gu@physx@@@23@@Gu@physx@@YA_NAEBU?$LocalConvex@VTriangleV@Gu@physx@@@01@AEBU?$LocalConvex@VBoxV@Gu@physx@@@01@AEBT__m128@@222AEAT4@33M_N@Z 000000018007a6b0 f i GuSweepTests.obj
 0001:00079b00       ??$gjkRaycastPenetration@U?$RelativeConvex@VBoxV@Gu@physx@@@Gu@physx@@U?$LocalConvex@VBoxV@Gu@physx@@@23@@Gu@physx@@YA_NAEBU?$RelativeConvex@VBoxV@Gu@physx@@@01@AEBU?$LocalConvex@VBoxV@Gu@physx@@@01@AEBT__m128@@222AEAT4@33M_N@Z 000000018007ab00 f i GuSweepTests.obj
 0001:00079f50       ??0?$LocalConvex@VBoxV@Gu@physx@@@Gu@physx@@QEAA@AEBVBoxV@12@@Z 000000018007af50 f i GuSweepTests.obj
 0001:00079f90       ??0?$LocalConvex@VTriangleV@Gu@physx@@@Gu@physx@@QEAA@AEBVTriangleV@12@@Z 000000018007af90 f i GuSweepTests.obj
 0001:00079fd0       ??0TriangleV@Gu@physx@@QEAA@AEBT__m128@@00@Z 000000018007afd0 f i GuSweepTests.obj
 0001:0007a180       ??1?$LocalConvex@VBoxV@Gu@physx@@@Gu@physx@@UEAA@XZ 000000018007b180 f i GuSweepTests.obj
 0001:0007a1a0       ??1?$LocalConvex@VTriangleV@Gu@physx@@@Gu@physx@@UEAA@XZ 000000018007b1a0 f i GuSweepTests.obj
 0001:0007a1c0       ??_G?$LocalConvex@VBoxV@Gu@physx@@@Gu@physx@@UEAAPEAXI@Z 000000018007b1c0 f i GuSweepTests.obj
 0001:0007a1c0       ??_E?$LocalConvex@VBoxV@Gu@physx@@@Gu@physx@@UEAAPEAXI@Z 000000018007b1c0 f i GuSweepTests.obj
 0001:0007a200       ??_G?$LocalConvex@VTriangleV@Gu@physx@@@Gu@physx@@UEAAPEAXI@Z 000000018007b200 f i GuSweepTests.obj
 0001:0007a200       ??_E?$LocalConvex@VTriangleV@Gu@physx@@@Gu@physx@@UEAAPEAXI@Z 000000018007b200 f i GuSweepTests.obj
 0001:0007a240       ?V3Merge@aos@shdfnd@physx@@YA?AT__m128@@AEBT4@00@Z 000000018007b240 f i GuSweepTests.obj
 0001:0007a440       ?VecI32V_Sel@aos@shdfnd@physx@@YA?AT__m128@@T4@AEBT4@1@Z 000000018007b440 f i GuSweepTests.obj
 0001:0007a590       ?VecI32V_Two@aos@shdfnd@physx@@YA?AT__m128@@XZ 000000018007b590 f i GuSweepTests.obj
 0001:0007a5b0       ?VecI32V_Zero@aos@shdfnd@physx@@YA?AT__m128@@XZ 000000018007b5b0 f i GuSweepTests.obj
 0001:0007a5d0       ?getCenter@?$LocalConvex@VBoxV@Gu@physx@@@Gu@physx@@UEBA?AT__m128@@XZ 000000018007b5d0 f i GuSweepTests.obj
 0001:0007a600       ?getCenter@?$LocalConvex@VTriangleV@Gu@physx@@@Gu@physx@@UEBA?AT__m128@@XZ 000000018007b600 f i GuSweepTests.obj
 0001:0007a630       ?getGjkConvex@?$LocalConvex@VBoxV@Gu@physx@@@Gu@physx@@QEBA?AU123@XZ 000000018007b630 f i GuSweepTests.obj
 0001:0007a660       ?getGjkConvex@?$LocalConvex@VTriangleV@Gu@physx@@@Gu@physx@@QEBA?AU123@XZ 000000018007b660 f i GuSweepTests.obj
 0001:0007a690       ?getSweepMargin@?$LocalConvex@VBoxV@Gu@physx@@@Gu@physx@@UEBA?AT__m128@@XZ 000000018007b690 f i GuSweepTests.obj
 0001:0007a6c0       ?getSweepMargin@?$LocalConvex@VTriangleV@Gu@physx@@@Gu@physx@@UEBA?AT__m128@@XZ 000000018007b6c0 f i GuSweepTests.obj
 0001:0007a6f0       ?getSweepMargin@TriangleV@Gu@physx@@QEBA?AT__m128@@XZ 000000018007b6f0 f i GuSweepTests.obj
 0001:0007a720       ?support@?$LocalConvex@VBoxV@Gu@physx@@@Gu@physx@@UEBA?AT__m128@@AEBT4@@Z 000000018007b720 f i GuSweepTests.obj
 0001:0007a760       ?support@?$LocalConvex@VBoxV@Gu@physx@@@Gu@physx@@UEBA?AT__m128@@AEBT4@AEAH@Z 000000018007b760 f i GuSweepTests.obj
 0001:0007a7b0       ?support@?$LocalConvex@VTriangleV@Gu@physx@@@Gu@physx@@UEBA?AT__m128@@AEBT4@@Z 000000018007b7b0 f i GuSweepTests.obj
 0001:0007a7f0       ?support@?$LocalConvex@VTriangleV@Gu@physx@@@Gu@physx@@UEBA?AT__m128@@AEBT4@AEAH@Z 000000018007b7f0 f i GuSweepTests.obj
 0001:0007a840       ?supportLocal@TriangleV@Gu@physx@@QEBA?AT__m128@@AEBT4@@Z 000000018007b840 f i GuSweepTests.obj
 0001:0007ab50       ?supportLocal@TriangleV@Gu@physx@@QEBA?AT__m128@@AEBT4@AEAH@Z 000000018007bb50 f i GuSweepTests.obj
 0001:0007af50       ?supportPoint@?$LocalConvex@VBoxV@Gu@physx@@@Gu@physx@@UEBA?AT__m128@@H@Z 000000018007bf50 f i GuSweepTests.obj
 0001:0007af90       ?supportPoint@?$LocalConvex@VTriangleV@Gu@physx@@@Gu@physx@@UEBA?AT__m128@@H@Z 000000018007bf90 f i GuSweepTests.obj
 0001:0007afd0       ?supportPoint@TriangleV@Gu@physx@@QEBA?AT__m128@@H@Z 000000018007bfd0 f i GuSweepTests.obj
 0001:0007b000       ?subdivide@AABBTreeBuildNode@Gu@physx@@QEAAXAEBVAABBTreeBuildParams@23@AEAUBuildStats@23@AEAVNodeAllocator@23@QEAI@Z 000000018007c000 f   GuAABBTreeBuild.obj
 0001:0007b8d0       ?_buildHierarchy@AABBTreeBuildNode@Gu@physx@@QEAAXAEAVAABBTreeBuildParams@23@AEAUBuildStats@23@AEAVNodeAllocator@23@QEAI@Z 000000018007c8d0 f   GuAABBTreeBuild.obj
 0001:0007ba00       ??0NodeAllocator@Gu@physx@@QEAA@XZ 000000018007ca00 f   GuAABBTreeBuild.obj
 0001:0007ba70       ??1NodeAllocator@Gu@physx@@QEAA@XZ 000000018007ca70 f   GuAABBTreeBuild.obj
 0001:0007baa0       ?release@NodeAllocator@Gu@physx@@QEAAXXZ 000000018007caa0 f   GuAABBTreeBuild.obj
 0001:0007bb70       ?init@NodeAllocator@Gu@physx@@QEAAXII@Z 000000018007cb70 f   GuAABBTreeBuild.obj
 0001:0007bd30       ?getBiNode@NodeAllocator@Gu@physx@@QEAAPEAVAABBTreeBuildNode@23@XZ 000000018007cd30 f   GuAABBTreeBuild.obj
 0001:0007bed0       ?initAABBTreeBuild@Gu@physx@@YA_NAEAVAABBTreeBuildParams@12@AEAVNodeAllocator@12@AEAUBuildStats@12@AEAPEAI@Z 000000018007ced0 f   GuAABBTreeBuild.obj
 0001:0007c1c0       ?buildAABBTree@Gu@physx@@YA_NAEAVAABBTreeBuildParams@12@AEAVNodeAllocator@12@AEAUBuildStats@12@AEAPEAI@Z 000000018007d1c0 f   GuAABBTreeBuild.obj
 0001:0007c3f0       ??$?4VNamedAllocator@shdfnd@physx@@@?$Array@USlab@NodeAllocator@Gu@physx@@VNamedAllocator@shdfnd@4@@shdfnd@physx@@QEAAAEAV012@AEBV012@@Z 000000018007d3f0 f i GuAABBTreeBuild.obj
 0001:0007c480       ??$?_UV?$ReflectionAllocator@VAABBTreeBuildNode@Gu@physx@@@shdfnd@physx@@@UserAllocated@shdfnd@physx@@SAPEAX_KV?$ReflectionAllocator@VAABBTreeBuildNode@Gu@physx@@@12@PEBDH@Z 000000018007d480 f i GuAABBTreeBuild.obj
 0001:0007c4c0       ??$copy@VNamedAllocator@shdfnd@physx@@@?$Array@USlab@NodeAllocator@Gu@physx@@VNamedAllocator@shdfnd@4@@shdfnd@physx@@IEAAXAEBV012@@Z 000000018007d4c0 f i GuAABBTreeBuild.obj
 0001:0007c580       ??0?$Array@USlab@NodeAllocator@Gu@physx@@VNamedAllocator@shdfnd@4@@shdfnd@physx@@QEAA@AEBV012@AEBVNamedAllocator@12@@Z 000000018007d580 f i GuAABBTreeBuild.obj
 0001:0007c5c0       ??0?$Array@USlab@NodeAllocator@Gu@physx@@VNamedAllocator@shdfnd@4@@shdfnd@physx@@QEAA@AEBVNamedAllocator@12@@Z 000000018007d5c0 f i GuAABBTreeBuild.obj
 0001:0007c610       ??0?$ReflectionAllocator@VAABBTreeBuildNode@Gu@physx@@@shdfnd@physx@@QEAA@PEBD@Z 000000018007d610 f i GuAABBTreeBuild.obj
 0001:0007c620       ??0AABBTreeBuildNode@Gu@physx@@QEAA@AEBV012@@Z 000000018007d620 f i GuAABBTreeBuild.obj
 0001:0007c680       ??0AABBTreeBuildNode@Gu@physx@@QEAA@XZ 000000018007d680 f i GuAABBTreeBuild.obj
 0001:0007c6a0       ??0AABBTreeBuildParams@Gu@physx@@QEAA@IIPEBVPxBounds3@2@@Z 000000018007d6a0 f i GuAABBTreeBuild.obj
 0001:0007c6f0       ??0BuildStats@Gu@physx@@QEAA@XZ 000000018007d6f0 f i GuAABBTreeBuild.obj
 0001:0007c720       ??0NodeAllocator@Gu@physx@@QEAA@AEBV012@@Z 000000018007d720 f i GuAABBTreeBuild.obj
 0001:0007c7b0       ??0PxBounds3@physx@@QEAA@AEBV01@@Z 000000018007d7b0 f i GuAABBTreeBuild.obj
 0001:0007c800       ??0Slab@NodeAllocator@Gu@physx@@QEAA@PEAVAABBTreeBuildNode@23@II@Z 000000018007d800 f i GuAABBTreeBuild.obj
 0001:0007c840       ??0Slab@NodeAllocator@Gu@physx@@QEAA@XZ 000000018007d840 f i GuAABBTreeBuild.obj
 0001:0007c850       ??1?$Array@USlab@NodeAllocator@Gu@physx@@VNamedAllocator@shdfnd@4@@shdfnd@physx@@QEAA@XZ 000000018007d850 f i GuAABBTreeBuild.obj
 0001:0007c8c0       ??1AABBTreeBuildNode@Gu@physx@@QEAA@XZ 000000018007d8c0 f i GuAABBTreeBuild.obj
 0001:0007c8d0       ??1AABBTreeBuildParams@Gu@physx@@QEAA@XZ 000000018007d8d0 f i GuAABBTreeBuild.obj
 0001:0007c8f0       ??4?$Array@USlab@NodeAllocator@Gu@physx@@VNamedAllocator@shdfnd@4@@shdfnd@physx@@QEAAAEAV012@AEBV012@@Z 000000018007d8f0 f i GuAABBTreeBuild.obj
 0001:0007c920       ??4AABBTreeBuildNode@Gu@physx@@QEAAAEAV012@AEBV012@@Z 000000018007d920 f i GuAABBTreeBuild.obj
 0001:0007c980       ??4AABBTreeBuildParams@Gu@physx@@QEAAAEAV012@AEBV012@@Z 000000018007d980 f i GuAABBTreeBuild.obj
 0001:0007c9b0       ??4BuildStats@Gu@physx@@QEAAAEAU012@$$QEAU012@@Z 000000018007d9b0 f i GuAABBTreeBuild.obj
 0001:0007c9e0       ??4BuildStats@Gu@physx@@QEAAAEAU012@AEBU012@@Z 000000018007d9e0 f i GuAABBTreeBuild.obj
 0001:0007ca00       ??4NodeAllocator@Gu@physx@@QEAAAEAV012@AEBV012@@Z 000000018007da00 f i GuAABBTreeBuild.obj
 0001:0007ca70       ??4PxBounds3@physx@@QEAAAEAV01@AEBV01@@Z 000000018007da70 f i GuAABBTreeBuild.obj
 0001:0007cac0       ??A?$Array@USlab@NodeAllocator@Gu@physx@@VNamedAllocator@shdfnd@4@@shdfnd@physx@@QEAAAEAUSlab@NodeAllocator@Gu@2@I@Z 000000018007dac0 f i GuAABBTreeBuild.obj
 0001:0007cb40       ??_EAABBTreeBuildNode@Gu@physx@@QEAAPEAXI@Z 000000018007db40 f i GuAABBTreeBuild.obj
 0001:0007cc20       ??_FAABBTreeBuildParams@Gu@physx@@QEAAXXZ 000000018007dc20 f i GuAABBTreeBuild.obj
 0001:0007cc50       ?allocate@?$Array@USlab@NodeAllocator@Gu@physx@@VNamedAllocator@shdfnd@4@@shdfnd@physx@@IEAAPEAUSlab@NodeAllocator@Gu@3@I@Z 000000018007dc50 f i GuAABBTreeBuild.obj
 0001:0007cce0       ?allocate@?$ReflectionAllocator@VAABBTreeBuildNode@Gu@physx@@@shdfnd@physx@@QEAAPEAX_KPEBDH@Z 000000018007dce0 f i GuAABBTreeBuild.obj
 0001:0007cd60       ?begin@?$Array@USlab@NodeAllocator@Gu@physx@@VNamedAllocator@shdfnd@4@@shdfnd@physx@@QEBAPEBUSlab@NodeAllocator@Gu@3@XZ 000000018007dd60 f i GuAABBTreeBuild.obj
 0001:0007cd70       ?capacity@?$Array@USlab@NodeAllocator@Gu@physx@@VNamedAllocator@shdfnd@4@@shdfnd@physx@@QEBAIXZ 000000018007dd70 f i GuAABBTreeBuild.obj
 0001:0007cd90       ?capacityIncrement@?$Array@USlab@NodeAllocator@Gu@physx@@VNamedAllocator@shdfnd@4@@shdfnd@physx@@IEBAIXZ 000000018007dd90 f i GuAABBTreeBuild.obj
 0001:0007cdd0       ?clear@?$Array@USlab@NodeAllocator@Gu@physx@@VNamedAllocator@shdfnd@4@@shdfnd@physx@@QEAAXXZ 000000018007ddd0 f i GuAABBTreeBuild.obj
 0001:0007ce10       ?copy@?$Array@USlab@NodeAllocator@Gu@physx@@VNamedAllocator@shdfnd@4@@shdfnd@physx@@KAXPEAUSlab@NodeAllocator@Gu@3@0PEBU4563@@Z 000000018007de10 f i GuAABBTreeBuild.obj
 0001:0007ce90       ?create@?$Array@USlab@NodeAllocator@Gu@physx@@VNamedAllocator@shdfnd@4@@shdfnd@physx@@KAXPEAUSlab@NodeAllocator@Gu@3@0AEBU4563@@Z 000000018007de90 f i GuAABBTreeBuild.obj
 0001:0007cef0       ?deallocate@?$Array@USlab@NodeAllocator@Gu@physx@@VNamedAllocator@shdfnd@4@@shdfnd@physx@@IEAAXPEAX@Z 000000018007def0 f i GuAABBTreeBuild.obj
 0001:0007cf20       ?destroy@?$Array@USlab@NodeAllocator@Gu@physx@@VNamedAllocator@shdfnd@4@@shdfnd@physx@@KAXPEAUSlab@NodeAllocator@Gu@3@0@Z 000000018007df20 f i GuAABBTreeBuild.obj
 0001:0007cf50       ?empty@?$Array@USlab@NodeAllocator@Gu@physx@@VNamedAllocator@shdfnd@4@@shdfnd@physx@@QEBA_NXZ 000000018007df50 f i GuAABBTreeBuild.obj
 0001:0007cf80       ?getAABB@AABBTreeBuildNode@Gu@physx@@QEBAAEBVPxBounds3@3@XZ 000000018007df80 f i GuAABBTreeBuild.obj
 0001:0007cf90       ?getCenter@PxBounds3@physx@@QEBAMI@Z 000000018007df90 f i GuAABBTreeBuild.obj
 0001:0007d010       ?getCount@BuildStats@Gu@physx@@QEBAIXZ 000000018007e010 f i GuAABBTreeBuild.obj
 0001:0007d020       ?getName@?$ReflectionAllocator@VAABBTreeBuildNode@Gu@physx@@@shdfnd@physx@@CAPEBDXZ 000000018007e020 f i GuAABBTreeBuild.obj
 0001:0007d060       ?getNbPrimitives@AABBTreeBuildNode@Gu@physx@@QEBAIXZ 000000018007e060 f i GuAABBTreeBuild.obj
 0001:0007d070       ?getNbRuntimePrimitives@AABBTreeBuildNode@Gu@physx@@QEBAIXZ 000000018007e070 f i GuAABBTreeBuild.obj
 0001:0007d080       ?getNeg@AABBTreeBuildNode@Gu@physx@@QEBAPEBV123@XZ 000000018007e080 f i GuAABBTreeBuild.obj
 0001:0007d0c0       ?getPos@AABBTreeBuildNode@Gu@physx@@QEBAPEBV123@XZ 000000018007e0c0 f i GuAABBTreeBuild.obj
 0001:0007d0d0       ?getPrimitives@AABBTreeBuildNode@Gu@physx@@QEAAPEAIPEAI@Z 000000018007e0d0 f i GuAABBTreeBuild.obj
 0001:0007d0f0       ?getPrimitives@AABBTreeBuildNode@Gu@physx@@QEBAPEBIPEBI@Z 000000018007e0f0 f i GuAABBTreeBuild.obj
 0001:0007d110       ?grow@?$Array@USlab@NodeAllocator@Gu@physx@@VNamedAllocator@shdfnd@4@@shdfnd@physx@@IEAAXI@Z 000000018007e110 f i GuAABBTreeBuild.obj
 0001:0007d190       ?growAndPushBack@?$Array@USlab@NodeAllocator@Gu@physx@@VNamedAllocator@shdfnd@4@@shdfnd@physx@@IEAAAEAUSlab@NodeAllocator@Gu@3@AEBU4563@@Z 000000018007e190 f i GuAABBTreeBuild.obj
 0001:0007d360       ?increaseCount@BuildStats@Gu@physx@@QEAAXI@Z 000000018007e360 f i GuAABBTreeBuild.obj
 0001:0007d380       ?isInUserMemory@?$Array@USlab@NodeAllocator@Gu@physx@@VNamedAllocator@shdfnd@4@@shdfnd@physx@@QEBAIXZ 000000018007e380 f i GuAABBTreeBuild.obj
 0001:0007d3a0       ?isLeaf@AABBTreeBuildNode@Gu@physx@@QEBA_NXZ 000000018007e3a0 f i GuAABBTreeBuild.obj
 0001:0007d3e0       ?largestAxis@shdfnd@physx@@YAIAEBVPxVec3@2@@Z 000000018007e3e0 f i GuAABBTreeBuild.obj
 0001:0007d450       ?pushBack@?$Array@USlab@NodeAllocator@Gu@physx@@VNamedAllocator@shdfnd@4@@shdfnd@physx@@QEAAAEAUSlab@NodeAllocator@Gu@3@AEBU4563@@Z 000000018007e450 f i GuAABBTreeBuild.obj
 0001:0007d500       ?recreate@?$Array@USlab@NodeAllocator@Gu@physx@@VNamedAllocator@shdfnd@4@@shdfnd@physx@@IEAAXI@Z 000000018007e500 f i GuAABBTreeBuild.obj
 0001:0007d620       ?reserve@?$Array@USlab@NodeAllocator@Gu@physx@@VNamedAllocator@shdfnd@4@@shdfnd@physx@@QEAAXI@Z 000000018007e620 f i GuAABBTreeBuild.obj
 0001:0007d650       ?reset@?$Array@USlab@NodeAllocator@Gu@physx@@VNamedAllocator@shdfnd@4@@shdfnd@physx@@QEAAXXZ 000000018007e650 f i GuAABBTreeBuild.obj
 0001:0007d690       ?reset@AABBTreeBuildParams@Gu@physx@@QEAAXXZ 000000018007e690 f i GuAABBTreeBuild.obj
 0001:0007d6f0       ?reset@BuildStats@Gu@physx@@QEAAXXZ 000000018007e6f0 f i GuAABBTreeBuild.obj
 0001:0007d710       ?resize@?$Array@USlab@NodeAllocator@Gu@physx@@VNamedAllocator@shdfnd@4@@shdfnd@physx@@QEAAXIAEBUSlab@NodeAllocator@Gu@3@@Z 000000018007e710 f i GuAABBTreeBuild.obj
 0001:0007d7a0       ?setCount@BuildStats@Gu@physx@@QEAAXI@Z 000000018007e7a0 f i GuAABBTreeBuild.obj
 0001:0007d7c0       ?setNbRunTimePrimitives@AABBTreeBuildNode@Gu@physx@@QEAAXI@Z 000000018007e7c0 f i GuAABBTreeBuild.obj
 0001:0007d7e0       ?shrink@?$Array@USlab@NodeAllocator@Gu@physx@@VNamedAllocator@shdfnd@4@@shdfnd@physx@@QEAAXXZ 000000018007e7e0 f i GuAABBTreeBuild.obj
 0001:0007d800       ?size@?$Array@USlab@NodeAllocator@Gu@physx@@VNamedAllocator@shdfnd@4@@shdfnd@physx@@QEBAIXZ 000000018007e800 f i GuAABBTreeBuild.obj
 0001:0007d810       ??0BVHStructure@Gu@physx@@QEAA@PEAVGuMeshFactory@2@@Z 000000018007e810 f   GuBVHStructure.obj
 0001:0007d8f0       ??0BVHStructure@Gu@physx@@QEAA@PEAVGuMeshFactory@2@AEAUBVHStructureData@12@@Z 000000018007e8f0 f   GuBVHStructure.obj
 0001:0007d9f0       ??1BVHStructure@Gu@physx@@UEAA@XZ 000000018007e9f0 f   GuBVHStructure.obj
 0001:0007da40       ?load@BVHStructure@Gu@physx@@QEAA_NAEAVPxInputStream@3@@Z 000000018007ea40 f   GuBVHStructure.obj
 0001:0007dcd0       ?release@BVHStructure@Gu@physx@@UEAAXXZ 000000018007ecd0 f   GuBVHStructure.obj
 0001:0007dd00       ?raycast@BVHStructure@Gu@physx@@UEBAIAEBVPxVec3@3@0MIPEIAI@Z 000000018007ed00 f   GuBVHStructure.obj
 0001:0007ddf0       ?sweep@BVHStructure@Gu@physx@@UEBAIAEBVPxBounds3@3@AEBVPxVec3@3@MIPEIAI@Z 000000018007edf0 f   GuBVHStructure.obj
 0001:0007def0       ?overlap@BVHStructure@Gu@physx@@UEBAIAEBVPxBounds3@3@IPEIAI@Z 000000018007eef0 f   GuBVHStructure.obj
 0001:0007dfc0       ?onRefCountZero@BVHStructure@Gu@physx@@UEAAXXZ 000000018007efc0 f   GuBVHStructure.obj
 0001:0007e140       ?createVolumes@BVHStructure@Gu@physx@@AEBAXXZ 000000018007f140 f   GuBVHStructure.obj
 0001:0007e6e0       ??$check@$00@RayAABBTest@Gu@physx@@QEBAIT__m128@@0@Z 000000018007f6e0 f i GuBVHStructure.obj
 0001:0007ebf0       ??$check@$0A@@RayAABBTest@Gu@physx@@QEBAIT__m128@@0@Z 000000018007fbf0 f i GuBVHStructure.obj
 0001:0007f100       ??$deletePxBase@VBVHStructure@Gu@physx@@@Cm@physx@@YAXPEAVBVHStructure@Gu@1@@Z 0000000180080100 f i GuBVHStructure.obj
 0001:0007f190       ??0?$Array@PEBUBVHNode@Gu@physx@@V?$InlineAllocator@$0IAA@VNamedAllocator@shdfnd@physx@@@shdfnd@3@@shdfnd@physx@@QEAA@AEBV?$InlineAllocator@$0IAA@VNamedAllocator@shdfnd@physx@@@12@@Z 0000000180080190 f i GuBVHStructure.obj
 0001:0007f1f0       ??0?$InlineAllocator@$0IAA@VNamedAllocator@shdfnd@physx@@@shdfnd@physx@@QEAA@AEBV012@@Z 00000001800801f0 f i GuBVHStructure.obj
 0001:0007f230       ??0?$InlineAllocator@$0IAA@VNamedAllocator@shdfnd@physx@@@shdfnd@physx@@QEAA@AEBVNamedAllocator@12@@Z 0000000180080230 f i GuBVHStructure.obj
 0001:0007f270       ??0?$InlineArray@PEBUBVHNode@Gu@physx@@$0BAA@VNamedAllocator@shdfnd@3@@shdfnd@physx@@QEAA@AEBVNamedAllocator@12@@Z 0000000180080270 f i GuBVHStructure.obj
 0001:0007f300       ??0?$PxFlags@W4Enum@PxBaseFlag@physx@@G@physx@@QEAA@W4Enum@PxBaseFlag@1@@Z 0000000180080300 f i GuBVHStructure.obj
 0001:0007f320       ??0AABBAABBTest@Gu@physx@@QEAA@AEBVPxBounds3@2@@Z 0000000180080320 f i GuBVHStructure.obj
 0001:0007f390       ??0BVHCallback@Gu@physx@@QEAA@PEAII@Z 0000000180080390 f i GuBVHStructure.obj
 0001:0007f3d0       ??0BVHTree@Gu@physx@@QEAA@PEBUBVHNode@12@PEBI@Z 00000001800803d0 f i GuBVHStructure.obj
 0001:0007f400       ??0PxBVHStructure@physx@@IEAA@GV?$PxFlags@W4Enum@PxBaseFlag@physx@@G@1@@Z 0000000180080400 f i GuBVHStructure.obj
 0001:0007f460       ??0PxBase@physx@@IEAA@GV?$PxFlags@W4Enum@PxBaseFlag@physx@@G@1@@Z 0000000180080460 f i GuBVHStructure.obj
 0001:0007f4b0       ??0RayAABBTest@Gu@physx@@QEAA@AEBVPxVec3@2@0M0@Z 00000001800804b0 f i GuBVHStructure.obj
 0001:0007f830       ??0RefCountable@Cm@physx@@QEAA@I@Z 0000000180080830 f i GuBVHStructure.obj
 0001:0007f8c0       ??1?$Array@PEBUBVHNode@Gu@physx@@V?$InlineAllocator@$0IAA@VNamedAllocator@shdfnd@physx@@@shdfnd@3@@shdfnd@physx@@QEAA@XZ 00000001800808c0 f i GuBVHStructure.obj
 0001:0007f940       ??1?$InlineAllocator@$0IAA@VNamedAllocator@shdfnd@physx@@@shdfnd@physx@@QEAA@XZ 0000000180080940 f i GuBVHStructure.obj
 0001:0007f960       ??1?$InlineArray@PEBUBVHNode@Gu@physx@@$0BAA@VNamedAllocator@shdfnd@3@@shdfnd@physx@@QEAA@XZ 0000000180080960 f i GuBVHStructure.obj
 0001:0007f980       ??1PxBVHStructure@physx@@MEAA@XZ 0000000180080980 f i GuBVHStructure.obj
 0001:0007f9b0       ??1RefCountable@Cm@physx@@UEAA@XZ 00000001800809b0 f i GuBVHStructure.obj
 0001:0007f9d0       ??A?$Array@PEBUBVHNode@Gu@physx@@V?$InlineAllocator@$0IAA@VNamedAllocator@shdfnd@physx@@@shdfnd@3@@shdfnd@physx@@QEAAAEAPEBUBVHNode@Gu@2@I@Z 00000001800809d0 f i GuBVHStructure.obj
 0001:0007fa50       ??R?$AABBTreeOverlap@UAABBAABBTest@Gu@physx@@UBVHTree@23@UBVHNode@23@IUBVHCallback@23@@Gu@physx@@QEAA_NPEBIPEBVPxBounds3@2@AEBUBVHTree@12@AEBUAABBAABBTest@12@AEAUBVHCallback@12@@Z 0000000180080a50 f i GuBVHStructure.obj
 0001:0007feb0       ??R?$AABBTreeRaycast@$00UBVHTree@Gu@physx@@UBVHNode@23@IUBVHCallback@23@@Gu@physx@@QEAA_NPEBIPEBVPxBounds3@2@AEBUBVHTree@12@AEBVPxVec3@2@3AEAM3AEAUBVHCallback@12@@Z 0000000180080eb0 f i GuBVHStructure.obj
 0001:000803f0       ??R?$AABBTreeRaycast@$0A@UBVHTree@Gu@physx@@UBVHNode@23@IUBVHCallback@23@@Gu@physx@@QEAA_NPEBIPEBVPxBounds3@2@AEBUBVHTree@12@AEBVPxVec3@2@3AEAM3AEAUBVHCallback@12@@Z 00000001800813f0 f i GuBVHStructure.obj
 0001:00080930       ??RAABBAABBTest@Gu@physx@@QEBAHT__m128@@0@Z 0000000180081930 f i GuBVHStructure.obj
 0001:00080a10       ??Uphysx@@YA?AV?$PxFlags@W4Enum@PxBaseFlag@physx@@G@0@W4Enum@PxBaseFlag@0@0@Z 0000000180081a10 f i GuBVHStructure.obj
 0001:00080a60       ??_5?$PxFlags@W4Enum@PxBaseFlag@physx@@G@physx@@QEAAAEAV01@W4Enum@PxBaseFlag@1@@Z 0000000180081a60 f i GuBVHStructure.obj
 0001:00080a88       ??_EBVHStructure@Gu@physx@@WBA@EAAPEAXI@Z 0000000180081a88 f i GuBVHStructure.obj
 0001:00080aa0       ??_EBVHStructure@Gu@physx@@UEAAPEAXI@Z 0000000180081aa0 f i GuBVHStructure.obj
 0001:00080aa0       ??_GBVHStructure@Gu@physx@@UEAAPEAXI@Z 0000000180081aa0 f i GuBVHStructure.obj
 0001:00080b00       ??_GPxBVHStructure@physx@@MEAAPEAXI@Z 0000000180081b00 f i GuBVHStructure.obj
 0001:00080b00       ??_EPxBVHStructure@physx@@MEAAPEAXI@Z 0000000180081b00 f i GuBVHStructure.obj
 0001:00080b40       ??_ERefCountable@Cm@physx@@UEAAPEAXI@Z 0000000180081b40 f i GuBVHStructure.obj
 0001:00080b40       ??_GRefCountable@Cm@physx@@UEAAPEAXI@Z 0000000180081b40 f i GuBVHStructure.obj
 0001:00080b80       ?V3AllGrtrOrEq@aos@shdfnd@physx@@YAIT__m128@@0@Z 0000000180081b80 f i GuBVHStructure.obj
 0001:00080cc0       ?V3IsGrtrOrEq@aos@shdfnd@physx@@YA?AT__m128@@T4@0@Z 0000000180081cc0 f i GuBVHStructure.obj
 0001:00080dd0       ?V3Min@aos@shdfnd@physx@@YA?AT__m128@@T4@0@Z 0000000180081dd0 f i GuBVHStructure.obj
 0001:00080ee0       ?V3MulAdd@aos@shdfnd@physx@@YA?AT__m128@@T4@00@Z 0000000180081ee0 f i GuBVHStructure.obj
 0001:000810d0       ?V3NegMulSub@aos@shdfnd@physx@@YA?AT__m128@@T4@00@Z 00000001800820d0 f i GuBVHStructure.obj
 0001:000812c0       ?V3PermYZX@aos@shdfnd@physx@@YA?AT__m128@@T4@@Z 00000001800822c0 f i GuBVHStructure.obj
 0001:00081350       ?V4IsGrtrOrEq@aos@shdfnd@physx@@YA?AT__m128@@T4@0@Z 0000000180082350 f i GuBVHStructure.obj
 0001:00081380       ?allocate@?$Array@PEBUBVHNode@Gu@physx@@V?$InlineAllocator@$0IAA@VNamedAllocator@shdfnd@physx@@@shdfnd@3@@shdfnd@physx@@IEAAPEAPEBUBVHNode@Gu@3@I@Z 0000000180082380 f i GuBVHStructure.obj
 0001:00081410       ?allocate@?$InlineAllocator@$0IAA@VNamedAllocator@shdfnd@physx@@@shdfnd@physx@@QEAAPEAXIPEBDH@Z 0000000180082410 f i GuBVHStructure.obj
 0001:00081480       ?capacity@?$Array@PEBUBVHNode@Gu@physx@@V?$InlineAllocator@$0IAA@VNamedAllocator@shdfnd@physx@@@shdfnd@3@@shdfnd@physx@@QEBAIXZ 0000000180082480 f i GuBVHStructure.obj
 0001:000814a0       ?copy@?$Array@PEBUBVHNode@Gu@physx@@V?$InlineAllocator@$0IAA@VNamedAllocator@shdfnd@physx@@@shdfnd@3@@shdfnd@physx@@KAXPEAPEBUBVHNode@Gu@3@0PEBQEBU453@@Z 00000001800824a0 f i GuBVHStructure.obj
 0001:00081520       ?deallocate@?$Array@PEBUBVHNode@Gu@physx@@V?$InlineAllocator@$0IAA@VNamedAllocator@shdfnd@physx@@@shdfnd@3@@shdfnd@physx@@IEAAXPEAX@Z 0000000180082520 f i GuBVHStructure.obj
 0001:00081550       ?deallocate@?$InlineAllocator@$0IAA@VNamedAllocator@shdfnd@physx@@@shdfnd@physx@@QEAAXPEAX@Z 0000000180082550 f i GuBVHStructure.obj
 0001:00081590       ?destroy@?$Array@PEBUBVHNode@Gu@physx@@V?$InlineAllocator@$0IAA@VNamedAllocator@shdfnd@physx@@@shdfnd@3@@shdfnd@physx@@KAXPEAPEBUBVHNode@Gu@3@0@Z 0000000180082590 f i GuBVHStructure.obj
 0001:000815c0       ?forceSize_Unsafe@?$Array@PEBUBVHNode@Gu@physx@@V?$InlineAllocator@$0IAA@VNamedAllocator@shdfnd@physx@@@shdfnd@3@@shdfnd@physx@@QEAAXI@Z 00000001800825c0 f i GuBVHStructure.obj
 0001:00081640       ?getAABBCenterExtentsV2@BVHNode@Gu@physx@@QEBAXPEAT__m128@@0@Z 0000000180082640 f i GuBVHStructure.obj
 0001:00081780       ?getAABBCenterExtentsV@BVHNode@Gu@physx@@QEBAXPEAT__m128@@0@Z 0000000180082780 f i GuBVHStructure.obj
 0001:00081970       ?getBaseFlags@PxBase@physx@@QEBA?AV?$PxFlags@W4Enum@PxBaseFlag@physx@@G@2@XZ 0000000180082970 f i GuBVHStructure.obj
 0001:000819a0       ?getBounds@BVHStructure@Gu@physx@@UEBAPEBVPxBounds3@3@XZ 00000001800829a0 f i GuBVHStructure.obj
 0001:000819b0       ?getConcreteTypeName@PxBVHStructure@physx@@UEBAPEBDXZ 00000001800829b0 f i GuBVHStructure.obj
 0001:000819c0       ?getIndices@BVHTree@Gu@physx@@QEBAPEBIXZ 00000001800829c0 f i GuBVHStructure.obj
 0001:000819d0       ?getNbBounds@BVHStructure@Gu@physx@@UEBAIXZ 00000001800829d0 f i GuBVHStructure.obj
 0001:000819e0       ?getNbPrimitives@BVHNode@Gu@physx@@QEBAIXZ 00000001800829e0 f i GuBVHStructure.obj
 0001:00081a00       ?getNodes@BVHTree@Gu@physx@@QEBAPEBUBVHNode@23@XZ 0000000180082a00 f i GuBVHStructure.obj
 0001:00081a10       ?getPos@BVHNode@Gu@physx@@QEBAPEBU123@PEBU123@@Z 0000000180082a10 f i GuBVHStructure.obj
 0001:00081a40       ?getPrimitives@BVHNode@Gu@physx@@QEBAPEBIPEBI@Z 0000000180082a40 f i GuBVHStructure.obj
 0001:00081a70       ?grow@?$Array@PEBUBVHNode@Gu@physx@@V?$InlineAllocator@$0IAA@VNamedAllocator@shdfnd@physx@@@shdfnd@3@@shdfnd@physx@@IEAAXI@Z 0000000180082a70 f i GuBVHStructure.obj
 0001:00081af0       ?invoke@BVHCallback@Gu@physx@@QEAA_NAEAMI@Z 0000000180082af0 f i GuBVHStructure.obj
 0001:00081b50       ?isInUserMemory@?$Array@PEBUBVHNode@Gu@physx@@V?$InlineAllocator@$0IAA@VNamedAllocator@shdfnd@physx@@@shdfnd@3@@shdfnd@physx@@QEBAIXZ 0000000180082b50 f i GuBVHStructure.obj
 0001:00081b70       ?isKindOf@PxBVHStructure@physx@@MEBA_NPEBD@Z 0000000180082b70 f i GuBVHStructure.obj
 0001:00081bd0       ?isLeaf@BVHNode@Gu@physx@@QEBAIXZ 0000000180082bd0 f i GuBVHStructure.obj
 0001:00081bf0       ?onRefCountZero@RefCountable@Cm@physx@@UEAAXXZ 0000000180082bf0 f i GuBVHStructure.obj
 0001:00081c40       ?recreate@?$Array@PEBUBVHNode@Gu@physx@@V?$InlineAllocator@$0IAA@VNamedAllocator@shdfnd@physx@@@shdfnd@3@@shdfnd@physx@@IEAAXI@Z 0000000180082c40 f i GuBVHStructure.obj
 0001:00081d70       ?reserve@?$Array@PEBUBVHNode@Gu@physx@@V?$InlineAllocator@$0IAA@VNamedAllocator@shdfnd@physx@@@shdfnd@3@@shdfnd@physx@@QEAAXI@Z 0000000180082d70 f i GuBVHStructure.obj
 0001:00081da0       ?resizeUninitialized@?$Array@PEBUBVHNode@Gu@physx@@V?$InlineAllocator@$0IAA@VNamedAllocator@shdfnd@physx@@@shdfnd@3@@shdfnd@physx@@QEAAXI@Z 0000000180082da0 f i GuBVHStructure.obj
 0001:00081dd0       ?setDistance@RayAABBTest@Gu@physx@@QEAAXM@Z 0000000180082dd0 f i GuBVHStructure.obj
 0001:00081ef0       ?SweepEstimateAnyShapeHeightfield@Gu@physx@@YAMAEBUCCDShape@12@0AEBVPxTransform@2@111MM@Z 0000000180082ef0 f   GuCCDSweepConvexMesh.obj
 0001:00082480       ?SweepEstimateAnyShapeMesh@Gu@physx@@YAMAEBUCCDShape@12@0AEBVPxTransform@2@111MM@Z 0000000180083480 f   GuCCDSweepConvexMesh.obj
 0001:00082e20       ?SweepAnyShapeHeightfield@Gu@physx@@YAMAEBUCCDShape@12@0AEBVPxTransform@2@111MAEAVPxVec3@2@2MAEAIM@Z 0000000180083e20 f   GuCCDSweepConvexMesh.obj
 0001:00083cd0       ?SweepAnyShapeMesh@Gu@physx@@YAMAEBUCCDShape@12@0AEBVPxTransform@2@111MAEAVPxVec3@2@2MAEAIM@Z 0000000180084cd0 f   GuCCDSweepConvexMesh.obj
 0001:00084c00       ??$checkType@$$CBUPxHeightFieldGeometryLL@physx@@@physx@@YAXAEBVGeometryUnion@Gu@0@@Z 0000000180085c00 f i GuCCDSweepConvexMesh.obj
 0001:00084c70       ??$checkType@$$CBUPxTriangleMeshGeometryLL@physx@@@physx@@YAXAEBVGeometryUnion@Gu@0@@Z 0000000180085c70 f i GuCCDSweepConvexMesh.obj
 0001:00084ce0       ??$get@$$CBUPxHeightFieldGeometryLL@physx@@@GeometryUnion@Gu@physx@@QEBAAEBUPxHeightFieldGeometryLL@2@XZ 0000000180085ce0 f i GuCCDSweepConvexMesh.obj
 0001:00084d00       ??$get@$$CBUPxTriangleMeshGeometryLL@physx@@@GeometryUnion@Gu@physx@@QEBAAEBUPxTriangleMeshGeometryLL@2@XZ 0000000180085d00 f i GuCCDSweepConvexMesh.obj
 0001:00084d20       ??0?$Array@IV?$InlineAllocator@$0BAA@VNamedAllocator@shdfnd@physx@@@shdfnd@physx@@@shdfnd@physx@@QEAA@AEBV?$InlineAllocator@$0BAA@VNamedAllocator@shdfnd@physx@@@12@@Z 0000000180085d20 f i GuCCDSweepConvexMesh.obj
 0001:00084d80       ??0?$Array@IVNamedAllocator@shdfnd@physx@@@shdfnd@physx@@QEAA@IAEBIAEBVNamedAllocator@12@@Z 0000000180085d80 f i GuCCDSweepConvexMesh.obj
 0001:00084df0       ??0?$InlineAllocator@$0BAA@VNamedAllocator@shdfnd@physx@@@shdfnd@physx@@QEAA@AEBV012@@Z 0000000180085df0 f i GuCCDSweepConvexMesh.obj
 0001:00084e30       ??0?$InlineAllocator@$0BAA@VNamedAllocator@shdfnd@physx@@@shdfnd@physx@@QEAA@AEBVNamedAllocator@12@@Z 0000000180085e30 f i GuCCDSweepConvexMesh.obj
 0001:00084e70       ??0?$InlineArray@I$0EA@VNamedAllocator@shdfnd@physx@@@shdfnd@physx@@QEAA@AEBVNamedAllocator@12@@Z 0000000180085e70 f i GuCCDSweepConvexMesh.obj
 0001:00085080       ??0HullPolygonData@Gu@physx@@QEAA@XZ 0000000180086080 f i GuCCDSweepConvexMesh.obj
 0001:000850a0       ??1?$Array@IV?$InlineAllocator@$0BAA@VNamedAllocator@shdfnd@physx@@@shdfnd@physx@@@shdfnd@physx@@QEAA@XZ 00000001800860a0 f i GuCCDSweepConvexMesh.obj
 0001:00085120       ??1?$InlineAllocator@$0BAA@VNamedAllocator@shdfnd@physx@@@shdfnd@physx@@QEAA@XZ 0000000180086120 f i GuCCDSweepConvexMesh.obj
 0001:00085140       ??1?$InlineArray@I$0EA@VNamedAllocator@shdfnd@physx@@@shdfnd@physx@@QEAA@XZ 0000000180086140 f i GuCCDSweepConvexMesh.obj
 0001:00085290       ?allocate@?$Array@IV?$InlineAllocator@$0BAA@VNamedAllocator@shdfnd@physx@@@shdfnd@physx@@@shdfnd@physx@@IEAAPEAII@Z 0000000180086290 f i GuCCDSweepConvexMesh.obj
 0001:00085320       ?allocate@?$InlineAllocator@$0BAA@VNamedAllocator@shdfnd@physx@@@shdfnd@physx@@QEAAPEAXIPEBDH@Z 0000000180086320 f i GuCCDSweepConvexMesh.obj
 0001:00085390       ?begin@?$Array@IV?$InlineAllocator@$0BAA@VNamedAllocator@shdfnd@physx@@@shdfnd@physx@@@shdfnd@physx@@QEAAPEAIXZ 0000000180086390 f i GuCCDSweepConvexMesh.obj
 0001:000853b0       ?capacity@?$Array@IV?$InlineAllocator@$0BAA@VNamedAllocator@shdfnd@physx@@@shdfnd@physx@@@shdfnd@physx@@QEBAIXZ 00000001800863b0 f i GuCCDSweepConvexMesh.obj
 0001:000853d0       ?capacityIncrement@?$Array@IV?$InlineAllocator@$0BAA@VNamedAllocator@shdfnd@physx@@@shdfnd@physx@@@shdfnd@physx@@IEBAIXZ 00000001800863d0 f i GuCCDSweepConvexMesh.obj
 0001:00085410       ?copy@?$Array@IV?$InlineAllocator@$0BAA@VNamedAllocator@shdfnd@physx@@@shdfnd@physx@@@shdfnd@physx@@KAXPEAI0PEBI@Z 0000000180086410 f i GuCCDSweepConvexMesh.obj
 0001:00085490       ?create@?$Array@IV?$InlineAllocator@$0BAA@VNamedAllocator@shdfnd@physx@@@shdfnd@physx@@@shdfnd@physx@@KAXPEAI0AEBI@Z 0000000180086490 f i GuCCDSweepConvexMesh.obj
 0001:000854f0       ?create@?$Array@IVNamedAllocator@shdfnd@physx@@@shdfnd@physx@@KAXPEAI0AEBI@Z 00000001800864f0 f i GuCCDSweepConvexMesh.obj
 0001:00085550       ?deallocate@?$Array@IV?$InlineAllocator@$0BAA@VNamedAllocator@shdfnd@physx@@@shdfnd@physx@@@shdfnd@physx@@IEAAXPEAX@Z 0000000180086550 f i GuCCDSweepConvexMesh.obj
 0001:00085580       ?deallocate@?$InlineAllocator@$0BAA@VNamedAllocator@shdfnd@physx@@@shdfnd@physx@@QEAAXPEAX@Z 0000000180086580 f i GuCCDSweepConvexMesh.obj
 0001:000855c0       ?destroy@?$Array@IV?$InlineAllocator@$0BAA@VNamedAllocator@shdfnd@physx@@@shdfnd@physx@@@shdfnd@physx@@KAXPEAI0@Z 00000001800865c0 f i GuCCDSweepConvexMesh.obj
 0001:000855f0       ?distancePointTriangleSquared@Gu@physx@@YAMAEBVPxVec3@2@000PEAM1@Z 00000001800865f0 f i GuCCDSweepConvexMesh.obj
 0001:000856e0       ?flipsNormal@FastVertex2ShapeScaling@Cm@physx@@QEBA_NXZ 00000001800866e0 f i GuCCDSweepConvexMesh.obj
 0001:000856f0       ?forceSize_Unsafe@?$Array@IV?$InlineAllocator@$0BAA@VNamedAllocator@shdfnd@physx@@@shdfnd@physx@@@shdfnd@physx@@QEAAXI@Z 00000001800866f0 f i GuCCDSweepConvexMesh.obj
 0001:00085790       ?getTriangleVerts@TriangleVertexPointers@Gu@physx@@SAXPEBVTriangleMesh@23@IAEAVPxVec3@3@11@Z 0000000180086790 f i GuCCDSweepConvexMesh.obj
 0001:00085940       ?grow@?$Array@IV?$InlineAllocator@$0BAA@VNamedAllocator@shdfnd@physx@@@shdfnd@physx@@@shdfnd@physx@@IEAAXI@Z 0000000180086940 f i GuCCDSweepConvexMesh.obj
 0001:000859c0       ?growAndPushBack@?$Array@IV?$InlineAllocator@$0BAA@VNamedAllocator@shdfnd@physx@@@shdfnd@physx@@@shdfnd@physx@@IEAAAEAIAEBI@Z 00000001800869c0 f i GuCCDSweepConvexMesh.obj
 0001:00085b70       ?include@PxBounds3@physx@@QEAAXAEBVPxVec3@2@@Z 0000000180086b70 f i GuCCDSweepConvexMesh.obj
 0001:00085c00       ?isEmpty@PxBounds3@physx@@QEBA_NXZ 0000000180086c00 f i GuCCDSweepConvexMesh.obj
 0001:00085c70       ?isInUserMemory@?$Array@IV?$InlineAllocator@$0BAA@VNamedAllocator@shdfnd@physx@@@shdfnd@physx@@@shdfnd@physx@@QEBAIXZ 0000000180086c70 f i GuCCDSweepConvexMesh.obj
 0001:00085c90       ?isZero@PxVec3@physx@@QEBA_NXZ 0000000180086c90 f i GuCCDSweepConvexMesh.obj
 0001:00085fe0       ?pushBack@?$Array@IV?$InlineAllocator@$0BAA@VNamedAllocator@shdfnd@physx@@@shdfnd@physx@@@shdfnd@physx@@QEAAAEAIAEBI@Z 0000000180086fe0 f i GuCCDSweepConvexMesh.obj
 0001:000860a0       ?recreate@?$Array@IV?$InlineAllocator@$0BAA@VNamedAllocator@shdfnd@physx@@@shdfnd@physx@@@shdfnd@physx@@IEAAXI@Z 00000001800870a0 f i GuCCDSweepConvexMesh.obj
 0001:000861d0       ?reserve@?$Array@IV?$InlineAllocator@$0BAA@VNamedAllocator@shdfnd@physx@@@shdfnd@physx@@@shdfnd@physx@@QEAAXI@Z 00000001800871d0 f i GuCCDSweepConvexMesh.obj
 0001:00086200       ?resize@?$Array@IV?$InlineAllocator@$0BAA@VNamedAllocator@shdfnd@physx@@@shdfnd@physx@@@shdfnd@physx@@QEAAXIAEBI@Z 0000000180087200 f i GuCCDSweepConvexMesh.obj
 0001:000862b0       ?resize@?$Array@IVNamedAllocator@shdfnd@physx@@@shdfnd@physx@@QEAAXIAEBI@Z 00000001800872b0 f i GuCCDSweepConvexMesh.obj
 0001:00086340       ?size@?$Array@IV?$InlineAllocator@$0BAA@VNamedAllocator@shdfnd@physx@@@shdfnd@physx@@@shdfnd@physx@@QEBAIXZ 0000000180087340 f i GuCCDSweepConvexMesh.obj
 0001:00086360       ?sweepAABBAABB@Gu@physx@@YAMAEBVPxVec3@2@00000@Z 0000000180087360 f i GuCCDSweepConvexMesh.obj
 0001:000868b0       ?transformBoxOrthonormal@physx@@YA?AVBox@Gu@1@AEBV231@AEBVPxTransform@1@@Z 00000001800878b0 f i GuCCDSweepConvexMesh.obj
 0001:000869f0       ?SweepShapeShape@Gu@physx@@YAMAEBUCCDShape@12@0AEBVPxTransform@2@111MAEAVPxVec3@2@2MAEAIM@Z 00000001800879f0 f   GuCCDSweepPrimitives.obj
 0001:00086b00       ?UnimplementedSweep@Gu@physx@@YAMAEBUCCDShape@12@0AEBVPxTransform@2@111MAEAVPxVec3@2@2MAEAIM@Z 0000000180087b00 f   GuCCDSweepPrimitives.obj
 0001:00086b30       ?UnimplementedTriangleSweep@Gu@physx@@YAMAEBVGeometryUnion@12@0AEBVPxTransform@2@111MAEAVPxVec3@2@2AEBVFastVertex2ShapeScaling@Cm@2@AEAVTriangleV@12@M@Z 0000000180087b30 f   GuCCDSweepPrimitives.obj
 0001:00086be0       ?SweepShapeTriangle@Gu@physx@@YAMAEBVGeometryUnion@12@0AEBVPxTransform@2@111MAEAVPxVec3@2@2AEBVFastVertex2ShapeScaling@Cm@2@AEAVTriangleV@12@M@Z 0000000180087be0 f   GuCCDSweepPrimitives.obj
 0001:00089b70       ??$SweepGeomGeom@VCapsuleV@Gu@physx@@V123@@Gu@physx@@YAMAEBUCCDShape@01@0AEBVPxTransform@1@111MAEAVPxVec3@1@2MAEAIM@Z 000000018008ab70 f i GuCCDSweepPrimitives.obj
 0001:00089ce0       ??$SweepGeomGeom@VCapsuleV@Gu@physx@@VBoxV@23@@Gu@physx@@YAMAEBUCCDShape@01@0AEBVPxTransform@1@111MAEAVPxVec3@1@2MAEAIM@Z 000000018008ace0 f i GuCCDSweepPrimitives.obj
 0001:00089e50       ??$SweepGeomGeom@VCapsuleV@Gu@physx@@VConvexHullV@23@@Gu@physx@@YAMAEBUCCDShape@01@0AEBVPxTransform@1@111MAEAVPxVec3@1@2MAEAIM@Z 000000018008ae50 f i GuCCDSweepPrimitives.obj
 0001:00089fc0       ??$SweepGeomGeom@VBoxV@Gu@physx@@V123@@Gu@physx@@YAMAEBUCCDShape@01@0AEBVPxTransform@1@111MAEAVPxVec3@1@2MAEAIM@Z 000000018008afc0 f i GuCCDSweepPrimitives.obj
 0001:0008a130       ??$SweepGeomGeom@VBoxV@Gu@physx@@VConvexHullV@23@@Gu@physx@@YAMAEBUCCDShape@01@0AEBVPxTransform@1@111MAEAVPxVec3@1@2MAEAIM@Z 000000018008b130 f i GuCCDSweepPrimitives.obj
 0001:0008a2a0       ??$SweepGeomGeom@VConvexHullV@Gu@physx@@V123@@Gu@physx@@YAMAEBUCCDShape@01@0AEBVPxTransform@1@111MAEAVPxVec3@1@2MAEAIM@Z 000000018008b2a0 f i GuCCDSweepPrimitives.obj
 0001:0008a410       ??$SweepGeomTriangles@VCapsuleV@Gu@physx@@@Gu@physx@@YAMAEBVGeometryUnion@01@0AEBVPxTransform@1@111MAEAVPxVec3@1@2AEBVFastVertex2ShapeScaling@Cm@1@AEAVTriangleV@01@M@Z 000000018008b410 f i GuCCDSweepPrimitives.obj
 0001:0008a520       ??$SweepGeomTriangles@VBoxV@Gu@physx@@@Gu@physx@@YAMAEBVGeometryUnion@01@0AEBVPxTransform@1@111MAEAVPxVec3@1@2AEBVFastVertex2ShapeScaling@Cm@1@AEAVTriangleV@01@M@Z 000000018008b520 f i GuCCDSweepPrimitives.obj
 0001:0008a630       ??$SweepGeomTriangles@VConvexHullV@Gu@physx@@@Gu@physx@@YAMAEBVGeometryUnion@01@0AEBVPxTransform@1@111MAEAVPxVec3@1@2AEBVFastVertex2ShapeScaling@Cm@1@AEAVTriangleV@01@M@Z 000000018008b630 f i GuCCDSweepPrimitives.obj
 0001:0008a740       ??$PX_UNUSED@VFastVertex2ShapeScaling@Cm@physx@@@@YAXAEBVFastVertex2ShapeScaling@Cm@physx@@@Z 000000018008b740 f i GuCCDSweepPrimitives.obj
 0001:0008a750       ??$PX_UNUSED@VTriangleV@Gu@physx@@@@YAXAEBVTriangleV@Gu@physx@@@Z 000000018008b750 f i GuCCDSweepPrimitives.obj
 0001:0008a760       ??$getRadius@VBoxV@Gu@physx@@@Gu@physx@@YAMAEBVPxGeometry@1@@Z 000000018008b760 f i GuCCDSweepPrimitives.obj
 0001:0008a770       ??$getRadius@VCapsuleV@Gu@physx@@@Gu@physx@@YAMAEBVPxGeometry@1@@Z 000000018008b770 f i GuCCDSweepPrimitives.obj
 0001:0008a7f0       ??$getRadius@VConvexHullV@Gu@physx@@@Gu@physx@@YAMAEBVPxGeometry@1@@Z 000000018008b7f0 f i GuCCDSweepPrimitives.obj
 0001:0008a800       ??$gjkPenetration@U?$RelativeConvex@VCapsuleV@Gu@physx@@@Gu@physx@@U?$LocalConvex@VBoxV@Gu@physx@@@23@@Gu@physx@@YA?AW4GjkStatus@01@AEBU?$RelativeConvex@VCapsuleV@Gu@physx@@@01@AEBU?$LocalConvex@VBoxV@Gu@physx@@@01@AEBT__m128@@2_NPEIAE4AEAEAEAUGjkOutput@01@@Z 000000018008b800 f i GuCCDSweepPrimitives.obj
 0001:0008ba40       ??$gjkPenetration@U?$RelativeConvex@VCapsuleV@Gu@physx@@@Gu@physx@@U?$LocalConvex@VCapsuleV@Gu@physx@@@23@@Gu@physx@@YA?AW4GjkStatus@01@AEBU?$RelativeConvex@VCapsuleV@Gu@physx@@@01@AEBU?$LocalConvex@VCapsuleV@Gu@physx@@@01@AEBT__m128@@2_NPEIAE4AEAEAEAUGjkOutput@01@@Z 000000018008ca40 f i GuCCDSweepPrimitives.obj
 0001:0008cc80       ??$gjkPenetration@U?$RelativeConvex@VCapsuleV@Gu@physx@@@Gu@physx@@U?$LocalConvex@VConvexHullV@Gu@physx@@@23@@Gu@physx@@YA?AW4GjkStatus@01@AEBU?$RelativeConvex@VCapsuleV@Gu@physx@@@01@AEBU?$LocalConvex@VConvexHullV@Gu@physx@@@01@AEBT__m128@@2_NPEIAE4AEAEAEAUGjkOutput@01@@Z 000000018008dc80 f i GuCCDSweepPrimitives.obj
 0001:0008dec0       ??$gjkPenetration@U?$RelativeConvex@VTriangleV@Gu@physx@@@Gu@physx@@U?$LocalConvex@VBoxV@Gu@physx@@@23@@Gu@physx@@YA?AW4GjkStatus@01@AEBU?$RelativeConvex@VTriangleV@Gu@physx@@@01@AEBU?$LocalConvex@VBoxV@Gu@physx@@@01@AEBT__m128@@2_NPEIAE4AEAEAEAUGjkOutput@01@@Z 000000018008eec0 f i GuCCDSweepPrimitives.obj
 0001:0008f100       ??$gjkPenetration@U?$RelativeConvex@VTriangleV@Gu@physx@@@Gu@physx@@U?$LocalConvex@VCapsuleV@Gu@physx@@@23@@Gu@physx@@YA?AW4GjkStatus@01@AEBU?$RelativeConvex@VTriangleV@Gu@physx@@@01@AEBU?$LocalConvex@VCapsuleV@Gu@physx@@@01@AEBT__m128@@2_NPEIAE4AEAEAEAUGjkOutput@01@@Z 0000000180090100 f i GuCCDSweepPrimitives.obj
 0001:00090340       ??$gjkPenetration@U?$RelativeConvex@VTriangleV@Gu@physx@@@Gu@physx@@U?$LocalConvex@VConvexHullV@Gu@physx@@@23@@Gu@physx@@YA?AW4GjkStatus@01@AEBU?$RelativeConvex@VTriangleV@Gu@physx@@@01@AEBU?$LocalConvex@VConvexHullV@Gu@physx@@@01@AEBT__m128@@2_NPEIAE4AEAEAEAUGjkOutput@01@@Z 0000000180091340 f i GuCCDSweepPrimitives.obj
 0001:00091580       ??$gjkRaycast@U?$RelativeConvex@VCapsuleV@Gu@physx@@@Gu@physx@@U?$LocalConvex@VBoxV@Gu@physx@@@23@@Gu@physx@@YA_NAEBU?$RelativeConvex@VCapsuleV@Gu@physx@@@01@AEBU?$LocalConvex@VBoxV@Gu@physx@@@01@AEBT__m128@@222AEAT4@33M@Z 0000000180092580 f i GuCCDSweepPrimitives.obj
 0001:00092a10       ??$gjkRaycast@U?$RelativeConvex@VCapsuleV@Gu@physx@@@Gu@physx@@U?$LocalConvex@VCapsuleV@Gu@physx@@@23@@Gu@physx@@YA_NAEBU?$RelativeConvex@VCapsuleV@Gu@physx@@@01@AEBU?$LocalConvex@VCapsuleV@Gu@physx@@@01@AEBT__m128@@222AEAT4@33M@Z 0000000180093a10 f i GuCCDSweepPrimitives.obj
 0001:00093ea0       ??$gjkRaycast@U?$RelativeConvex@VCapsuleV@Gu@physx@@@Gu@physx@@U?$LocalConvex@VConvexHullV@Gu@physx@@@23@@Gu@physx@@YA_NAEBU?$RelativeConvex@VCapsuleV@Gu@physx@@@01@AEBU?$LocalConvex@VConvexHullV@Gu@physx@@@01@AEBT__m128@@222AEAT4@33M@Z 0000000180094ea0 f i GuCCDSweepPrimitives.obj
 0001:00095330       ??$gjkRaycast@U?$RelativeConvex@VTriangleV@Gu@physx@@@Gu@physx@@U?$LocalConvex@VBoxV@Gu@physx@@@23@@Gu@physx@@YA_NAEBU?$RelativeConvex@VTriangleV@Gu@physx@@@01@AEBU?$LocalConvex@VBoxV@Gu@physx@@@01@AEBT__m128@@222AEAT4@33M@Z 0000000180096330 f i GuCCDSweepPrimitives.obj
 0001:000967c0       ??$gjkRaycast@U?$RelativeConvex@VTriangleV@Gu@physx@@@Gu@physx@@U?$LocalConvex@VCapsuleV@Gu@physx@@@23@@Gu@physx@@YA_NAEBU?$RelativeConvex@VTriangleV@Gu@physx@@@01@AEBU?$LocalConvex@VCapsuleV@Gu@physx@@@01@AEBT__m128@@222AEAT4@33M@Z 00000001800977c0 f i GuCCDSweepPrimitives.obj
 0001:00097c50       ??$gjkRaycast@U?$RelativeConvex@VTriangleV@Gu@physx@@@Gu@physx@@U?$LocalConvex@VConvexHullV@Gu@physx@@@23@@Gu@physx@@YA_NAEBU?$RelativeConvex@VTriangleV@Gu@physx@@@01@AEBU?$LocalConvex@VConvexHullV@Gu@physx@@@01@AEBT__m128@@222AEAT4@33M@Z 0000000180098c50 f i GuCCDSweepPrimitives.obj
 0001:000990e0       ??$gjkRaycastPenetration@U?$RelativeConvex@VCapsuleV@Gu@physx@@@Gu@physx@@U?$LocalConvex@VBoxV@Gu@physx@@@23@@Gu@physx@@YA_NAEBU?$RelativeConvex@VCapsuleV@Gu@physx@@@01@AEBU?$LocalConvex@VBoxV@Gu@physx@@@01@AEBT__m128@@222AEAT4@33M_N@Z 000000018009a0e0 f i GuCCDSweepPrimitives.obj
 0001:00099530       ??$gjkRaycastPenetration@U?$RelativeConvex@VCapsuleV@Gu@physx@@@Gu@physx@@U?$LocalConvex@VCapsuleV@Gu@physx@@@23@@Gu@physx@@YA_NAEBU?$RelativeConvex@VCapsuleV@Gu@physx@@@01@AEBU?$LocalConvex@VCapsuleV@Gu@physx@@@01@AEBT__m128@@222AEAT4@33M_N@Z 000000018009a530 f i GuCCDSweepPrimitives.obj
 0001:00099980       ??$gjkRaycastPenetration@U?$RelativeConvex@VCapsuleV@Gu@physx@@@Gu@physx@@U?$LocalConvex@VConvexHullV@Gu@physx@@@23@@Gu@physx@@YA_NAEBU?$RelativeConvex@VCapsuleV@Gu@physx@@@01@AEBU?$LocalConvex@VConvexHullV@Gu@physx@@@01@AEBT__m128@@222AEAT4@33M_N@Z 000000018009a980 f i GuCCDSweepPrimitives.obj
 0001:00099dd0       ??$gjkRaycastPenetration@U?$RelativeConvex@VTriangleV@Gu@physx@@@Gu@physx@@U?$LocalConvex@VBoxV@Gu@physx@@@23@@Gu@physx@@YA_NAEBU?$RelativeConvex@VTriangleV@Gu@physx@@@01@AEBU?$LocalConvex@VBoxV@Gu@physx@@@01@AEBT__m128@@222AEAT4@33M_N@Z 000000018009add0 f i GuCCDSweepPrimitives.obj
 0001:0009a220       ??$gjkRaycastPenetration@U?$RelativeConvex@VTriangleV@Gu@physx@@@Gu@physx@@U?$LocalConvex@VCapsuleV@Gu@physx@@@23@@Gu@physx@@YA_NAEBU?$RelativeConvex@VTriangleV@Gu@physx@@@01@AEBU?$LocalConvex@VCapsuleV@Gu@physx@@@01@AEBT__m128@@222AEAT4@33M_N@Z 000000018009b220 f i GuCCDSweepPrimitives.obj
 0001:0009a670       ??$gjkRaycastPenetration@U?$RelativeConvex@VTriangleV@Gu@physx@@@Gu@physx@@U?$LocalConvex@VConvexHullV@Gu@physx@@@23@@Gu@physx@@YA_NAEBU?$RelativeConvex@VTriangleV@Gu@physx@@@01@AEBU?$LocalConvex@VConvexHullV@Gu@physx@@@01@AEBT__m128@@222AEAT4@33M_N@Z 000000018009b670 f i GuCCDSweepPrimitives.obj
 0001:0009aac0       ??0?$RelativeConvex@VCapsuleV@Gu@physx@@@Gu@physx@@QEAA@AEBVCapsuleV@12@AEBVPsMatTransformV@aos@shdfnd@2@@Z 000000018009bac0 f i GuCCDSweepPrimitives.obj
 0001:0009ab60       ??0?$RelativeConvex@VTriangleV@Gu@physx@@@Gu@physx@@QEAA@AEBVTriangleV@12@AEBVPsMatTransformV@aos@shdfnd@2@@Z 000000018009bb60 f i GuCCDSweepPrimitives.obj
 0001:0009ac00       ??0BoxV@Gu@physx@@QEAA@AEBVPxGeometry@2@@Z 000000018009bc00 f i GuCCDSweepPrimitives.obj
 0001:0009acd0       ??0CapsuleV@Gu@physx@@QEAA@AEBVPxGeometry@2@@Z 000000018009bcd0 f i GuCCDSweepPrimitives.obj
 0001:0009aea0       ??0ConvexHullV@Gu@physx@@QEAA@AEBVPxGeometry@2@@Z 000000018009bea0 f i GuCCDSweepPrimitives.obj
 0001:0009b070       ??1?$RelativeConvex@VCapsuleV@Gu@physx@@@Gu@physx@@UEAA@XZ 000000018009c070 f i GuCCDSweepPrimitives.obj
 0001:0009b090       ??1?$RelativeConvex@VTriangleV@Gu@physx@@@Gu@physx@@UEAA@XZ 000000018009c090 f i GuCCDSweepPrimitives.obj
 0001:0009b0b0       ??_E?$RelativeConvex@VCapsuleV@Gu@physx@@@Gu@physx@@UEAAPEAXI@Z 000000018009c0b0 f i GuCCDSweepPrimitives.obj
 0001:0009b0b0       ??_G?$RelativeConvex@VCapsuleV@Gu@physx@@@Gu@physx@@UEAAPEAXI@Z 000000018009c0b0 f i GuCCDSweepPrimitives.obj
 0001:0009b0f0       ??_G?$RelativeConvex@VTriangleV@Gu@physx@@@Gu@physx@@UEAAPEAXI@Z 000000018009c0f0 f i GuCCDSweepPrimitives.obj
 0001:0009b0f0       ??_E?$RelativeConvex@VTriangleV@Gu@physx@@@Gu@physx@@UEAAPEAXI@Z 000000018009c0f0 f i GuCCDSweepPrimitives.obj
 0001:0009b130       ?QuatVLoadA@aos@shdfnd@physx@@YA?AT__m128@@PEBM@Z 000000018009c130 f i GuCCDSweepPrimitives.obj
 0001:0009b160       ?V3LoadA@aos@shdfnd@physx@@YA?AT__m128@@PEBM@Z 000000018009c160 f i GuCCDSweepPrimitives.obj
 0001:0009b200       ?V4LoadA@aos@shdfnd@physx@@YA?AT__m128@@QEBM@Z 000000018009c200 f i GuCCDSweepPrimitives.obj
 0001:0009b280       ?getCenter@?$RelativeConvex@VCapsuleV@Gu@physx@@@Gu@physx@@UEBA?AT__m128@@XZ 000000018009c280 f i GuCCDSweepPrimitives.obj
 0001:0009b2d0       ?getCenter@?$RelativeConvex@VTriangleV@Gu@physx@@@Gu@physx@@UEBA?AT__m128@@XZ 000000018009c2d0 f i GuCCDSweepPrimitives.obj
 0001:0009b320       ?getGjkConvex@?$RelativeConvex@VCapsuleV@Gu@physx@@@Gu@physx@@QEBA?AU123@XZ 000000018009c320 f i GuCCDSweepPrimitives.obj
 0001:0009b360       ?getGjkConvex@?$RelativeConvex@VTriangleV@Gu@physx@@@Gu@physx@@QEBA?AU123@XZ 000000018009c360 f i GuCCDSweepPrimitives.obj
 0001:0009b3a0       ?getSweepMargin@?$RelativeConvex@VCapsuleV@Gu@physx@@@Gu@physx@@UEBA?AT__m128@@XZ 000000018009c3a0 f i GuCCDSweepPrimitives.obj
 0001:0009b3d0       ?getSweepMargin@?$RelativeConvex@VTriangleV@Gu@physx@@@Gu@physx@@UEBA?AT__m128@@XZ 000000018009c3d0 f i GuCCDSweepPrimitives.obj
 0001:0009b400       ?support@?$RelativeConvex@VCapsuleV@Gu@physx@@@Gu@physx@@UEBA?AT__m128@@AEBT4@@Z 000000018009c400 f i GuCCDSweepPrimitives.obj
 0001:0009b460       ?support@?$RelativeConvex@VCapsuleV@Gu@physx@@@Gu@physx@@UEBA?AT__m128@@AEBT4@AEAH@Z 000000018009c460 f i GuCCDSweepPrimitives.obj
 0001:0009b4d0       ?support@?$RelativeConvex@VTriangleV@Gu@physx@@@Gu@physx@@UEBA?AT__m128@@AEBT4@@Z 000000018009c4d0 f i GuCCDSweepPrimitives.obj
 0001:0009b530       ?support@?$RelativeConvex@VTriangleV@Gu@physx@@@Gu@physx@@UEBA?AT__m128@@AEBT4@AEAH@Z 000000018009c530 f i GuCCDSweepPrimitives.obj
 0001:0009b5a0       ?supportPoint@?$RelativeConvex@VCapsuleV@Gu@physx@@@Gu@physx@@UEBA?AT__m128@@H@Z 000000018009c5a0 f i GuCCDSweepPrimitives.obj
 0001:0009b5f0       ?supportPoint@?$RelativeConvex@VTriangleV@Gu@physx@@@Gu@physx@@UEBA?AT__m128@@H@Z 000000018009c5f0 f i GuCCDSweepPrimitives.obj
 0001:0009b640       ?supportRelative@CapsuleV@Gu@physx@@QEBA?AT__m128@@AEBT4@AEBVPsMatTransformV@aos@shdfnd@3@1@Z 000000018009c640 f i GuCCDSweepPrimitives.obj
 0001:0009b6a0       ?supportRelative@CapsuleV@Gu@physx@@QEBA?AT__m128@@AEBT4@AEBVPsMatTransformV@aos@shdfnd@3@1AEAH@Z 000000018009c6a0 f i GuCCDSweepPrimitives.obj
 0001:0009b710       ?supportRelative@TriangleV@Gu@physx@@QEBA?AT__m128@@AEBT4@AEBVPsMatTransformV@aos@shdfnd@3@1@Z 000000018009c710 f i GuCCDSweepPrimitives.obj
 0001:0009b770       ?supportRelative@TriangleV@Gu@physx@@QEBA?AT__m128@@AEBT4@AEBVPsMatTransformV@aos@shdfnd@3@1AEAH@Z 000000018009c770 f i GuCCDSweepPrimitives.obj
 0001:0009b7e0       ?barycentricCoordinates@Gu@physx@@YAXAEBT__m128@@00AEAT3@@Z 000000018009c7e0 f   GuBarycentricCoordinates.obj
 0001:0009bac0       ?barycentricCoordinates@Gu@physx@@YAXAEBT__m128@@000AEAT3@1@Z 000000018009cac0 f   GuBarycentricCoordinates.obj
 0001:0009c100       ?barycentricCoordinates@Gu@physx@@YAXAEBT__m128@@00AEAT3@1@Z 000000018009d100 f   GuBarycentricCoordinates.obj
 0001:0009c580       ?FIsEq@aos@shdfnd@physx@@YA?AT__m128@@T4@0@Z 000000018009d580 f i GuBarycentricCoordinates.obj
 0001:0009c690       ?addAxis@SeparatingAxes@Gu@physx@@QEAA_NAEBVPxVec3@3@@Z 000000018009d690 f   GuSeparatingAxes.obj
 0001:0009c7f0       ?contactBoxBox@Gu@physx@@YA_NAEBVGeometryUnion@12@0AEBVPxTransform@2@1AEBUNarrowPhaseParams@12@AEAUCache@12@AEAVContactBuffer@12@PEAVRenderOutput@Cm@2@@Z 000000018009d7f0 f   GuContactBoxBox.obj
 0001:000a0260       ??$PX_UNUSED@PEAVRenderOutput@Cm@physx@@@@YAXAEBQEAVRenderOutput@Cm@physx@@@Z 00000001800a1260 f i GuContactBoxBox.obj
 0001:000a0270       ??$checkType@$$CBVPxBoxGeometry@physx@@@physx@@YAXAEBVGeometryUnion@Gu@0@@Z 00000001800a1270 f i GuContactBoxBox.obj
 0001:000a02e0       ??$get@$$CBVPxBoxGeometry@physx@@@GeometryUnion@Gu@physx@@QEBAAEBVPxBoxGeometry@2@XZ 00000001800a12e0 f i GuContactBoxBox.obj
 0001:000a0300       ??0VertexInfo@@QEAA@XZ     00000001800a1300 f i GuContactBoxBox.obj
 0001:000a0320       ?contact@ContactBuffer@Gu@physx@@QEAA_NAEBVPxVec3@3@0MI@Z 00000001800a1320 f i GuContactBoxBox.obj
 0001:000a04c0       ?contactCapsuleBox@Gu@physx@@YA_NAEBVGeometryUnion@12@0AEBVPxTransform@2@1AEBUNarrowPhaseParams@12@AEAUCache@12@AEAVContactBuffer@12@PEAVRenderOutput@Cm@2@@Z 00000001800a14c0 f   GuContactCapsuleBox.obj
 0001:000a1c10       ??$PX_UNUSED@UCache@Gu@physx@@@@YAXAEBUCache@Gu@physx@@@Z 00000001800a2c10 f i GuContactCapsuleBox.obj
 0001:000a1c20       ??$checkType@$$CBVPxCapsuleGeometry@physx@@@physx@@YAXAEBVGeometryUnion@Gu@0@@Z 00000001800a2c20 f i GuContactCapsuleBox.obj
 0001:000a1ca0       ??$get@$$CBVPxCapsuleGeometry@physx@@@GeometryUnion@Gu@physx@@QEBAAEBVPxCapsuleGeometry@2@XZ 00000001800a2ca0 f i GuContactCapsuleBox.obj
 0001:000a1cc0       ?closestAxis@shdfnd@physx@@YAIAEBVPxVec3@2@AEAI1@Z 00000001800a2cc0 f i GuContactCapsuleBox.obj
 0001:000a1da0       ?makeFatEdge@shdfnd@physx@@YAXAEAVPxVec3@2@0M@Z 00000001800a2da0 f i GuContactCapsuleBox.obj
 0001:000a1eb0       ?contactCapsuleCapsule@Gu@physx@@YA_NAEBVGeometryUnion@12@0AEBVPxTransform@2@1AEBUNarrowPhaseParams@12@AEAUCache@12@AEAVContactBuffer@12@PEAVRenderOutput@Cm@2@@Z 00000001800a2eb0 f   GuContactCapsuleCapsule.obj
 0001:000a29c0       ?contactCapsuleConvex@Gu@physx@@YA_NAEBVGeometryUnion@12@0AEBVPxTransform@2@1AEBUNarrowPhaseParams@12@AEAUCache@12@AEAVContactBuffer@12@PEAVRenderOutput@Cm@2@@Z 00000001800a39c0 f   GuContactCapsuleConvex.obj
 0001:000a48a0       ??$checkType@$$CBUPxConvexMeshGeometryLL@physx@@@physx@@YAXAEBVGeometryUnion@Gu@0@@Z 00000001800a58a0 f i GuContactCapsuleConvex.obj
 0001:000a4910       ??$get@$$CBUPxConvexMeshGeometryLL@physx@@@GeometryUnion@Gu@physx@@QEBAAEBUPxConvexMeshGeometryLL@2@XZ 00000001800a5910 f i GuContactCapsuleConvex.obj
 0001:000a4930       ??0ConvexEdge@Gu@physx@@QEAA@XZ 00000001800a5930 f i GuContactCapsuleConvex.obj
 0001:000a49e0       ?contactCapsuleMesh@Gu@physx@@YA_NAEBVGeometryUnion@12@0AEBVPxTransform@2@1AEBUNarrowPhaseParams@12@AEAUCache@12@AEAVContactBuffer@12@PEAVRenderOutput@Cm@2@@Z 00000001800a59e0 f   GuContactCapsuleMesh.obj
 0001:000a4ca0       ?contactCapsuleHeightfield@Gu@physx@@YA_NAEBVGeometryUnion@12@0AEBVPxTransform@2@1AEBUNarrowPhaseParams@12@AEAUCache@12@AEAVContactBuffer@12@PEAVRenderOutput@Cm@2@@Z 00000001800a5ca0 f   GuContactCapsuleMesh.obj
 0001:000a5cb0       ??0Capsule@Gu@physx@@QEAA@AEBVSegment@12@M@Z 00000001800a6cb0 f i GuContactCapsuleMesh.obj
 0001:000a61e0       ??0TrianglePadded@Gu@physx@@QEAA@XZ 00000001800a71e0 f i GuContactCapsuleMesh.obj
 0001:000a62b0       ??1TrianglePadded@Gu@physx@@QEAA@XZ 00000001800a72b0 f i GuContactCapsuleMesh.obj
 0001:000a62d0       ??4PxBounds3@physx@@QEAAAEAV01@$$QEAV01@@Z 00000001800a72d0 f i GuContactCapsuleMesh.obj
 0001:000a63e0       ?computeBarycentricPoint@shdfnd@physx@@YA?AVPxVec3@2@AEBV32@00MM@Z 00000001800a73e0 f i GuContactCapsuleMesh.obj
 0001:000a64e0       ?distanceSegmentTriangleSquared@Gu@physx@@YAMAEBVSegment@12@AEBVPxVec3@2@11PEAM22@Z 00000001800a74e0 f i GuContactCapsuleMesh.obj
 0001:000a6560       ?getNextIndex3@shdfnd@physx@@YAII@Z 00000001800a7560 f i GuContactCapsuleMesh.obj
 0001:000a6580       ?getScaledVertices@Cm@physx@@YAXPEAVPxVec3@2@AEBV32@11_NAEBVFastVertex2ShapeScaling@12@@Z 00000001800a7580 f i GuContactCapsuleMesh.obj
 0001:000a66f0       ?intersectRayTriangleCulling@Gu@physx@@YA_NAEBVPxVec3@2@0000AEAM11M@Z 00000001800a76f0 f i GuContactCapsuleMesh.obj
 0001:000a6770       ?normal@PxTriangle@physx@@QEBAXAEAVPxVec3@2@@Z 00000001800a7770 f i GuContactCapsuleMesh.obj
 0001:000a7190       ?transformFast@PxBounds3@physx@@SA?AV12@AEBVPxTransform@2@AEBV12@@Z 00000001800a8190 f i GuContactCapsuleMesh.obj
 0001:000a7260       ?transformQueryBounds@FastVertex2ShapeScaling@Cm@physx@@QEBAXAEAVPxVec3@3@0AEAVPxMat33@3@@Z 00000001800a8260 f i GuContactCapsuleMesh.obj
 0001:000a73d0       ?contactBoxConvex@Gu@physx@@YA_NAEBVGeometryUnion@12@0AEBVPxTransform@2@1AEBUNarrowPhaseParams@12@AEAUCache@12@AEAVContactBuffer@12@PEAVRenderOutput@Cm@2@@Z 00000001800a83d0 f   GuContactConvexConvex.obj
 0001:000a7580       ?contactConvexConvex@Gu@physx@@YA_NAEBVGeometryUnion@12@0AEBVPxTransform@2@1AEBUNarrowPhaseParams@12@AEAUCache@12@AEAVContactBuffer@12@PEAVRenderOutput@Cm@2@@Z 00000001800a8580 f   GuContactConvexConvex.obj
 0001:000aa5c0       ??0Matrix34@Cm@physx@@QEAA@AEBVPxVec3@2@000@Z 00000001800ab5c0 f i GuContactConvexConvex.obj
 0001:000aa620       ??4PxPlane@physx@@QEAAAEAV01@$$QEAV01@@Z 00000001800ab620 f i GuContactConvexConvex.obj
 0001:000aa660       ??4PxTransform@physx@@QEAAAEAV01@$$QEAV01@@Z 00000001800ab660 f i GuContactConvexConvex.obj
 0001:000aa6b0       ??LFastVertex2ShapeScaling@Cm@physx@@QEBA?AVPxVec3@2@AEBV32@@Z 00000001800ab6b0 f i GuContactConvexConvex.obj
 0001:000aa6f0       ?BoxSupport@@YAXQEBMAEBVPxVec3@physx@@QEAM@Z 00000001800ab6f0 f i GuContactConvexConvex.obj
 0001:000aa7e0       ?PxcMultiplyAdd3x4@@YAMIAEBVPxVec3@physx@@0AEBVMatrix34@Cm@2@@Z 00000001800ab7e0 f i GuContactConvexConvex.obj
 0001:000aa900       ?PxcMultiplySub3x4@@YAMIAEBVPxVec3@physx@@0AEBVMatrix34@Cm@2@@Z 00000001800ab900 f i GuContactConvexConvex.obj
 0001:000aa9f0       ?getMax@HullPolygonData@Gu@physx@@QEBAMXZ 00000001800ab9f0 f i GuContactConvexConvex.obj
 0001:000aaa10       ?getMin@HullPolygonData@Gu@physx@@QEBAMPEIBVPxVec3@3@@Z 00000001800aba10 f i GuContactConvexConvex.obj
 0001:000aaa50       ?getPolygonVertexRefs@PolygonalData@Gu@physx@@QEBAPEBEAEBUHullPolygonData@23@@Z 00000001800aba50 f i GuContactConvexConvex.obj
 0001:000aaa70       ?set@Matrix34@Cm@physx@@QEAAXAEBVPxQuat@3@@Z 00000001800aba70 f i GuContactConvexConvex.obj
 0001:000aaac0       ?contactBoxMesh@Gu@physx@@YA_NAEBVGeometryUnion@12@0AEBVPxTransform@2@1AEBUNarrowPhaseParams@12@AEAUCache@12@AEAVContactBuffer@12@PEAVRenderOutput@Cm@2@@Z 00000001800abac0 f   GuContactConvexMesh.obj
 0001:000aac60       ?contactConvexMesh@Gu@physx@@YA_NAEBVGeometryUnion@12@0AEBVPxTransform@2@1AEBUNarrowPhaseParams@12@AEAUCache@12@AEAVContactBuffer@12@PEAVRenderOutput@Cm@2@@Z 00000001800abc60 f   GuContactConvexMesh.obj
 0001:000aadc0       ?contactBoxHeightfield@Gu@physx@@YA_NAEBVGeometryUnion@12@0AEBVPxTransform@2@1AEBUNarrowPhaseParams@12@AEAUCache@12@AEAVContactBuffer@12@PEAVRenderOutput@Cm@2@@Z 00000001800abdc0 f   GuContactConvexMesh.obj
 0001:000aaf20       ?contactConvexHeightfield@Gu@physx@@YA_NAEBVGeometryUnion@12@0AEBVPxTransform@2@1AEBUNarrowPhaseParams@12@AEAUCache@12@AEAVContactBuffer@12@PEAVRenderOutput@Cm@2@@Z 00000001800abf20 f   GuContactConvexMesh.obj
 0001:000aea80       ??0?$Array@IV?$InlineAllocator@$0BBAA@VNamedAllocator@shdfnd@physx@@@shdfnd@physx@@@shdfnd@physx@@QEAA@AEBV?$InlineAllocator@$0BBAA@VNamedAllocator@shdfnd@physx@@@12@@Z 00000001800afa80 f i GuContactConvexMesh.obj
 0001:000aeae0       ??0?$CacheMap@UCachedEdge@Gu@physx@@$0IA@@Gu@physx@@QEAA@XZ 00000001800afae0 f i GuContactConvexMesh.obj
 0001:000aeb60       ??0?$CacheMap@UCachedVertex@Gu@physx@@$0IA@@Gu@physx@@QEAA@XZ 00000001800afb60 f i GuContactConvexMesh.obj
 0001:000aebe0       ??0?$InlineAllocator@$0BBAA@VNamedAllocator@shdfnd@physx@@@shdfnd@physx@@QEAA@AEBV012@@Z 00000001800afbe0 f i GuContactConvexMesh.obj
 0001:000aec20       ??0?$InlineAllocator@$0BBAA@VNamedAllocator@shdfnd@physx@@@shdfnd@physx@@QEAA@AEBVNamedAllocator@12@@Z 00000001800afc20 f i GuContactConvexMesh.obj
 0001:000aec60       ??0?$InlineArray@I$0EEA@VNamedAllocator@shdfnd@physx@@@shdfnd@physx@@QEAA@AEBVNamedAllocator@12@@Z 00000001800afc60 f i GuContactConvexMesh.obj
 0001:000aecf0       ??0CachedEdge@Gu@physx@@QEAA@II@Z 00000001800afcf0 f i GuContactConvexMesh.obj
 0001:000aed40       ??0CachedEdge@Gu@physx@@QEAA@XZ 00000001800afd40 f i GuContactConvexMesh.obj
 0001:000aed50       ??0CachedVertex@Gu@physx@@QEAA@I@Z 00000001800afd50 f i GuContactConvexMesh.obj
 0001:000aed70       ??0CachedVertex@Gu@physx@@QEAA@XZ 00000001800afd70 f i GuContactConvexMesh.obj
 0001:000aed80       ??0ConvexMeshContactGenerationCallback@@QEAA@AEAV?$InlineArray@I$0EEA@VNamedAllocator@shdfnd@physx@@@shdfnd@physx@@AEBVPxTransform@3@1AEBUPolygonalData@Gu@3@AEBVMatrix34@Cm@3@3PEBVTriangleMesh@63@PEIBEAEBVFastVertex2ShapeScaling@83@6MM_N7M11AEAVContactBuffer@63@AEBVBoxPadded@63@@Z 00000001800afd80 f i GuContactConvexMesh.obj
 0001:000af040       ??0Matrix34@Cm@physx@@QEAA@AEBV012@@Z 00000001800b0040 f i GuContactConvexMesh.obj
 0001:000af090       ??0PxPlane@physx@@QEAA@AEBVPxVec3@1@00@Z 00000001800b0090 f i GuContactConvexMesh.obj
 0001:000af150       ??1?$Array@IV?$InlineAllocator@$0BBAA@VNamedAllocator@shdfnd@physx@@@shdfnd@physx@@@shdfnd@physx@@QEAA@XZ 00000001800b0150 f i GuContactConvexMesh.obj
 0001:000af1d0       ??1?$InlineAllocator@$0BBAA@VNamedAllocator@shdfnd@physx@@@shdfnd@physx@@QEAA@XZ 00000001800b01d0 f i GuContactConvexMesh.obj
 0001:000af1f0       ??1?$InlineArray@I$0EEA@VNamedAllocator@shdfnd@physx@@@shdfnd@physx@@QEAA@XZ 00000001800b01f0 f i GuContactConvexMesh.obj
 0001:000af210       ??1ConvexMeshContactGenerationCallback@@UEAA@XZ 00000001800b0210 f i GuContactConvexMesh.obj
 0001:000af250       ??8CachedEdge@Gu@physx@@QEBA_NAEBU012@@Z 00000001800b0250 f i GuContactConvexMesh.obj
 0001:000af2a0       ??8CachedVertex@Gu@physx@@QEBA_NAEBU012@@Z 00000001800b02a0 f i GuContactConvexMesh.obj
 0001:000af2e0       ??_EConvexMeshContactGenerationCallback@@UEAAPEAXI@Z 00000001800b02e0 f i GuContactConvexMesh.obj
 0001:000af2e0       ??_GConvexMeshContactGenerationCallback@@UEAAPEAXI@Z 00000001800b02e0 f i GuContactConvexMesh.obj
 0001:000af360       ?addData@?$CacheMap@UCachedEdge@Gu@physx@@$0IA@@Gu@physx@@QEAA_NAEBUCachedEdge@23@@Z 00000001800b0360 f i GuContactConvexMesh.obj
 0001:000af4d0       ?addData@?$CacheMap@UCachedVertex@Gu@physx@@$0IA@@Gu@physx@@QEAA_NAEBUCachedVertex@23@@Z 00000001800b04d0 f i GuContactConvexMesh.obj
 0001:000af640       ?allocate@?$Array@IV?$InlineAllocator@$0BBAA@VNamedAllocator@shdfnd@physx@@@shdfnd@physx@@@shdfnd@physx@@IEAAPEAII@Z 00000001800b0640 f i GuContactConvexMesh.obj
 0001:000af6d0       ?allocate@?$InlineAllocator@$0BBAA@VNamedAllocator@shdfnd@physx@@@shdfnd@physx@@QEAAPEAXIPEBDH@Z 00000001800b06d0 f i GuContactConvexMesh.obj
 0001:000af740       ?begin@?$Array@IV?$InlineAllocator@$0BBAA@VNamedAllocator@shdfnd@physx@@@shdfnd@physx@@@shdfnd@physx@@QEAAPEAIXZ 00000001800b0740 f i GuContactConvexMesh.obj
 0001:000af760       ?capacity@?$Array@IV?$InlineAllocator@$0BBAA@VNamedAllocator@shdfnd@physx@@@shdfnd@physx@@@shdfnd@physx@@QEBAIXZ 00000001800b0760 f i GuContactConvexMesh.obj
 0001:000af780       ?contains@?$CacheMap@UCachedEdge@Gu@physx@@$0IA@@Gu@physx@@QEBA_NAEBUCachedEdge@23@@Z 00000001800b0780 f i GuContactConvexMesh.obj
 0001:000af810       ?contains@?$CacheMap@UCachedVertex@Gu@physx@@$0IA@@Gu@physx@@QEBA_NAEBUCachedVertex@23@@Z 00000001800b0810 f i GuContactConvexMesh.obj
 0001:000af8a0       ?copy@?$Array@IV?$InlineAllocator@$0BBAA@VNamedAllocator@shdfnd@physx@@@shdfnd@physx@@@shdfnd@physx@@KAXPEAI0PEBI@Z 00000001800b08a0 f i GuContactConvexMesh.obj
 0001:000af920       ?deallocate@?$Array@IV?$InlineAllocator@$0BBAA@VNamedAllocator@shdfnd@physx@@@shdfnd@physx@@@shdfnd@physx@@IEAAXPEAX@Z 00000001800b0920 f i GuContactConvexMesh.obj
 0001:000af950       ?deallocate@?$InlineAllocator@$0BBAA@VNamedAllocator@shdfnd@physx@@@shdfnd@physx@@QEAAXPEAX@Z 00000001800b0950 f i GuContactConvexMesh.obj
 0001:000af990       ?destroy@?$Array@IV?$InlineAllocator@$0BBAA@VNamedAllocator@shdfnd@physx@@@shdfnd@physx@@@shdfnd@physx@@KAXPEAI0@Z 00000001800b0990 f i GuContactConvexMesh.obj
 0001:000af9c0       ?end@?$Array@IV?$InlineAllocator@$0BBAA@VNamedAllocator@shdfnd@physx@@@shdfnd@physx@@@shdfnd@physx@@QEAAPEAIXZ 00000001800b09c0 f i GuContactConvexMesh.obj
 0001:000af9f0       ?forceSize_Unsafe@?$Array@IV?$InlineAllocator@$0BBAA@VNamedAllocator@shdfnd@physx@@@shdfnd@physx@@@shdfnd@physx@@QEAAXI@Z 00000001800b09f0 f i GuContactConvexMesh.obj
 0001:000afa70       ?getHashCode@CachedEdge@Gu@physx@@QEBAIXZ 00000001800b0a70 f i GuContactConvexMesh.obj
 0001:000afaa0       ?getHashCode@CachedVertex@Gu@physx@@QEBAIXZ 00000001800b0aa0 f i GuContactConvexMesh.obj
 0001:000afab0       ?grow@?$Array@IV?$InlineAllocator@$0BBAA@VNamedAllocator@shdfnd@physx@@@shdfnd@physx@@@shdfnd@physx@@IEAAXI@Z 00000001800b0ab0 f i GuContactConvexMesh.obj
 0001:000afb30       ?hash@shdfnd@physx@@YAII@Z 00000001800b0b30 f i GuContactConvexMesh.obj
 0001:000afbb0       ?isInUserMemory@?$Array@IV?$InlineAllocator@$0BBAA@VNamedAllocator@shdfnd@physx@@@shdfnd@physx@@@shdfnd@physx@@QEBAIXZ 00000001800b0bb0 f i GuContactConvexMesh.obj
 0001:000afeb0       ?processHit@ConvexMeshContactGenerationCallback@@UEAA_NAEBUPxRaycastHit@physx@@AEBVPxVec3@3@11AEAMPEBI@Z 00000001800b0eb0 f i GuContactConvexMesh.obj
 0001:000affc0       ?recreate@?$Array@IV?$InlineAllocator@$0BBAA@VNamedAllocator@shdfnd@physx@@@shdfnd@physx@@@shdfnd@physx@@IEAAXI@Z 00000001800b0fc0 f i GuContactConvexMesh.obj
 0001:000b00f0       ?reserve@?$Array@IV?$InlineAllocator@$0BBAA@VNamedAllocator@shdfnd@physx@@@shdfnd@physx@@@shdfnd@physx@@QEAAXI@Z 00000001800b10f0 f i GuContactConvexMesh.obj
 0001:000b0120       ?size@?$Array@IV?$InlineAllocator@$0BBAA@VNamedAllocator@shdfnd@physx@@@shdfnd@physx@@@shdfnd@physx@@QEBAIXZ 00000001800b1120 f i GuContactConvexMesh.obj
 0001:000b0140       ?contactPlaneBox@Gu@physx@@YA_NAEBVGeometryUnion@12@0AEBVPxTransform@2@1AEBUNarrowPhaseParams@12@AEAUCache@12@AEAVContactBuffer@12@PEAVRenderOutput@Cm@2@@Z 00000001800b1140 f   GuContactPlaneBox.obj
 0001:000b0a40       ??$PxUnionCast@PEAIPEAM@physx@@YAPEAIPEAM@Z 00000001800b1a40 f i GuContactPlaneBox.obj
 0001:000b0a70       ??0AB@?1???$PxUnionCast@PEAIPEAM@physx@@YAPEAIPEAM@Z@QEAA@0@Z 00000001800b1a70 f i GuContactPlaneBox.obj
 0001:000b0a90       ?contactPlaneCapsule@Gu@physx@@YA_NAEBVGeometryUnion@12@0AEBVPxTransform@2@1AEBUNarrowPhaseParams@12@AEAUCache@12@AEAVContactBuffer@12@PEAVRenderOutput@Cm@2@@Z 00000001800b1a90 f   GuContactPlaneCapsule.obj
 0001:000b0cc0       ?contactPlaneConvex@Gu@physx@@YA_NAEBVGeometryUnion@12@0AEBVPxTransform@2@1AEBUNarrowPhaseParams@12@AEAUCache@12@AEAVContactBuffer@12@PEAVRenderOutput@Cm@2@@Z 00000001800b1cc0 f   GuContactPlaneConvex.obj
 0001:000b0f80       ??AMatrix34@Cm@physx@@QEAAAEAVPxVec3@2@H@Z 00000001800b1f80 f i GuContactPlaneConvex.obj
 0001:000b0fa0       ?contact@ContactBuffer@Gu@physx@@QEAAPEAUContactPoint@23@XZ 00000001800b1fa0 f i GuContactPlaneConvex.obj
 0001:000b1000       ?getVertex2ShapeSkew@FastVertex2ShapeScaling@Cm@physx@@QEBAAEBVPxMat33@3@XZ 00000001800b2000 f i GuContactPlaneConvex.obj
 0001:000b1090       ?findRotationMatrixFromZ@Gu@physx@@YA?AVPxMat33@2@AEBVPxVec3@2@@Z 00000001800b2090 f   GuContactPolygonPolygon.obj
 0001:000b17d0       ?contactPolygonPolygonExt@Gu@physx@@YA_NIPEBVPxVec3@2@PEBEAEBVMatrix34@Cm@2@AEBVPxPlane@2@AEBVPxMat33@2@I01234AEBV32@22IIAEAVContactBuffer@12@_N5M@Z 00000001800b27d0 f   GuContactPolygonPolygon.obj
 0001:000b3630       ??4ContactPoint@Gu@physx@@QEAAAEAU012@AEBU012@@Z 00000001800b4630 f i GuContactPolygonPolygon.obj
 0001:000b3730       ??RPxMat33@physx@@QEAAAEAMII@Z 00000001800b4730 f i GuContactPolygonPolygon.obj
 0001:000b3770       ?EdgeEdgeContactSpecial@@YA_NAEBVPxVec3@physx@@AEBVPxPlane@2@00000AEAMAEAV12@IIM@Z 00000001800b4770 f i GuContactPolygonPolygon.obj
 0001:000b3a80       ?cross001@shdfnd@physx@@YA?AVPxVec3@2@AEBV32@@Z 00000001800b4a80 f i GuContactPolygonPolygon.obj
 0001:000b3ad0       ?degToRad@shdfnd@physx@@YAMM@Z 00000001800b4ad0 f i GuContactPolygonPolygon.obj
 0001:000b3af0       ?pointInTriangle2D@@YA_NMMMMMMMM@Z 00000001800b4af0 f i GuContactPolygonPolygon.obj
 0001:000b3c90       ?transform2D@@YAXAEAM0AEBVPxVec3@physx@@AEBVMatrix34@Cm@2@@Z 00000001800b4c90 f i GuContactPolygonPolygon.obj
 0001:000b3d50       ?transform2DT@@YAXAEAM0AEBVPxVec3@physx@@AEBVPxMat33@2@@Z 00000001800b4d50 f i GuContactPolygonPolygon.obj
 0001:000b3db0       ?transformTranspose@@YA?AVMatrix34@Cm@physx@@AEBVPxMat33@3@AEBV123@@Z 00000001800b4db0 f i GuContactPolygonPolygon.obj
 0001:000b3e90       ?transformZ@@YAMAEBVPxVec3@physx@@AEBVMatrix34@Cm@2@@Z 00000001800b4e90 f i GuContactPolygonPolygon.obj
 0001:000b3ef0       ?contactSphereBox@Gu@physx@@YA_NAEBVGeometryUnion@12@0AEBVPxTransform@2@1AEBUNarrowPhaseParams@12@AEAUCache@12@AEAVContactBuffer@12@PEAVRenderOutput@Cm@2@@Z 00000001800b4ef0 f   GuContactSphereBox.obj
 0001:000b45d0       ??$checkType@$$CBVPxSphereGeometry@physx@@@physx@@YAXAEBVGeometryUnion@Gu@0@@Z 00000001800b55d0 f i GuContactSphereBox.obj
 0001:000b4640       ??$get@$$CBVPxSphereGeometry@physx@@@GeometryUnion@Gu@physx@@QEBAAEBVPxSphereGeometry@2@XZ 00000001800b5640 f i GuContactSphereBox.obj
 0001:000b46e0       ?contactSphereCapsule@Gu@physx@@YA_NAEBVGeometryUnion@12@0AEBVPxTransform@2@1AEBUNarrowPhaseParams@12@AEAUCache@12@AEAVContactBuffer@12@PEAVRenderOutput@Cm@2@@Z 00000001800b56e0 f   GuContactSphereCapsule.obj
 0001:000b49f0       ?contactSphereMesh@Gu@physx@@YA_NAEBVGeometryUnion@12@0AEBVPxTransform@2@1AEBUNarrowPhaseParams@12@AEAUCache@12@AEAVContactBuffer@12@PEAVRenderOutput@Cm@2@@Z 00000001800b59f0 f   GuContactSphereMesh.obj
 0001:000b4d10       ?contactSphereHeightfield@Gu@physx@@YA_NAEBVGeometryUnion@12@0AEBVPxTransform@2@1AEBUNarrowPhaseParams@12@AEAUCache@12@AEAVContactBuffer@12@PEAVRenderOutput@Cm@2@@Z 00000001800b5d10 f   GuContactSphereMesh.obj
 0001:000b5870       ??$median3@USortKey@@$$CBU?$Less@USortKey@@@shdfnd@physx@@@internal@shdfnd@physx@@YAXPEAUSortKey@@HHAEBU?$Less@USortKey@@@12@@Z 00000001800b6870 f i GuContactSphereMesh.obj
 0001:000b59d0       ??$partition@USortKey@@$$CBU?$Less@USortKey@@@shdfnd@physx@@@internal@shdfnd@physx@@YAHPEAUSortKey@@HHAEBU?$Less@USortKey@@@12@@Z 00000001800b69d0 f i GuContactSphereMesh.obj
 0001:000b5bc0       ??$smallSort@USortKey@@$$CBU?$Less@USortKey@@@shdfnd@physx@@@internal@shdfnd@physx@@YAXPEAUSortKey@@HHAEBU?$Less@USortKey@@@12@@Z 00000001800b6bc0 f i GuContactSphereMesh.obj
 0001:000b5f90       ??$swap@USortKey@@@shdfnd@physx@@YAXAEAUSortKey@@0@Z 00000001800b6f90 f i GuContactSphereMesh.obj
 0001:000b5fd0       ??0?$ScopedPointer@HVTempAllocator@shdfnd@physx@@@shdfnd@physx@@QEAA@XZ 00000001800b6fd0 f i GuContactSphereMesh.obj
 0001:000b6320       ??0TempAllocator@shdfnd@physx@@QEAA@PEBD@Z 00000001800b7320 f i GuContactSphereMesh.obj
 0001:000b6330       ??0TriangleData@@QEAA@XZ   00000001800b7330 f i GuContactSphereMesh.obj
 0001:000b6350       ??1?$ScopedPointer@HVTempAllocator@shdfnd@physx@@@shdfnd@physx@@QEAA@XZ 00000001800b7350 f i GuContactSphereMesh.obj
 0001:000b6450       ??B?$ScopedPointer@HVTempAllocator@shdfnd@physx@@@shdfnd@physx@@QEBAPEAHXZ 00000001800b7450 f i GuContactSphereMesh.obj
 0001:000b6460       ??MSortKey@@QEBA_NAEBU0@@Z 00000001800b7460 f i GuContactSphereMesh.obj
 0001:000b64a0       ??R?$Less@USortKey@@@shdfnd@physx@@QEBA_NAEBUSortKey@@0@Z 00000001800b74a0 f i GuContactSphereMesh.obj
 0001:000b7590       ?contactSpherePlane@Gu@physx@@YA_NAEBVGeometryUnion@12@0AEBVPxTransform@2@1AEBUNarrowPhaseParams@12@AEAUCache@12@AEAVContactBuffer@12@PEAVRenderOutput@Cm@2@@Z 00000001800b8590 f   GuContactSpherePlane.obj
 0001:000b76b0       ?contactSphereSphere@Gu@physx@@YA_NAEBVGeometryUnion@12@0AEBVPxTransform@2@1AEBUNarrowPhaseParams@12@AEAUCache@12@AEAVContactBuffer@12@PEAVRenderOutput@Cm@2@@Z 00000001800b86b0 f   GuContactSphereSphere.obj
 0001:000b7890       ?selectNormal@Gu@physx@@YA_NEMM@Z 00000001800b8890 f   GuFeatureCode.obj
 0001:000b7a50       ??0BigConvexData@physx@@QEAA@XZ 00000001800b8a50 f   GuBigConvexData.obj
 0001:000b7ad0       ??1BigConvexData@physx@@QEAA@XZ 00000001800b8ad0 f   GuBigConvexData.obj
 0001:000b7b70       ?Load@BigConvexData@physx@@QEAA_NAEAVPxInputStream@2@@Z 00000001800b8b70 f   GuBigConvexData.obj
 0001:000b7ce0       ?ComputeOffset@BigConvexData@physx@@QEBAIAEBVPxVec3@2@@Z 00000001800b8ce0 f   GuBigConvexData.obj
 0001:000b7d10       ?ComputeNearestOffset@BigConvexData@physx@@QEBAIAEBVPxVec3@2@@Z 00000001800b8d10 f   GuBigConvexData.obj
 0001:000b7d40       ?exportExtraData@BigConvexData@physx@@QEAAXAEAVPxSerializationContext@2@@Z 00000001800b8d40 f   GuBigConvexData.obj
 0001:000b7e20       ?importExtraData@BigConvexData@physx@@QEAAXAEAVPxDeserializationContext@2@@Z 00000001800b8e20 f   GuBigConvexData.obj
 0001:000b7ed0       ?CreateOffsets@BigConvexData@physx@@IEAAXXZ 00000001800b8ed0 f   GuBigConvexData.obj
 0001:000b7f60       ?VLoad@BigConvexData@physx@@IEAA_NAEAVPxInputStream@2@@Z 00000001800b8f60 f   GuBigConvexData.obj
 0001:000b8280       ??$readExtraData@E$0BA@@PxDeserializationContext@physx@@QEAAPEAEI@Z 00000001800b9280 f i GuBigConvexData.obj
 0001:000b82b0       ??$readExtraData@E@PxDeserializationContext@physx@@QEAAPEAEI@Z 00000001800b92b0 f i GuBigConvexData.obj
 0001:000b82f0       ??$readExtraData@UValency@Gu@physx@@@PxDeserializationContext@physx@@QEAAPEAUValency@Gu@1@I@Z 00000001800b92f0 f i GuBigConvexData.obj
 0001:000b8330       ?ComputeCubemapOffset@physx@@YAIAEBVPxVec3@1@I@Z 00000001800b9330 f i GuBigConvexData.obj
 0001:000b8400       ?getScaledConvex@Gu@physx@@YAXAEAPEAVPxVec3@2@AEAPEAEPEAV32@PEAE_NPEBV32@PEBEIAEBVFastVertex2ShapeScaling@Cm@2@@Z 00000001800b9400 f   GuConvexHelper.obj
 0001:000b84f0       ?getConvexData@Gu@physx@@YA_NAEBVGeometryUnion@12@AEAVFastVertex2ShapeScaling@Cm@2@AEAVPxBounds3@2@AEAUPolygonalData@12@@Z 00000001800b94f0 f   GuConvexHelper.obj
 0001:000b8630       ?findUniqueConvexEdges@Gu@physx@@YAIIPEIAUConvexEdge@12@IPEIBUHullPolygonData@12@PEIBE@Z 00000001800b9630 f   GuConvexHelper.obj
 0001:000b88b0       ?isEmpty@CenterExtents@Gu@physx@@QEBA_NXZ 00000001800b98b0 f i GuConvexHelper.obj
 0001:000b88e0       ?isEmpty@Cm@physx@@YA_NAEBVPxVec3@2@0@Z 00000001800b98e0 f i GuConvexHelper.obj
 0001:000b8980       ?isValid@CenterExtents@Gu@physx@@QEBA_NXZ 00000001800b9980 f i GuConvexHelper.obj
 0001:000b89b0       ?isValid@Cm@physx@@YA_NAEBVPxVec3@2@0@Z 00000001800b99b0 f i GuConvexHelper.obj
 0001:000b8a60       ?reset@InternalObjectsData@Gu@physx@@QEAAXXZ 00000001800b9a60 f i GuConvexHelper.obj
 0001:000b8ac0       ?transformFast@CenterExtents@Gu@physx@@QEBA?AVPxBounds3@3@AEBVPxMat33@3@@Z 00000001800b9ac0 f i GuConvexHelper.obj
 0001:000b8c30       ?exportExtraData@ConvexMesh@Gu@physx@@UEAAXAEAVPxSerializationContext@3@@Z 00000001800b9c30 f   GuConvexMesh.obj
 0001:000b8cf0       ?importExtraData@ConvexMesh@Gu@physx@@QEAAXAEAVPxDeserializationContext@3@@Z 00000001800b9cf0 f   GuConvexMesh.obj
 0001:000b8dd0       ?onRefCountZero@ConvexMesh@Gu@physx@@UEAAXXZ 00000001800b9dd0 f   GuConvexMesh.obj
 0001:000b8e90       ?createObject@ConvexMesh@Gu@physx@@SAPEAV123@AEAPEAEAEAVPxDeserializationContext@3@@Z 00000001800b9e90 f   GuConvexMesh.obj
 0001:000b8f50       ??0ConvexMesh@Gu@physx@@QEAA@XZ 00000001800b9f50 f   GuConvexMesh.obj
 0001:000b9040       ??0ConvexMesh@Gu@physx@@QEAA@AEAVGuMeshFactory@2@AEAUConvexHullInitData@12@@Z 00000001800ba040 f   GuConvexMesh.obj
 0001:000b9160       ?load@ConvexMesh@Gu@physx@@QEAA_NAEAVPxInputStream@3@@Z 00000001800ba160 f   GuConvexMesh.obj
 0001:000b9790       ?release@ConvexMesh@Gu@physx@@UEAAXXZ 00000001800ba790 f   GuConvexMesh.obj
 0001:000b97c0       ?getPolygonData@ConvexMesh@Gu@physx@@UEBA_NIAEAUPxHullPolygon@3@@Z 00000001800ba7c0 f   GuConvexMesh.obj
 0001:000b98a0       ?isGpuCompatible@ConvexMesh@Gu@physx@@UEBA_NXZ 00000001800ba8a0 f   GuConvexMesh.obj
 0001:000b9910       ?getReferenceCount@ConvexMesh@Gu@physx@@UEBAIXZ 00000001800ba910 f   GuConvexMesh.obj
 0001:000b9940       ?acquireReference@ConvexMesh@Gu@physx@@UEAAXXZ 00000001800ba940 f   GuConvexMesh.obj
 0001:000b9970       ?getMassInformation@ConvexMesh@Gu@physx@@UEBAXAEAMAEAVPxMat33@3@AEAVPxVec3@3@@Z 00000001800ba970 f   GuConvexMesh.obj
 0001:000b99e0       ?getLocalBounds@ConvexMesh@Gu@physx@@UEBA?AVPxBounds3@3@XZ 00000001800ba9e0 f   GuConvexMesh.obj
 0001:000b9a80       ??1ConvexMesh@Gu@physx@@UEAA@XZ 00000001800baa80 f   GuConvexMesh.obj
 0001:000ba540       ??$PX_UNUSED@G@@YAXAEBG@Z  00000001800bb540 f i GuConvexMesh.obj
 0001:000ba550       ??$deletePxBase@VConvexMesh@Gu@physx@@@Cm@physx@@YAXPEAVConvexMesh@Gu@1@@Z 00000001800bb550 f i GuConvexMesh.obj
 0001:000ba5e0       ??$readExtraData@VBigConvexData@physx@@$0BA@@PxDeserializationContext@physx@@QEAAPEAVBigConvexData@1@I@Z 00000001800bb5e0 f i GuConvexMesh.obj
 0001:000ba610       ??$readExtraData@VBigConvexData@physx@@@PxDeserializationContext@physx@@QEAAPEAVBigConvexData@1@I@Z 00000001800bb610 f i GuConvexMesh.obj
 0001:000ba650       ??0?$PxBitAndDataT@G$0IAAA@@physx@@QEAA@G_N@Z 00000001800bb650 f i GuConvexMesh.obj
 0001:000ba6a0       ??0?$PxBitAndDataT@G$0IAAA@@physx@@QEAA@W4PxEMPTY@1@@Z 00000001800bb6a0 f i GuConvexMesh.obj
 0001:000ba6b0       ??0?$PxBitAndDataT@G$0IAAA@@physx@@QEAA@XZ 00000001800bb6b0 f i GuConvexMesh.obj
 0001:000ba6d0       ??0?$PxBitAndDataT@I$0IAAAAAAA@@physx@@QEAA@I_N@Z 00000001800bb6d0 f i GuConvexMesh.obj
 0001:000ba720       ??0?$PxBitAndDataT@I$0IAAAAAAA@@physx@@QEAA@W4PxEMPTY@1@@Z 00000001800bb720 f i GuConvexMesh.obj
 0001:000ba730       ??0?$ReflectionAllocator@VBigConvexData@physx@@@shdfnd@physx@@QEAA@PEBD@Z 00000001800bb730 f i GuConvexMesh.obj
 0001:000ba740       ??0CenterExtents@Gu@physx@@QEAA@AEBVPxBounds3@2@@Z 00000001800bb740 f i GuConvexMesh.obj
 0001:000ba7c0       ??0ConvexHullData@Gu@physx@@QEAA@W4PxEMPTY@2@@Z 00000001800bb7c0 f i GuConvexMesh.obj
 0001:000ba810       ??0ConvexHullData@Gu@physx@@QEAA@XZ 00000001800bb810 f i GuConvexMesh.obj
 0001:000ba860       ??0ConvexMesh@Gu@physx@@QEAA@V?$PxFlags@W4Enum@PxBaseFlag@physx@@G@2@@Z 00000001800bb860 f i GuConvexMesh.obj
 0001:000ba920       ??0PxBase@physx@@IEAA@V?$PxFlags@W4Enum@PxBaseFlag@physx@@G@1@@Z 00000001800bb920 f i GuConvexMesh.obj
 0001:000ba960       ??0PxConvexMesh@physx@@IEAA@GV?$PxFlags@W4Enum@PxBaseFlag@physx@@G@1@@Z 00000001800bb960 f i GuConvexMesh.obj
 0001:000ba9c0       ??0PxConvexMesh@physx@@IEAA@V?$PxFlags@W4Enum@PxBaseFlag@physx@@G@1@@Z 00000001800bb9c0 f i GuConvexMesh.obj
 0001:000baa10       ??0RefCountable@Cm@physx@@QEAA@W4PxEMPTY@2@@Z 00000001800bba10 f i GuConvexMesh.obj
 0001:000baa90       ??1ConvexHullData@Gu@physx@@QEAA@XZ 00000001800bba90 f i GuConvexMesh.obj
 0001:000baab0       ??4ConvexHullData@Gu@physx@@QEAAAEAU012@AEBU012@@Z 00000001800bbab0 f i GuConvexMesh.obj
 0001:000bab70       ??B?$PxBitAndDataT@I$0IAAAAAAA@@physx@@QEBAIXZ 00000001800bbb70 f i GuConvexMesh.obj
 0001:000bab90       ??_EConvexMesh@Gu@physx@@UEAAPEAXI@Z 00000001800bbb90 f i GuConvexMesh.obj
 0001:000bac68       ??_EConvexMesh@Gu@physx@@WBA@EAAPEAXI@Z 00000001800bbc68 f i GuConvexMesh.obj
 0001:000bac80       ??_GBigConvexData@physx@@QEAAPEAXI@Z 00000001800bbc80 f i GuConvexMesh.obj
 0001:000bace0       ?allocate@?$ReflectionAllocator@VBigConvexData@physx@@@shdfnd@physx@@QEAAPEAX_KPEBDH@Z 00000001800bbce0 f i GuConvexMesh.obj
 0001:000bad60       ?centerExtents@PxBounds3@physx@@SA?AV12@AEBVPxVec3@2@0@Z 00000001800bbd60 f i GuConvexMesh.obj
 0001:000badc0       ?computeBufferSize@Gu@physx@@YAIAEBUConvexHullData@12@I@Z 00000001800bbdc0 f i GuConvexMesh.obj
 0001:000baee0       ?flipData@Gu@physx@@YAXAEAUHullPolygonData@12@@Z 00000001800bbee0 f i GuConvexMesh.obj
 0001:000baf40       ?getBufferSize@ConvexMesh@Gu@physx@@QEBAIXZ 00000001800bbf40 f i GuConvexMesh.obj
 0001:000baf70       ?getInertia@ConvexMesh@Gu@physx@@QEBAAEBVPxMat33@3@XZ 00000001800bbf70 f i GuConvexMesh.obj
 0001:000baf80       ?getMass@ConvexMesh@Gu@physx@@QEBAMXZ 00000001800bbf80 f i GuConvexMesh.obj
 0001:000baf90       ?getName@?$ReflectionAllocator@VBigConvexData@physx@@@shdfnd@physx@@CAPEBDXZ 00000001800bbf90 f i GuConvexMesh.obj
 0001:000bafd0       ?getNb@ConvexMesh@Gu@physx@@AEBAIXZ 00000001800bbfd0 f i GuConvexMesh.obj
 0001:000baff0       ?incRefCount@RefCountable@Cm@physx@@QEAAXXZ 00000001800bbff0 f i GuConvexMesh.obj
 0001:000bb070       ?requiresObjects@ConvexMesh@Gu@physx@@UEAAXAEAVPxProcessPxBaseCallback@3@@Z 00000001800bc070 f i GuConvexMesh.obj
 0001:000bb080       ?resolveReferences@ConvexMesh@Gu@physx@@QEAAXAEAVPxDeserializationContext@3@@Z 00000001800bc080 f i GuConvexMesh.obj
 0001:000bb090       ?setBit@?$PxBitAndDataT@I$0IAAAAAAA@@physx@@QEAAXXZ 00000001800bc090 f i GuConvexMesh.obj
 0001:000bb0b0       ?setEmpty@CenterExtents@Gu@physx@@QEAAXXZ 00000001800bc0b0 f i GuConvexMesh.obj
 0001:000bb0f0       ?BFFTF@aos@shdfnd@physx@@YA?AT__m128@@XZ 00000001800bc0f0 f i GuConvexSupportTable.obj
 0001:000bb130       ?BFTFF@aos@shdfnd@physx@@YA?AT__m128@@XZ 00000001800bc130 f i GuConvexSupportTable.obj
 0001:000bb170       ?BFTTF@aos@shdfnd@physx@@YA?AT__m128@@XZ 00000001800bc170 f i GuConvexSupportTable.obj
 0001:000bb1b0       ?BTFFF@aos@shdfnd@physx@@YA?AT__m128@@XZ 00000001800bc1b0 f i GuConvexSupportTable.obj
 0001:000bb1f0       ?BTFTF@aos@shdfnd@physx@@YA?AT__m128@@XZ 00000001800bc1f0 f i GuConvexSupportTable.obj
 0001:000bb230       ?BTTFF@aos@shdfnd@physx@@YA?AT__m128@@XZ 00000001800bc230 f i GuConvexSupportTable.obj
 0001:000bb270       ?computeHullOBB@Gu@physx@@YAXAEAVBox@12@AEBVPxBounds3@2@MAEBVMatrix34@Cm@2@2AEBVFastVertex2ShapeScaling@62@_N@Z 00000001800bc270 f   GuConvexUtilsInternal.obj
 0001:000bb3a0       ?computeVertexSpaceOBB@Gu@physx@@YAXAEAVBox@12@AEBV312@AEBVPxTransform@2@AEBVPxMeshScale@2@@Z 00000001800bc3a0 f   GuConvexUtilsInternal.obj
 0001:000bb450       ?computeOBBAroundConvex@Gu@physx@@YAXAEAVBox@12@AEBVPxConvexMeshGeometry@2@PEBVPxConvexMesh@2@AEBVPxTransform@2@@Z 00000001800bc450 f   GuConvexUtilsInternal.obj
 0001:000bb6b0       ??DMatrix34@Cm@physx@@QEBA?AV012@AEBVPxMat33@2@@Z 00000001800bc6b0 f i GuConvexUtilsInternal.obj
 0001:000bb710       ??Dphysx@@YA?AVMatrix34@Cm@0@AEBVPxMeshScale@0@AEBV120@@Z 00000001800bc710 f i GuConvexUtilsInternal.obj
 0001:000bb7a0       ?getLocalBoundsFast@ConvexMesh@Gu@physx@@QEBAAEBVCenterExtents@23@XZ 00000001800bc7a0 f i GuConvexUtilsInternal.obj
 0001:000bb7b0       ?transform@physx@@YA?AVBox@Gu@1@AEBVMatrix34@Cm@1@AEBV231@@Z 00000001800bc7b0 f i GuConvexUtilsInternal.obj
 0001:000bb940       ?transformTranspose@Matrix34@Cm@physx@@QEBA?AV123@AEBV123@@Z 00000001800bc940 f i GuConvexUtilsInternal.obj
 0001:000bba60       ?localSearch@physx@@YAXAEAIAEBVPxVec3@1@PEBV21@PEBUBigConvexRawData@Gu@1@@Z 00000001800bca60 f   GuHillClimbing.obj
 0001:000bbe10       ??0PolygonalBox@Gu@physx@@QEAA@AEBVPxVec3@2@@Z 00000001800bce10 f   GuShapeConvex.obj
 0001:000bc750       ?getPolygonalData@PolygonalBox@Gu@physx@@QEBAXPEIAUPolygonalData@23@@Z 00000001800bd750 f   GuShapeConvex.obj
 0001:000bc880       ?getPolygonalData_Convex@Gu@physx@@YAXPEIAUPolygonalData@12@PEIBUConvexHullData@12@AEBVFastVertex2ShapeScaling@Cm@2@@Z 00000001800bd880 f   GuShapeConvex.obj
 0001:000bd700       ?getFacesByEdges8@ConvexHullData@Gu@physx@@QEBAPEBEXZ 00000001800be700 f i GuShapeConvex.obj
 0001:000bd760       ?distancePointBoxSquared@Gu@physx@@YAMAEBVPxVec3@2@00AEBVPxMat33@2@PEAV32@@Z 00000001800be760 f   GuDistancePointBox.obj
 0001:000bda80       ?closestPtPointTriangle@Gu@physx@@YA?AVPxVec3@2@AEBV32@000AEAM1@Z 00000001800bea80 f   GuDistancePointTriangle.obj
 0001:000be090       ?distancePointTriangleSquared@Gu@physx@@YA?AT__m128@@AEBT3@000AEAT3@11@Z 00000001800bf090 f   GuDistancePointTriangle.obj
 0001:000bfab0       ?distanceSegmentBoxSquared@Gu@physx@@YAMAEBVPxVec3@2@000AEBVPxMat33@2@PEAMPEAV32@@Z 00000001800c0ab0 f   GuDistanceSegmentBox.obj
 0001:000c3e60       ?distanceSegmentSegmentSquared@Gu@physx@@YAMAEBVPxVec3@2@0M00MPEAM1@Z 00000001800c4e60 f   GuDistanceSegmentSegment.obj
 0001:000c5490       ?distanceSegmentSegmentSquared@Gu@physx@@YAMAEBVPxVec3@2@000PEAM1@Z 00000001800c6490 f   GuDistanceSegmentSegment.obj
 0001:000c5750       ?distanceSegmentSegmentSquared@Gu@physx@@YA?AT__m128@@AEBT3@000AEAT3@1@Z 00000001800c6750 f   GuDistanceSegmentSegment.obj
 0001:000c61b0       ?distanceSegmentSegmentSquared4@Gu@physx@@YA?AT__m128@@AEBT3@000000000AEAT3@1@Z 00000001800c71b0 f   GuDistanceSegmentSegment.obj
 0001:000c7870       ?FHalf@aos@shdfnd@physx@@YA?AT__m128@@XZ 00000001800c8870 f i GuDistanceSegmentSegment.obj
 0001:000c7890       ?V3Dot4@aos@shdfnd@physx@@YA?AT__m128@@AEBT4@0000000@Z 00000001800c8890 f i GuDistanceSegmentSegment.obj
 0001:000c7c10       ?V4Clamp@aos@shdfnd@physx@@YA?AT__m128@@T4@00@Z 00000001800c8c10 f i GuDistanceSegmentSegment.obj
 0001:000c7ca0       ?V4Div@aos@shdfnd@physx@@YA?AT__m128@@T4@0@Z 00000001800c8ca0 f i GuDistanceSegmentSegment.obj
 0001:000c7cd0       ?V4Eps@aos@shdfnd@physx@@YA?AT__m128@@XZ 00000001800c8cd0 f i GuDistanceSegmentSegment.obj
 0001:000c7cf0       ?V4IsGrtr@aos@shdfnd@physx@@YA?AT__m128@@T4@0@Z 00000001800c8cf0 f i GuDistanceSegmentSegment.obj
 0001:000c7d20       ?V4One@aos@shdfnd@physx@@YA?AT__m128@@XZ 00000001800c8d20 f i GuDistanceSegmentSegment.obj
 0001:000c7d40       ?V4Recip@aos@shdfnd@physx@@YA?AT__m128@@T4@@Z 00000001800c8d40 f i GuDistanceSegmentSegment.obj
 0001:000c7d70       ?V4Splat@aos@shdfnd@physx@@YA?AT__m128@@T4@@Z 00000001800c8d70 f i GuDistanceSegmentSegment.obj
 0001:000c7df0       ?V4UnpackXY@aos@shdfnd@physx@@YA?AT__m128@@AEBT4@0@Z 00000001800c8df0 f i GuDistanceSegmentSegment.obj
 0001:000c7e20       ?V4UnpackZW@aos@shdfnd@physx@@YA?AT__m128@@AEBT4@0@Z 00000001800c8e20 f i GuDistanceSegmentSegment.obj
 0001:000c7e50       ?distanceSegmentTriangleSquared@Gu@physx@@YAMAEBVPxVec3@2@0000PEAM11@Z 00000001800c8e50 f   GuDistanceSegmentTriangle.obj
 0001:000c9a60       ?distanceSegmentTriangleSquared@Gu@physx@@YA?AT__m128@@AEBT3@0000AEAT3@1@Z 00000001800caa60 f   GuDistanceSegmentTriangle.obj
 0001:000cbd50       ?isValidTriangleBarycentricCoord@Gu@physx@@YA?AT__m128@@AEBT3@0@Z 00000001800ccd50 f i GuDistanceSegmentTriangle.obj
 0001:000cc0a0       ?epaPenetration@Gu@physx@@YA?AW4GjkStatus@12@AEBUGjkConvex@12@0PEIBE1E_NT__m128@@AEAUGjkOutput@12@@Z 00000001800cd0a0 f   GuEPA.obj
 0001:000cc290       ?isValid2@Facet@Gu@physx@@QEAA?AT__m128@@IIIPEIBT4@0AEBT4@@Z 00000001800cd290 f   GuEPA.obj
 0001:000cc7c0       ?silhouette@Facet@Gu@physx@@QEAAXAEBT__m128@@PEIBT4@1AEAVEdgeBuffer@23@AEAV?$InlineDeferredIDPool@$0EA@@Cm@3@@Z 00000001800cd7c0 f   GuEPA.obj
 0001:000cc860       ?PenetrationDepth@EPA@Gu@physx@@QEAA?AW4GjkStatus@23@AEBUGjkConvex@23@0PEIBT__m128@@1E_NT6@AEAUGjkOutput@23@@Z 00000001800cd860 f   GuEPA.obj
 0001:000cde20       ?expandPoint@EPA@Gu@physx@@QEAA_NAEBUGjkConvex@23@0AEAHAEBT__m128@@@Z 00000001800cee20 f   GuEPA.obj
 0001:000cdf90       ?expandSegment@EPA@Gu@physx@@QEAA_NAEBUGjkConvex@23@0AEAHAEBT__m128@@@Z 00000001800cef90 f   GuEPA.obj
 0001:000ce400       ?expandTriangle@EPA@Gu@physx@@QEAA_NAEAHAEBT__m128@@@Z 00000001800cf400 f   GuEPA.obj
 0001:000ce4e0       ?addFacet@EPA@Gu@physx@@QEAAPEAVFacet@23@IIIAEBT__m128@@@Z 00000001800cf4e0 f   GuEPA.obj
 0001:000cec30       ??0?$DeferredIDPoolBase@V?$InlineFixedArray@I$0EA@@Cm@physx@@@Cm@physx@@QEAA@XZ 00000001800cfc30 f i GuEPA.obj
 0001:000cec60       ??0?$IDPoolBase@V?$InlineFixedArray@I$0EA@@Cm@physx@@@Cm@physx@@QEAA@XZ 00000001800cfc60 f i GuEPA.obj
 0001:000cec90       ??0?$InlineDeferredIDPool@$0EA@@Cm@physx@@QEAA@XZ 00000001800cfc90 f i GuEPA.obj
 0001:000cecb0       ??0?$InlineFixedArray@I$0EA@@Cm@physx@@QEAA@XZ 00000001800cfcb0 f i GuEPA.obj
 0001:000cecd0       ??0?$InlinePriorityQueue@PEAVFacet@Gu@physx@@$0EA@UFacetDistanceComparator@23@@Cm@physx@@QEAA@AEBUFacetDistanceComparator@Gu@2@@Z 00000001800cfcd0 f i GuEPA.obj
 0001:000ced10       ??0?$PriorityQueueBase@PEAVFacet@Gu@physx@@UFacetDistanceComparator@23@@Cm@physx@@QEAA@AEBUFacetDistanceComparator@Gu@2@PEAPEAVFacet@42@@Z 00000001800cfd10 f i GuEPA.obj
 0001:000ced40       ??0EPA@Gu@physx@@QEAA@XZ   00000001800cfd40 f i GuEPA.obj
 0001:000cedb0       ??0Edge@Gu@physx@@QEAA@PEIAVFacet@12@I@Z 00000001800cfdb0 f i GuEPA.obj
 0001:000cede0       ??0Edge@Gu@physx@@QEAA@XZ  00000001800cfde0 f i GuEPA.obj
 0001:000cedf0       ??0EdgeBuffer@Gu@physx@@QEAA@XZ 00000001800cfdf0 f i GuEPA.obj
 0001:000cee40       ??0Facet@Gu@physx@@QEAA@III@Z 00000001800cfe40 f i GuEPA.obj
 0001:000cef50       ??0Facet@Gu@physx@@QEAA@XZ 00000001800cff50 f i GuEPA.obj
 0001:000cef60       ??1?$DeferredIDPoolBase@V?$InlineFixedArray@I$0EA@@Cm@physx@@@Cm@physx@@QEAA@XZ 00000001800cff60 f i GuEPA.obj
 0001:000cef90       ??1?$IDPoolBase@V?$InlineFixedArray@I$0EA@@Cm@physx@@@Cm@physx@@QEAA@XZ 00000001800cff90 f i GuEPA.obj
 0001:000cefb0       ??1?$InlineDeferredIDPool@$0EA@@Cm@physx@@QEAA@XZ 00000001800cffb0 f i GuEPA.obj
 0001:000cefd0       ??1?$InlineFixedArray@I$0EA@@Cm@physx@@QEAA@XZ 00000001800cffd0 f i GuEPA.obj
 0001:000cefe0       ??1?$InlinePriorityQueue@PEAVFacet@Gu@physx@@$0EA@UFacetDistanceComparator@23@@Cm@physx@@QEAA@XZ 00000001800cffe0 f i GuEPA.obj
 0001:000cf000       ??1?$PriorityQueueBase@PEAVFacet@Gu@physx@@UFacetDistanceComparator@23@@Cm@physx@@QEAA@XZ 00000001800d0000 f i GuEPA.obj
 0001:000cf010       ??1EPA@Gu@physx@@QEAA@XZ   00000001800d0010 f i GuEPA.obj
 0001:000cf040       ??4Edge@Gu@physx@@QEAAAEAV012@AEBV012@@Z 00000001800d0040 f i GuEPA.obj
 0001:000cf070       ??A?$InlineFixedArray@I$0EA@@Cm@physx@@QEAAAEAII@Z 00000001800d0070 f i GuEPA.obj
 0001:000cf0e0       ??AFacet@Gu@physx@@QEBAII@Z 00000001800d00e0 f i GuEPA.obj
 0001:000cf100       ??MFacet@Gu@physx@@QEBA_NAEBV012@@Z 00000001800d0100 f i GuEPA.obj
 0001:000cf140       ??RFacetDistanceComparator@Gu@physx@@QEBA_NPEBVFacet@12@0@Z 00000001800d0140 f i GuEPA.obj
 0001:000cf170       ?FNegScaleSub@aos@shdfnd@physx@@YA?AT__m128@@T4@00@Z 00000001800d0170 f i GuEPA.obj
 0001:000cf360       ?FRsqrt@aos@shdfnd@physx@@YA?AT__m128@@T4@@Z 00000001800d0360 f i GuEPA.obj
 0001:000cf410       ?FSqrt@aos@shdfnd@physx@@YA?AT__m128@@T4@@Z 00000001800d0410 f i GuEPA.obj
 0001:000cf4a0       ?Get@EdgeBuffer@Gu@physx@@QEAAPEAVEdge@23@I@Z 00000001800d04a0 f i GuEPA.obj
 0001:000cf520       ?Insert@EdgeBuffer@Gu@physx@@QEAAPEAVEdge@23@PEIAVFacet@23@I@Z 00000001800d0520 f i GuEPA.obj
 0001:000cf5b0       ?IsValid@EdgeBuffer@Gu@physx@@QEAA_NXZ 00000001800d05b0 f i GuEPA.obj
 0001:000cf5f0       ?MakeEmpty@EdgeBuffer@Gu@physx@@QEAAXXZ 00000001800d05f0 f i GuEPA.obj
 0001:000cf620       ?Size@EdgeBuffer@Gu@physx@@QEAAIXZ 00000001800d0620 f i GuEPA.obj
 0001:000cf640       ?Valid@Facet@Gu@physx@@QEAA_NXZ 00000001800d0640 f i GuEPA.obj
 0001:000cf6e0       ?clear@?$InlineFixedArray@I$0EA@@Cm@physx@@QEAAXXZ 00000001800d06e0 f i GuEPA.obj
 0001:000cf700       ?clear@?$PriorityQueueBase@PEAVFacet@Gu@physx@@UFacetDistanceComparator@23@@Cm@physx@@QEAAXXZ 00000001800d0700 f i GuEPA.obj
 0001:000cf720       ?compare@?$PriorityQueueBase@PEAVFacet@Gu@physx@@UFacetDistanceComparator@23@@Cm@physx@@IEBA_NAEBQEAVFacet@Gu@3@0@Z 00000001800d0720 f i GuEPA.obj
 0001:000cf760       ?deferredFreeID@?$DeferredIDPoolBase@V?$InlineFixedArray@I$0EA@@Cm@physx@@@Cm@physx@@QEAAXI@Z 00000001800d0760 f i GuEPA.obj
 0001:000cf790       ?empty@?$PriorityQueueBase@PEAVFacet@Gu@physx@@UFacetDistanceComparator@23@@Cm@physx@@QEBA_NXZ 00000001800d0790 f i GuEPA.obj
 0001:000cf7c0       ?freeID@?$IDPoolBase@V?$InlineFixedArray@I$0EA@@Cm@physx@@@Cm@physx@@QEAAXI@Z 00000001800d07c0 f i GuEPA.obj
 0001:000cf810       ?getClosestPoint@Facet@Gu@physx@@QEAAXPEIBT__m128@@0AEAT4@1@Z 00000001800d0810 f i GuEPA.obj
 0001:000d0290       ?getFacet@Edge@Gu@physx@@QEBAPEAVFacet@23@XZ 00000001800d1290 f i GuEPA.obj
 0001:000d02a0       ?getIndex@Edge@Gu@physx@@QEBAIXZ 00000001800d12a0 f i GuEPA.obj
 0001:000d02b0       ?getNewID@?$IDPoolBase@V?$InlineFixedArray@I$0EA@@Cm@physx@@@Cm@physx@@QEAAIXZ 00000001800d12b0 f i GuEPA.obj
 0001:000d0310       ?getNumRemainingIDs@?$InlineDeferredIDPool@$0EA@@Cm@physx@@QEAAIXZ 00000001800d1310 f i GuEPA.obj
 0001:000d0340       ?getNumUsedID@?$DeferredIDPoolBase@V?$InlineFixedArray@I$0EA@@Cm@physx@@@Cm@physx@@QEBAIXZ 00000001800d1340 f i GuEPA.obj
 0001:000d0380       ?getNumUsedID@?$IDPoolBase@V?$InlineFixedArray@I$0EA@@Cm@physx@@@Cm@physx@@QEBAIXZ 00000001800d1380 f i GuEPA.obj
 0001:000d03b0       ?getPlaneDist@Facet@Gu@physx@@QEBA?AT__m128@@AEBT4@PEIBT4@1@Z 00000001800d13b0 f i GuEPA.obj
 0001:000d0500       ?getPlaneDist@Facet@Gu@physx@@QEBA?AT__m128@@XZ 00000001800d1500 f i GuEPA.obj
 0001:000d0540       ?getPlaneNormal@Facet@Gu@physx@@QEBA?AT__m128@@XZ 00000001800d1540 f i GuEPA.obj
 0001:000d0560       ?getSource@Edge@Gu@physx@@QEBAIXZ 00000001800d1560 f i GuEPA.obj
 0001:000d05e0       ?getTarget@Edge@Gu@physx@@QEBAIXZ 00000001800d15e0 f i GuEPA.obj
 0001:000d0660       ?incMod3@Gu@physx@@YAII@Z  00000001800d1660 f i GuEPA.obj
 0001:000d0680       ?isObsolete@Facet@Gu@physx@@QEBA_NXZ 00000001800d1680 f i GuEPA.obj
 0001:000d0690       ?left@?$PriorityQueueBase@PEAVFacet@Gu@physx@@UFacetDistanceComparator@23@@Cm@physx@@KAII@Z 00000001800d1690 f i GuEPA.obj
 0001:000d06a0       ?link@Facet@Gu@physx@@QEAA_NIPEIAV123@I@Z 00000001800d16a0 f i GuEPA.obj
 0001:000d0780       ?parent@?$PriorityQueueBase@PEAVFacet@Gu@physx@@UFacetDistanceComparator@23@@Cm@physx@@KAII@Z 00000001800d1780 f i GuEPA.obj
 0001:000d0790       ?pop@?$PriorityQueueBase@PEAVFacet@Gu@physx@@UFacetDistanceComparator@23@@Cm@physx@@QEAAPEAVFacet@Gu@3@XZ 00000001800d1790 f i GuEPA.obj
 0001:000d09e0       ?popBack@?$InlineFixedArray@I$0EA@@Cm@physx@@QEAAIXZ 00000001800d19e0 f i GuEPA.obj
 0001:000d0a70       ?processDeferredIds@?$DeferredIDPoolBase@V?$InlineFixedArray@I$0EA@@Cm@physx@@@Cm@physx@@QEAAXXZ 00000001800d1a70 f i GuEPA.obj
 0001:000d0af0       ?push@?$InlinePriorityQueue@PEAVFacet@Gu@physx@@$0EA@UFacetDistanceComparator@23@@Cm@physx@@QEAAXAEAPEAVFacet@Gu@3@@Z 00000001800d1af0 f i GuEPA.obj
 0001:000d0b70       ?push@?$PriorityQueueBase@PEAVFacet@Gu@physx@@UFacetDistanceComparator@23@@Cm@physx@@QEAAXAEBQEAVFacet@Gu@3@@Z 00000001800d1b70 f i GuEPA.obj
 0001:000d0c90       ?pushBack@?$InlineFixedArray@I$0EA@@Cm@physx@@QEAAXAEBI@Z 00000001800d1c90 f i GuEPA.obj
 0001:000d0d30       ?silhouette@Facet@Gu@physx@@QEAAXIAEBT__m128@@PEIBT4@1AEAVEdgeBuffer@23@AEAV?$InlineDeferredIDPool@$0EA@@Cm@3@@Z 00000001800d1d30 f i GuEPA.obj
 0001:000d1060       ?size@?$InlineFixedArray@I$0EA@@Cm@physx@@QEBAIXZ 00000001800d2060 f i GuEPA.obj
 0001:000d1080       ?size@?$PriorityQueueBase@PEAVFacet@Gu@physx@@UFacetDistanceComparator@23@@Cm@physx@@QEBAIXZ 00000001800d2080 f i GuEPA.obj
 0001:000d1090       ?toI8@shdfnd@physx@@YACI@Z 00000001800d2090 f i GuEPA.obj
 0001:000d1100       ?top@?$PriorityQueueBase@PEAVFacet@Gu@physx@@UFacetDistanceComparator@23@@Cm@physx@@QEAAPEAVFacet@Gu@3@XZ 00000001800d2100 f i GuEPA.obj
 0001:000d1120       ?valid@?$PriorityQueueBase@PEAVFacet@Gu@physx@@UFacetDistanceComparator@23@@Cm@physx@@QEBA_NXZ 00000001800d2120 f i GuEPA.obj
 0001:000d11a0       ?closestPtPointTetrahedron@Gu@physx@@YA?AT__m128@@PEIAT3@00AEAI@Z 00000001800d21a0 f   GuGJKSimplex.obj
 0001:000d1790       ?closestPtPointTetrahedron@Gu@physx@@YA?AT__m128@@PEIAT3@00PEIAH1AEAI@Z 00000001800d2790 f   GuGJKSimplex.obj
 0001:000d26a0       ?BGetW@aos@shdfnd@physx@@YA?AT__m128@@T4@@Z 00000001800d36a0 f i GuGJKSimplex.obj
 0001:000d26d0       ?BGetX@aos@shdfnd@physx@@YA?AT__m128@@T4@@Z 00000001800d36d0 f i GuGJKSimplex.obj
 0001:000d2700       ?BGetY@aos@shdfnd@physx@@YA?AT__m128@@T4@@Z 00000001800d3700 f i GuGJKSimplex.obj
 0001:000d2730       ?BGetZ@aos@shdfnd@physx@@YA?AT__m128@@T4@@Z 00000001800d3730 f i GuGJKSimplex.obj
 0001:000d2760       ?PointOutsideOfPlane4@Gu@physx@@YA?AT__m128@@AEBT3@000@Z 00000001800d3760 f i GuGJKSimplex.obj
 0001:000d2dd0       ?V4Merge@aos@shdfnd@physx@@YA?AT__m128@@AEBT4@000@Z 00000001800d3dd0 f i GuGJKSimplex.obj
 0001:000d3030       ?testGjk@Gu@physx@@YA?AW4GjkStatus@12@AEAUGjkConvex@12@0AEBT__m128@@1AEAT5@222@Z 00000001800d4030 f   GuGJKTest.obj
 0001:000d30a0       ?testGjkPenetration@Gu@physx@@YA?AW4GjkStatus@12@AEAUGjkConvex@12@0AEBT__m128@@1PEAE2AEAEAEAUGjkOutput@12@@Z 00000001800d40a0 f   GuGJKTest.obj
 0001:000d3120       ?testEpaPenetration@Gu@physx@@YA?AW4GjkStatus@12@AEAUGjkConvex@12@0PEBE1EAEAUGjkOutput@12@@Z 00000001800d4120 f   GuGJKTest.obj
 0001:000d31b0       ?testGjkRaycast@Gu@physx@@YA_NAEAUGjkConvex@12@0AEBT__m128@@111AEAT4@22M@Z 00000001800d41b0 f   GuGJKTest.obj
 0001:000d3240       ??$gjk@UGjkConvex@Gu@physx@@U123@@Gu@physx@@YA?AW4GjkStatus@01@AEBUGjkConvex@01@0AEBT__m128@@1AEAT4@222@Z 00000001800d4240 f i GuGJKTest.obj
 0001:000d4380       ??$gjkPenetration@UGjkConvex@Gu@physx@@U123@@Gu@physx@@YA?AW4GjkStatus@01@AEBUGjkConvex@01@0AEBT__m128@@1_NPEIAE3AEAEAEAUGjkOutput@01@@Z 00000001800d5380 f i GuGJKTest.obj
 0001:000d55c0       ??$gjkRaycast@UGjkConvex@Gu@physx@@U123@@Gu@physx@@YA_NAEBUGjkConvex@01@0AEBT__m128@@111AEAT3@22M@Z 00000001800d65c0 f i GuGJKTest.obj
 0001:000d6a50       ?exportExtraData@HeightField@Gu@physx@@UEAAXAEAVPxSerializationContext@3@@Z 00000001800d7a50 f   GuHeightField.obj
 0001:000d6ac0       ?importExtraData@HeightField@Gu@physx@@QEAAXAEAVPxDeserializationContext@3@@Z 00000001800d7ac0 f   GuHeightField.obj
 0001:000d6b00       ?createObject@HeightField@Gu@physx@@SAPEAV123@AEAPEAEAEAVPxDeserializationContext@3@@Z 00000001800d7b00 f   GuHeightField.obj
 0001:000d6bc0       ??0HeightField@Gu@physx@@QEAA@PEAVGuMeshFactory@2@@Z 00000001800d7bc0 f   GuHeightField.obj
 0001:000d6d00       ??0HeightField@Gu@physx@@QEAA@AEAVGuMeshFactory@2@AEAUHeightFieldData@12@@Z 00000001800d7d00 f   GuHeightField.obj
 0001:000d6e10       ?release@HeightField@Gu@physx@@UEAAXXZ 00000001800d7e10 f   GuHeightField.obj
 0001:000d6e40       ?saveCells@HeightField@Gu@physx@@UEBAIPEAXI@Z 00000001800d7e40 f   GuHeightField.obj
 0001:000d6eb0       ?modifySamples@HeightField@Gu@physx@@UEAA_NHHAEBVPxHeightFieldDesc@3@_N@Z 00000001800d7eb0 f   GuHeightField.obj
 0001:000d7290       ?acquireReference@HeightField@Gu@physx@@UEAAXXZ 00000001800d8290 f   GuHeightField.obj
 0001:000d72c0       ?getReferenceCount@HeightField@Gu@physx@@UEBAIXZ 00000001800d82c0 f   GuHeightField.obj
 0001:000d72f0       ?onRefCountZero@HeightField@Gu@physx@@UEAAXXZ 00000001800d82f0 f   GuHeightField.obj
 0001:000d73f0       ?loadFromDesc@HeightField@Gu@physx@@QEAA_NAEBVPxHeightFieldDesc@3@@Z 00000001800d83f0 f   GuHeightField.obj
 0001:000d78f0       ?load@HeightField@Gu@physx@@QEAA_NAEAVPxInputStream@3@@Z 00000001800d88f0 f   GuHeightField.obj
 0001:000d7d50       ?computeCellCoordinates@HeightField@Gu@physx@@QEBAIMMAEAM0@Z 00000001800d8d50 f   GuHeightField.obj
 0001:000d8020       ?isSolidVertex@HeightField@Gu@physx@@QEBA_NIIIGAEA_N@Z 00000001800d9020 f   GuHeightField.obj
 0001:000d8240       ?isCollisionVertexPreca@HeightField@Gu@physx@@QEBA_NIIIG@Z 00000001800d9240 f   GuHeightField.obj
 0001:000d8410       ?parseTrianglesForCollisionVertices@HeightField@Gu@physx@@QEAAXG@Z 00000001800d9410 f   GuHeightField.obj
 0001:000d87d0       ?releaseMemory@HeightField@Gu@physx@@QEAAXXZ 00000001800d97d0 f   GuHeightField.obj
 0001:000d8840       ??1HeightField@Gu@physx@@UEAA@XZ 00000001800d9840 f   GuHeightField.obj
 0001:000d88b0       ?getVertexEdgeIndices@physx@@YAIAEBVHeightField@Gu@1@IIIQEAUEdgeData@1@@Z 00000001800d98b0 f   GuHeightField.obj
 0001:000d8e90       ?getEdgeTriangleIndices@physx@@YAIAEBVHeightField@Gu@1@AEBUEdgeData@1@PEIAI@Z 00000001800d9e90 f   GuHeightField.obj
 0001:000d9210       ??$deletePxBase@VHeightField@Gu@physx@@@Cm@physx@@YAXPEAVHeightField@Gu@1@@Z 00000001800da210 f i GuHeightField.obj
 0001:000d92a0       ??$readExtraData@UPxHeightFieldSample@physx@@$0BA@@PxDeserializationContext@physx@@QEAAPEAUPxHeightFieldSample@1@I@Z 00000001800da2a0 f i GuHeightField.obj
 0001:000d92d0       ??$readExtraData@UPxHeightFieldSample@physx@@@PxDeserializationContext@physx@@QEAAPEAUPxHeightFieldSample@1@I@Z 00000001800da2d0 f i GuHeightField.obj
 0001:000d9310       ??0?$BitMapBase@VNonTrackingAllocator@shdfnd@physx@@@Cm@physx@@QEAA@XZ 00000001800da310 f i GuHeightField.obj
 0001:000d9350       ??0?$PxFlags@W4Enum@PxHeightFieldFlag@physx@@G@physx@@QEAA@G@Z 00000001800da350 f i GuHeightField.obj
 0001:000d9370       ??0HeightField@Gu@physx@@QEAA@V?$PxFlags@W4Enum@PxBaseFlag@physx@@G@2@@Z 00000001800da370 f i GuHeightField.obj
 0001:000d9400       ??0PxHeightField@physx@@IEAA@GV?$PxFlags@W4Enum@PxBaseFlag@physx@@G@1@@Z 00000001800da400 f i GuHeightField.obj
 0001:000d9460       ??0PxHeightField@physx@@IEAA@V?$PxFlags@W4Enum@PxBaseFlag@physx@@G@1@@Z 00000001800da460 f i GuHeightField.obj
 0001:000d94b0       ??1?$BitMapBase@VNonTrackingAllocator@shdfnd@physx@@@Cm@physx@@QEAA@XZ 00000001800da4b0 f i GuHeightField.obj
 0001:000d9500       ??9?$PxFlags@W4Enum@PxHeightFieldFlag@physx@@G@physx@@QEBA_NAEBV01@@Z 00000001800da500 f i GuHeightField.obj
 0001:000d9540       ??_EHeightField@Gu@physx@@UEAAPEAXI@Z 00000001800da540 f i GuHeightField.obj
 0001:000d9618       ??_EHeightField@Gu@physx@@WBA@EAAPEAXI@Z 00000001800da618 f i GuHeightField.obj
 0001:000d9630       ?PxMemSet@physx@@YAPEAXPEAXHI@Z 00000001800da630 f i GuHeightField.obj
 0001:000d9660       ?anyHole@@YAIIG@Z          00000001800da660 f i GuHeightField.obj
 0001:000d96d0       ?clear@?$BitMapBase@VNonTrackingAllocator@shdfnd@physx@@@Cm@physx@@QEAAXXZ 00000001800da6d0 f i GuHeightField.obj
 0001:000d9700       ?clearBit@?$PxBitAndDataT@E$0IA@@physx@@QEAAXXZ 00000001800da700 f i GuHeightField.obj
 0001:000d9720       ?extendUninitialized@?$BitMapBase@VNonTrackingAllocator@shdfnd@physx@@@Cm@physx@@IEAAXI@Z 00000001800da720 f i GuHeightField.obj
 0001:000d97c0       ?flip@physx@@YAXAEAF@Z     00000001800da7c0 f i GuHeightField.obj
 0001:000d9830       ?getMaterialIndex01@HeightField@Gu@physx@@QEBAII@Z 00000001800da830 f i GuHeightField.obj
 0001:000d9890       ?getMaxHeight@HeightField@Gu@physx@@QEBAMXZ 00000001800da890 f i GuHeightField.obj
 0001:000d98a0       ?getMinHeight@HeightField@Gu@physx@@QEBAMXZ 00000001800da8a0 f i GuHeightField.obj
 0001:000d98b0       ?getWordCount@?$BitMapBase@VNonTrackingAllocator@shdfnd@physx@@@Cm@physx@@QEBAIXZ 00000001800da8b0 f i GuHeightField.obj
 0001:000d98d0       ?isConvexVertex@HeightField@Gu@physx@@QEBA_NIII@Z 00000001800da8d0 f i GuHeightField.obj
 0001:000d9b40       ?isInUserMemory@?$BitMapBase@VNonTrackingAllocator@shdfnd@physx@@@Cm@physx@@QEBAIXZ 00000001800dab40 f i GuHeightField.obj
 0001:000d9b60       ?isValid@PxHeightFieldDesc@physx@@QEBA_NXZ 00000001800dab60 f i GuHeightField.obj
 0001:000d9c10       ?requiresObjects@HeightField@Gu@physx@@UEAAXAEAVPxProcessPxBaseCallback@3@@Z 00000001800dac10 f i GuHeightField.obj
 0001:000d9c20       ?resizeAndClear@?$BitMapBase@VNonTrackingAllocator@shdfnd@physx@@@Cm@physx@@QEAAXI@Z 00000001800dac20 f i GuHeightField.obj
 0001:000d9c70       ?resolveReferences@HeightField@Gu@physx@@QEAAXAEAVPxDeserializationContext@3@@Z 00000001800dac70 f i GuHeightField.obj
 0001:000d9c80       ?set@?$BitMapBase@VNonTrackingAllocator@shdfnd@physx@@@Cm@physx@@QEAAXI@Z 00000001800dac80 f i GuHeightField.obj
 0001:000d9d40       ?setBit@?$PxBitAndDataT@E$0IA@@physx@@QEAAXXZ 00000001800dad40 f i GuHeightField.obj
 0001:000d9d60       ?test@?$BitMapBase@VNonTrackingAllocator@shdfnd@physx@@@Cm@physx@@QEBAHI@Z 00000001800dad60 f i GuHeightField.obj
 0001:000d9e90       ?computeLocalBounds@HeightFieldUtil@Gu@physx@@QEBAXAEAVPxBounds3@3@@Z 00000001800dae90 f   GuHeightFieldUtil.obj
 0001:000da050       ?getFaceIndexAtShapePoint@HeightFieldUtil@Gu@physx@@QEBAIMM@Z 00000001800db050 f   GuHeightFieldUtil.obj
 0001:000da100       ?getVertexNormal@HeightFieldUtil@Gu@physx@@QEBA?AVPxVec3@3@III@Z 00000001800db100 f   GuHeightFieldUtil.obj
 0001:000da390       ?getVertexFaceIndex@HeightFieldUtil@Gu@physx@@QEBAIIII@Z 00000001800db390 f   GuHeightFieldUtil.obj
 0001:000da570       ?getEdge@HeightFieldUtil@Gu@physx@@QEBAXIIIIAEAVPxVec3@3@0@Z 00000001800db570 f   GuHeightFieldUtil.obj
 0001:000dac80       ?getEdgeFaceIndex@HeightFieldUtil@Gu@physx@@QEBAII@Z 00000001800dbc80 f   GuHeightFieldUtil.obj
 0001:000dad60       ?getEdgeFaceIndex@HeightFieldUtil@Gu@physx@@QEBAIIIII@Z 00000001800dbd60 f   GuHeightFieldUtil.obj
 0001:000dae60       ?getEdgeFaceIndex@HeightFieldUtil@Gu@physx@@QEBAIIIPEIBI@Z 00000001800dbe60 f   GuHeightFieldUtil.obj
 0001:000daf50       ?findClosestPointsOnCell@HeightFieldUtil@Gu@physx@@QEBAIIIVPxVec3@3@PEIAV43@PEIAI_N33@Z 00000001800dbf50 f   GuHeightFieldUtil.obj
 0001:000dbe00       ?findProjectionOnTriangle@HeightFieldUtil@Gu@physx@@QEBA_NIIIAEBVPxVec3@3@AEAV43@@Z 00000001800dce00 f   GuHeightFieldUtil.obj
 0001:000dc540       ?findClosestPointOnEdge@HeightFieldUtil@Gu@physx@@QEBAMIIIIAEBVPxVec3@3@AEAV43@@Z 00000001800dd540 f   GuHeightFieldUtil.obj
 0001:000dcf30       ?getTriangle@HeightFieldUtil@Gu@physx@@QEBAIAEBVPxTransform@3@AEAVPxTriangle@3@PEAI2I_N3@Z 00000001800ddf30 f   GuHeightFieldUtil.obj
 0001:000dd470       ?overlapAABBTriangles@HeightFieldUtil@Gu@physx@@QEBA_NAEBVPxTransform@3@AEBVPxBounds3@3@IPEAV?$EntityReport@I@23@@Z 00000001800de470 f   GuHeightFieldUtil.obj
 0001:000ddb20       ?getEdgeTriangleIndices@HeightField@Gu@physx@@QEBAIIQEAI@Z 00000001800deb20 f i GuHeightFieldUtil.obj
 0001:000ddd20       ?getEdgeTriangleIndices@HeightField@Gu@physx@@QEBAIIQEAIIII@Z 00000001800ded20 f i GuHeightFieldUtil.obj
 0001:000ddef0       ?getMax@CenterExtents@Gu@physx@@QEBA?AVPxVec3@3@XZ 00000001800deef0 f i GuHeightFieldUtil.obj
 0001:000ddf30       ?getMin@CenterExtents@Gu@physx@@QEBA?AVPxVec3@3@XZ 00000001800def30 f i GuHeightFieldUtil.obj
 0001:000ddf70       ?getTriangleAdjacencyIndices@HeightField@Gu@physx@@QEBAXIIIIAEAI00@Z 00000001800def70 f i GuHeightFieldUtil.obj
 0001:000de340       ?getTriangleIndex2@HeightField@Gu@physx@@QEBAIIMM@Z 00000001800df340 f i GuHeightFieldUtil.obj
 0001:000de3e0       ?getTriangleIndex@HeightField@Gu@physx@@QEBAIMM@Z 00000001800df3e0 f i GuHeightFieldUtil.obj
 0001:000de440       ?getVertex@HeightField@Gu@physx@@QEBA?AVPxVec3@3@I@Z 00000001800df440 f i GuHeightFieldUtil.obj
 0001:000de4c0       ?isValidTriangle@HeightField@Gu@physx@@QEBA_NI@Z 00000001800df4c0 f i GuHeightFieldUtil.obj
 0001:000de530       ?checkOverlapAABB_heightFieldGeom@Gu@physx@@YA_NAEBVPxGeometry@2@AEBVPxTransform@2@AEBVPxBounds3@2@@Z 00000001800df530 f   GuOverlapTestsHF.obj
 0001:000e0730       ?GeomOverlapCallback_SphereHeightfield@@YA_NAEBVPxGeometry@physx@@AEBVPxTransform@2@01PEAUTriggerCache@Gu@2@@Z 00000001800e1730 f   GuOverlapTestsHF.obj
 0001:000e08a0       ?GeomOverlapCallback_CapsuleHeightfield@@YA_NAEBVPxGeometry@physx@@AEBVPxTransform@2@01PEAUTriggerCache@Gu@2@@Z 00000001800e18a0 f   GuOverlapTestsHF.obj
 0001:000e09f0       ?GeomOverlapCallback_BoxHeightfield@@YA_NAEBVPxGeometry@physx@@AEBVPxTransform@2@01PEAUTriggerCache@Gu@2@@Z 00000001800e19f0 f   GuOverlapTestsHF.obj
 0001:000e0b70       ?GeomOverlapCallback_ConvexHeightfield@@YA_NAEBVPxGeometry@physx@@AEBVPxTransform@2@01PEAUTriggerCache@Gu@2@@Z 00000001800e1b70 f   GuOverlapTestsHF.obj
 0001:000e0cc0       ??$traceSegment@UTriggerTraceSegmentCallback@Gu@physx@@$0A@$0A@@HeightFieldTraceUtil@Gu@physx@@QEBAXAEBVPxVec3@2@0MPEAUTriggerTraceSegmentCallback@12@AEBVPxBounds3@2@_NPEBV32@@Z 00000001800e1cc0 f i GuOverlapTestsHF.obj
 0001:000e2de0       ??0?$OverlapTraceSegment@UTriggerTraceSegmentCallback@Gu@physx@@@HeightFieldTraceUtil@Gu@physx@@QEAA@AEBVHeightFieldUtil@23@AEBVHeightField@23@@Z 00000001800e3de0 f i GuOverlapTestsHF.obj
 0001:000e2e30       ??0EdgeCache@Gu@physx@@QEAA@XZ 00000001800e3e30 f i GuOverlapTestsHF.obj
 0001:000e2e60       ??0Matrix34@Cm@physx@@QEAA@AEBVPxMat33@2@@Z 00000001800e3e60 f i GuOverlapTestsHF.obj
 0001:000e2ea0       ??0OverlapHeightfieldTraceSegmentHelper@Gu@physx@@QEAA@AEBVHeightFieldTraceUtil@12@@Z 00000001800e3ea0 f i GuOverlapTestsHF.obj
 0001:000e2ef0       ??0TriggerTraceSegmentCallback@Gu@physx@@QEAA@XZ 00000001800e3ef0 f i GuOverlapTestsHF.obj
 0001:000e2f10       ?V4AllGrtr@aos@shdfnd@physx@@YAIT__m128@@0@Z 00000001800e3f10 f i GuOverlapTestsHF.obj
 0001:000e2f70       ?addIndex@?$OverlapTraceSegment@UTriggerTraceSegmentCallback@Gu@physx@@@HeightFieldTraceUtil@Gu@physx@@QEAA_NI@Z 00000001800e3f70 f i GuOverlapTestsHF.obj
 0001:000e2fe0       ?computeRectangleDifference@?$OverlapTraceSegment@UTriggerTraceSegmentCallback@Gu@physx@@@HeightFieldTraceUtil@Gu@physx@@QEAAXAEBUOverlapRectangle@1234@0AEAUOverlapLine@1234@@Z 00000001800e3fe0 f i GuOverlapTestsHF.obj
 0001:000e30e0       ?faceHit@TriggerTraceSegmentCallback@Gu@physx@@QEAA_NAEBVHeightFieldUtil@23@AEBVPxVec3@3@IMM@Z 00000001800e40e0 f i GuOverlapTestsHF.obj
 0001:000e3100       ?getInverse@PsTransformV@aos@shdfnd@physx@@QEBA?AV1234@XZ 00000001800e4100 f i GuOverlapTestsHF.obj
 0001:000e3220       ?hash@EdgeCache@Gu@physx@@QEBAII@Z 00000001800e4220 f i GuOverlapTestsHF.obj
 0001:000e3240       ?init@?$OverlapTraceSegment@UTriggerTraceSegmentCallback@Gu@physx@@@HeightFieldTraceUtil@Gu@physx@@QEAA_NHHHHHPEAUTriggerTraceSegmentCallback@34@@Z 00000001800e4240 f i GuOverlapTestsHF.obj
 0001:000e3380       ?initialized@?$OverlapTraceSegment@UTriggerTraceSegmentCallback@Gu@physx@@@HeightFieldTraceUtil@Gu@physx@@QEBA_NXZ 00000001800e4380 f i GuOverlapTestsHF.obj
 0001:000e3390       ?invalidate@OverlapRectangle@?$OverlapTraceSegment@UTriggerTraceSegmentCallback@Gu@physx@@@HeightFieldTraceUtil@Gu@physx@@QEAAXXZ 00000001800e4390 f i GuOverlapTestsHF.obj
 0001:000e33d0       ?isDeltaHeightInsideExtent@HeightField@Gu@physx@@QEBA_NMM@Z 00000001800e43d0 f i GuOverlapTestsHF.obj
 0001:000e3430       ?isDeltaHeightOppositeExtent@HeightField@Gu@physx@@QEBA_NM@Z 00000001800e4430 f i GuOverlapTestsHF.obj
 0001:000e3480       ?isInCache@EdgeCache@Gu@physx@@QEAA_NEE@Z 00000001800e4480 f i GuOverlapTestsHF.obj
 0001:000e3550       ?onEvent@TriggerTraceSegmentCallback@Gu@physx@@QEAA_NIPEAI@Z 00000001800e4550 f i GuOverlapTestsHF.obj
 0001:000e3570       ?prepare@?$OverlapTraceSegment@UTriggerTraceSegmentCallback@Gu@physx@@@HeightFieldTraceUtil@Gu@physx@@QEAAXAEBVPxVec3@4@00AEAM1@Z 00000001800e4570 f i GuOverlapTestsHF.obj
 0001:000e3820       ?reportOverlaps@?$OverlapTraceSegment@UTriggerTraceSegmentCallback@Gu@physx@@@HeightFieldTraceUtil@Gu@physx@@QEAA_NXZ 00000001800e4820 f i GuOverlapTestsHF.obj
 0001:000e3880       ?step@?$OverlapTraceSegment@UTriggerTraceSegmentCallback@Gu@physx@@@HeightFieldTraceUtil@Gu@physx@@QEAA_NHH@Z 00000001800e4880 f i GuOverlapTestsHF.obj
 0001:000e3970       ?testVertexIndex@?$OverlapTraceSegment@UTriggerTraceSegmentCallback@Gu@physx@@@HeightFieldTraceUtil@Gu@physx@@QEAA_NI@Z 00000001800e4970 f i GuOverlapTestsHF.obj
 0001:000e3b00       ?traceSegment@OverlapHeightfieldTraceSegmentHelper@Gu@physx@@QEBAXAEBVPxVec3@3@0PEAUTriggerTraceSegmentCallback@23@@Z 00000001800e4b00 f i GuOverlapTestsHF.obj
 0001:000e3b90       ?underFaceHit@TriggerTraceSegmentCallback@Gu@physx@@QEAA_NAEBVHeightFieldUtil@23@AEBVPxVec3@3@1MMMI@Z 00000001800e4b90 f i GuOverlapTestsHF.obj
 0001:000e3bb0       ?visitCells@?$OverlapTraceSegment@UTriggerTraceSegmentCallback@Gu@physx@@@HeightFieldTraceUtil@Gu@physx@@QEAA_NAEBUOverlapLine@1234@@Z 00000001800e4bb0 f i GuOverlapTestsHF.obj
 0001:000e3d80       ?visitCells@?$OverlapTraceSegment@UTriggerTraceSegmentCallback@Gu@physx@@@HeightFieldTraceUtil@Gu@physx@@QEAA_NAEBUOverlapRectangle@1234@@Z 00000001800e4d80 f i GuOverlapTestsHF.obj
 0001:000e4570       ?sweepCapsule_HeightFieldGeom@@YA_NAEBVPxGeometry@physx@@AEBVPxTransform@2@AEBVPxCapsuleGeometry@2@1AEBVCapsule@Gu@2@AEBVPxVec3@2@MAEAUPxSweepHit@2@V?$PxFlags@W4Enum@PxHitFlag@physx@@G@2@M@Z 00000001800e5570 f   GuSweepsHF.obj
 0001:000e4880       ?sweepConvex_HeightFieldGeom@@YA_NAEBVPxGeometry@physx@@AEBVPxTransform@2@AEBVPxConvexMeshGeometry@2@1AEBVPxVec3@2@MAEAUPxSweepHit@2@V?$PxFlags@W4Enum@PxHitFlag@physx@@G@2@M@Z 00000001800e5880 f   GuSweepsHF.obj
 0001:000e4cf0       ?sweepBox_HeightFieldGeom@@YA_NAEBVPxGeometry@physx@@AEBVPxTransform@2@AEBVPxBoxGeometry@2@1AEBVBox@Gu@2@AEBVPxVec3@2@MAEAUPxSweepHit@2@V?$PxFlags@W4Enum@PxHitFlag@physx@@G@2@M@Z 00000001800e5cf0 f   GuSweepsHF.obj
 0001:000e5120       ??$gjkPenetration@U?$LocalConvex@VTriangleV@Gu@physx@@@Gu@physx@@U?$LocalConvex@VConvexHullV@Gu@physx@@@23@@Gu@physx@@YA?AW4GjkStatus@01@AEBU?$LocalConvex@VTriangleV@Gu@physx@@@01@AEBU?$LocalConvex@VConvexHullV@Gu@physx@@@01@AEBT__m128@@2_NPEIAE4AEAEAEAUGjkOutput@01@@Z 00000001800e6120 f i GuSweepsHF.obj
 0001:000e6360       ??$gjkRaycast@U?$LocalConvex@VTriangleV@Gu@physx@@@Gu@physx@@U?$LocalConvex@VConvexHullV@Gu@physx@@@23@@Gu@physx@@YA_NAEBU?$LocalConvex@VTriangleV@Gu@physx@@@01@AEBU?$LocalConvex@VConvexHullV@Gu@physx@@@01@AEBT__m128@@222AEAT4@33M@Z 00000001800e7360 f i GuSweepsHF.obj
 0001:000e77f0       ??$gjkRaycastPenetration@U?$LocalConvex@VTriangleV@Gu@physx@@@Gu@physx@@U?$LocalConvex@VConvexHullV@Gu@physx@@@23@@Gu@physx@@YA_NAEBU?$LocalConvex@VTriangleV@Gu@physx@@@01@AEBU?$LocalConvex@VConvexHullV@Gu@physx@@@01@AEBT__m128@@222AEAT4@33M_N@Z 00000001800e87f0 f i GuSweepsHF.obj
 0001:000e7c40       ??$traceSegment@VBoxTraceSegmentReport@@$0A@$00@HeightFieldTraceUtil@Gu@physx@@QEBAXAEBVPxVec3@2@0MPEAVBoxTraceSegmentReport@@AEBVPxBounds3@2@_NPEBV32@@Z 00000001800e8c40 f i GuSweepsHF.obj
 0001:000e9d60       ??$traceSegment@VBoxTraceSegmentReport@@@HeightFieldTraceSegmentSweepHelper@@QEBAXAEBVPxVec3@physx@@0MPEAVBoxTraceSegmentReport@@@Z 00000001800ead60 f i GuSweepsHF.obj
 0001:000e9dd0       ??$traceSegment@VCapsuleTraceSegmentReport@@$0A@$00@HeightFieldTraceUtil@Gu@physx@@QEBAXAEBVPxVec3@2@0MPEAVCapsuleTraceSegmentReport@@AEBVPxBounds3@2@_NPEBV32@@Z 00000001800eadd0 f i GuSweepsHF.obj
 0001:000ebef0       ??$traceSegment@VCapsuleTraceSegmentReport@@@HeightFieldTraceSegmentSweepHelper@@QEBAXAEBVPxVec3@physx@@0MPEAVCapsuleTraceSegmentReport@@@Z 00000001800ecef0 f i GuSweepsHF.obj
 0001:000ebf60       ??$traceSegment@VConvexTraceSegmentReport@@$0A@$00@HeightFieldTraceUtil@Gu@physx@@QEBAXAEBVPxVec3@2@0MPEAVConvexTraceSegmentReport@@AEBVPxBounds3@2@_NPEBV32@@Z 00000001800ecf60 f i GuSweepsHF.obj
 0001:000ee080       ??$traceSegment@VConvexTraceSegmentReport@@@HeightFieldTraceSegmentSweepHelper@@QEBAXAEBVPxVec3@physx@@0MPEAVConvexTraceSegmentReport@@@Z 00000001800ef080 f i GuSweepsHF.obj
 0001:000ee0f0       ??0?$OverlapTraceSegment@VBoxTraceSegmentReport@@@HeightFieldTraceUtil@Gu@physx@@QEAA@AEBVHeightFieldUtil@23@AEBVHeightField@23@@Z 00000001800ef0f0 f i GuSweepsHF.obj
 0001:000ee140       ??0?$OverlapTraceSegment@VCapsuleTraceSegmentReport@@@HeightFieldTraceUtil@Gu@physx@@QEAA@AEBVHeightFieldUtil@23@AEBVHeightField@23@@Z 00000001800ef140 f i GuSweepsHF.obj
 0001:000ee190       ??0?$OverlapTraceSegment@VConvexTraceSegmentReport@@@HeightFieldTraceUtil@Gu@physx@@QEAA@AEBVHeightFieldUtil@23@AEBVHeightField@23@@Z 00000001800ef190 f i GuSweepsHF.obj
 0001:000ee1e0       ??0BoxTraceSegmentReport@@QEAA@AEBVHeightFieldUtil@Gu@physx@@V?$PxFlags@W4Enum@PxHitFlag@physx@@G@3@AEBVPsTransformV@aos@shdfnd@3@AEBVPxTransform@3@AEBVBoxV@23@AEBVPxVec3@3@AEAUPxSweepHit@3@M@Z 00000001800ef1e0 f i GuSweepsHF.obj
 0001:000ee2d0       ??0CapsuleTraceSegmentReport@@QEAA@AEBVHeightFieldUtil@Gu@physx@@V?$PxFlags@W4Enum@PxHitFlag@physx@@G@3@AEBVCapsule@23@AEBVPxVec3@3@AEAUPxSweepHit@3@AEBVPxTransform@3@M@Z 00000001800ef2d0 f i GuSweepsHF.obj
 0001:000ee390       ??0CapsuleV@Gu@physx@@QEAA@XZ 00000001800ef390 f i GuSweepsHF.obj
 0001:000ee3c0       ??0ConvexHullV@Gu@physx@@QEAA@XZ 00000001800ef3c0 f i GuSweepsHF.obj
 0001:000ee410       ??0ConvexTraceSegmentReport@@QEAA@AEBVHeightFieldUtil@Gu@physx@@AEBUConvexHullData@23@AEBVPxMeshScale@3@AEBVPxTransform@3@3AEBVPxVec3@3@MV?$PxFlags@W4Enum@PxHitFlag@physx@@G@3@M@Z 00000001800ef410 f i GuSweepsHF.obj
 0001:000ee880       ??0HeightFieldTraceSegmentReport@@QEAA@AEBVHeightFieldUtil@Gu@physx@@V?$PxFlags@W4Enum@PxHitFlag@physx@@G@3@@Z 00000001800ef880 f i GuSweepsHF.obj
 0001:000ee980       ??0HeightFieldTraceSegmentSweepHelper@@QEAA@AEBVHeightFieldTraceUtil@Gu@physx@@AEBVPxVec3@3@@Z 00000001800ef980 f i GuSweepsHF.obj
 0001:000eea40       ??0PsMatTransformV@aos@shdfnd@physx@@QEAA@XZ 00000001800efa40 f i GuSweepsHF.obj
 0001:000eeab0       ??0PxTransform@physx@@QEAA@XZ 00000001800efab0 f i GuSweepsHF.obj
 0001:000eeaf0       ??1BoxTraceSegmentReport@@UEAA@XZ 00000001800efaf0 f i GuSweepsHF.obj
 0001:000eeb10       ??1CapsuleTraceSegmentReport@@UEAA@XZ 00000001800efb10 f i GuSweepsHF.obj
 0001:000eeb30       ??1ConvexTraceSegmentReport@@UEAA@XZ 00000001800efb30 f i GuSweepsHF.obj
 0001:000eeb60       ??1HeightFieldTraceSegmentReport@@UEAA@XZ 00000001800efb60 f i GuSweepsHF.obj
 0001:000eeb80       ??U?$PxFlags@W4Enum@PxHitFlag@physx@@G@physx@@QEBA?AV01@W4Enum@PxHitFlag@1@@Z 00000001800efb80 f i GuSweepsHF.obj
 0001:000eebd0       ??_EBoxTraceSegmentReport@@UEAAPEAXI@Z 00000001800efbd0 f i GuSweepsHF.obj
 0001:000eebd0       ??_GBoxTraceSegmentReport@@UEAAPEAXI@Z 00000001800efbd0 f i GuSweepsHF.obj
 0001:000eec10       ??_ECapsuleTraceSegmentReport@@UEAAPEAXI@Z 00000001800efc10 f i GuSweepsHF.obj
 0001:000eec10       ??_GCapsuleTraceSegmentReport@@UEAAPEAXI@Z 00000001800efc10 f i GuSweepsHF.obj
 0001:000eec50       ??_GConvexTraceSegmentReport@@UEAAPEAXI@Z 00000001800efc50 f i GuSweepsHF.obj
 0001:000eec50       ??_EConvexTraceSegmentReport@@UEAAPEAXI@Z 00000001800efc50 f i GuSweepsHF.obj
 0001:000eec90       ??_GHeightFieldTraceSegmentReport@@UEAAPEAXI@Z 00000001800efc90 f i GuSweepsHF.obj
 0001:000eec90       ??_EHeightFieldTraceSegmentReport@@UEAAPEAXI@Z 00000001800efc90 f i GuSweepsHF.obj
 0001:000eecd0       ?addIndex@?$OverlapTraceSegment@VBoxTraceSegmentReport@@@HeightFieldTraceUtil@Gu@physx@@QEAA_NI@Z 00000001800efcd0 f i GuSweepsHF.obj
 0001:000eed40       ?addIndex@?$OverlapTraceSegment@VCapsuleTraceSegmentReport@@@HeightFieldTraceUtil@Gu@physx@@QEAA_NI@Z 00000001800efd40 f i GuSweepsHF.obj
 0001:000eedb0       ?addIndex@?$OverlapTraceSegment@VConvexTraceSegmentReport@@@HeightFieldTraceUtil@Gu@physx@@QEAA_NI@Z 00000001800efdb0 f i GuSweepsHF.obj
 0001:000eee20       ?computeRectangleDifference@?$OverlapTraceSegment@VBoxTraceSegmentReport@@@HeightFieldTraceUtil@Gu@physx@@QEAAXAEBUOverlapRectangle@1234@0AEAUOverlapLine@1234@@Z 00000001800efe20 f i GuSweepsHF.obj
 0001:000eef20       ?computeRectangleDifference@?$OverlapTraceSegment@VCapsuleTraceSegmentReport@@@HeightFieldTraceUtil@Gu@physx@@QEAAXAEBUOverlapRectangle@1234@0AEAUOverlapLine@1234@@Z 00000001800eff20 f i GuSweepsHF.obj
 0001:000ef020       ?computeRectangleDifference@?$OverlapTraceSegment@VConvexTraceSegmentReport@@@HeightFieldTraceUtil@Gu@physx@@QEAAXAEBUOverlapRectangle@1234@0AEAUOverlapLine@1234@@Z 00000001800f0020 f i GuSweepsHF.obj
 0001:000ef120       ?faceHit@HeightFieldTraceSegmentReport@@QEAA_NAEBVHeightFieldUtil@Gu@physx@@AEBVPxVec3@4@IMM@Z 00000001800f0120 f i GuSweepsHF.obj
 0001:000ef140       ?finalizeHit@BoxTraceSegmentReport@@QEAA_NAEAUPxSweepHit@physx@@AEBVPxHeightFieldGeometry@3@AEBVPxTransform@3@2AEBVBox@Gu@3@AEBVPxVec3@3@MM@Z 00000001800f0140 f i GuSweepsHF.obj
 0001:000ef400       ?finalizeHit@CapsuleTraceSegmentReport@@QEAA_NAEAUPxSweepHit@physx@@AEBVPxHeightFieldGeometry@3@AEBVPxTransform@3@AEBVCapsule@Gu@3@3AEBVPxVec3@3@@Z 00000001800f0400 f i GuSweepsHF.obj
 0001:000ef680       ?finalizeHit@ConvexTraceSegmentReport@@QEAA_NAEAUPxSweepHit@physx@@AEBVPxHeightFieldGeometry@3@AEBVPxTransform@3@AEBVPxConvexMeshGeometry@3@2AEBVPxVec3@3@M@Z 00000001800f0680 f i GuSweepsHF.obj
 0001:000ef850       ?init@?$OverlapTraceSegment@VBoxTraceSegmentReport@@@HeightFieldTraceUtil@Gu@physx@@QEAA_NHHHHHPEAVBoxTraceSegmentReport@@@Z 00000001800f0850 f i GuSweepsHF.obj
 0001:000ef990       ?init@?$OverlapTraceSegment@VCapsuleTraceSegmentReport@@@HeightFieldTraceUtil@Gu@physx@@QEAA_NHHHHHPEAVCapsuleTraceSegmentReport@@@Z 00000001800f0990 f i GuSweepsHF.obj
 0001:000efad0       ?init@?$OverlapTraceSegment@VConvexTraceSegmentReport@@@HeightFieldTraceUtil@Gu@physx@@QEAA_NHHHHHPEAVConvexTraceSegmentReport@@@Z 00000001800f0ad0 f i GuSweepsHF.obj
 0001:000efc10       ?initialize@CapsuleV@Gu@physx@@QEAAXAEBT__m128@@00@Z 00000001800f0c10 f i GuSweepsHF.obj
 0001:000efd90       ?initialize@ConvexHullV@Gu@physx@@QEAAXPEBUConvexHullData@23@AEBT__m128@@11_N@Z 00000001800f0d90 f i GuSweepsHF.obj
 0001:000efef0       ?initialized@?$OverlapTraceSegment@VBoxTraceSegmentReport@@@HeightFieldTraceUtil@Gu@physx@@QEBA_NXZ 00000001800f0ef0 f i GuSweepsHF.obj
 0001:000eff00       ?initialized@?$OverlapTraceSegment@VCapsuleTraceSegmentReport@@@HeightFieldTraceUtil@Gu@physx@@QEBA_NXZ 00000001800f0f00 f i GuSweepsHF.obj
 0001:000eff10       ?initialized@?$OverlapTraceSegment@VConvexTraceSegmentReport@@@HeightFieldTraceUtil@Gu@physx@@QEBA_NXZ 00000001800f0f10 f i GuSweepsHF.obj
 0001:000eff20       ?invalidate@OverlapRectangle@?$OverlapTraceSegment@VBoxTraceSegmentReport@@@HeightFieldTraceUtil@Gu@physx@@QEAAXXZ 00000001800f0f20 f i GuSweepsHF.obj
 0001:000eff60       ?invalidate@OverlapRectangle@?$OverlapTraceSegment@VCapsuleTraceSegmentReport@@@HeightFieldTraceUtil@Gu@physx@@QEAAXXZ 00000001800f0f60 f i GuSweepsHF.obj
 0001:000effa0       ?invalidate@OverlapRectangle@?$OverlapTraceSegment@VConvexTraceSegmentReport@@@HeightFieldTraceUtil@Gu@physx@@QEAAXXZ 00000001800f0fa0 f i GuSweepsHF.obj
 0001:000effe0       ?onEvent@BoxTraceSegmentReport@@UEAA_NIPEAI@Z 00000001800f0fe0 f i GuSweepsHF.obj
 0001:000f06d0       ?onEvent@CapsuleTraceSegmentReport@@UEAA_NIPEAI@Z 00000001800f16d0 f i GuSweepsHF.obj
 0001:000f0990       ?onEvent@ConvexTraceSegmentReport@@UEAA_NIPEAI@Z 00000001800f1990 f i GuSweepsHF.obj
 0001:000f0c10       ?prepare@?$OverlapTraceSegment@VBoxTraceSegmentReport@@@HeightFieldTraceUtil@Gu@physx@@QEAAXAEBVPxVec3@4@00AEAM1@Z 00000001800f1c10 f i GuSweepsHF.obj
 0001:000f0ec0       ?prepare@?$OverlapTraceSegment@VCapsuleTraceSegmentReport@@@HeightFieldTraceUtil@Gu@physx@@QEAAXAEBVPxVec3@4@00AEAM1@Z 00000001800f1ec0 f i GuSweepsHF.obj
 0001:000f1170       ?prepare@?$OverlapTraceSegment@VConvexTraceSegmentReport@@@HeightFieldTraceUtil@Gu@physx@@QEAAXAEBVPxVec3@4@00AEAM1@Z 00000001800f2170 f i GuSweepsHF.obj
 0001:000f1420       ?reportOverlaps@?$OverlapTraceSegment@VBoxTraceSegmentReport@@@HeightFieldTraceUtil@Gu@physx@@QEAA_NXZ 00000001800f2420 f i GuSweepsHF.obj
 0001:000f14a0       ?reportOverlaps@?$OverlapTraceSegment@VCapsuleTraceSegmentReport@@@HeightFieldTraceUtil@Gu@physx@@QEAA_NXZ 00000001800f24a0 f i GuSweepsHF.obj
 0001:000f1520       ?reportOverlaps@?$OverlapTraceSegment@VConvexTraceSegmentReport@@@HeightFieldTraceUtil@Gu@physx@@QEAA_NXZ 00000001800f2520 f i GuSweepsHF.obj
 0001:000f15a0       ?step@?$OverlapTraceSegment@VBoxTraceSegmentReport@@@HeightFieldTraceUtil@Gu@physx@@QEAA_NHH@Z 00000001800f25a0 f i GuSweepsHF.obj
 0001:000f1690       ?step@?$OverlapTraceSegment@VCapsuleTraceSegmentReport@@@HeightFieldTraceUtil@Gu@physx@@QEAA_NHH@Z 00000001800f2690 f i GuSweepsHF.obj
 0001:000f1780       ?step@?$OverlapTraceSegment@VConvexTraceSegmentReport@@@HeightFieldTraceUtil@Gu@physx@@QEAA_NHH@Z 00000001800f2780 f i GuSweepsHF.obj
 0001:000f1870       ?testVertexIndex@?$OverlapTraceSegment@VBoxTraceSegmentReport@@@HeightFieldTraceUtil@Gu@physx@@QEAA_NI@Z 00000001800f2870 f i GuSweepsHF.obj
 0001:000f1a00       ?testVertexIndex@?$OverlapTraceSegment@VCapsuleTraceSegmentReport@@@HeightFieldTraceUtil@Gu@physx@@QEAA_NI@Z 00000001800f2a00 f i GuSweepsHF.obj
 0001:000f1b90       ?testVertexIndex@?$OverlapTraceSegment@VConvexTraceSegmentReport@@@HeightFieldTraceUtil@Gu@physx@@QEAA_NI@Z 00000001800f2b90 f i GuSweepsHF.obj
 0001:000f1d20       ?underFaceHit@HeightFieldTraceSegmentReport@@QEAA_NAEBVHeightFieldUtil@Gu@physx@@AEBVPxVec3@4@1MMMI@Z 00000001800f2d20 f i GuSweepsHF.obj
 0001:000f1d40       ?visitCells@?$OverlapTraceSegment@VBoxTraceSegmentReport@@@HeightFieldTraceUtil@Gu@physx@@QEAA_NAEBUOverlapLine@1234@@Z 00000001800f2d40 f i GuSweepsHF.obj
 0001:000f1f10       ?visitCells@?$OverlapTraceSegment@VBoxTraceSegmentReport@@@HeightFieldTraceUtil@Gu@physx@@QEAA_NAEBUOverlapRectangle@1234@@Z 00000001800f2f10 f i GuSweepsHF.obj
 0001:000f2010       ?visitCells@?$OverlapTraceSegment@VCapsuleTraceSegmentReport@@@HeightFieldTraceUtil@Gu@physx@@QEAA_NAEBUOverlapLine@1234@@Z 00000001800f3010 f i GuSweepsHF.obj
 0001:000f21e0       ?visitCells@?$OverlapTraceSegment@VCapsuleTraceSegmentReport@@@HeightFieldTraceUtil@Gu@physx@@QEAA_NAEBUOverlapRectangle@1234@@Z 00000001800f31e0 f i GuSweepsHF.obj
 0001:000f22e0       ?visitCells@?$OverlapTraceSegment@VConvexTraceSegmentReport@@@HeightFieldTraceUtil@Gu@physx@@QEAA_NAEBUOverlapLine@1234@@Z 00000001800f32e0 f i GuSweepsHF.obj
 0001:000f24b0       ?visitCells@?$OverlapTraceSegment@VConvexTraceSegmentReport@@@HeightFieldTraceUtil@Gu@physx@@QEAA_NAEBUOverlapRectangle@1234@@Z 00000001800f34b0 f i GuSweepsHF.obj
 0001:000f25b0       ?intersectOBBOBB@Gu@physx@@YA_NAEBVPxVec3@2@0AEBVPxMat33@2@001_N@Z 00000001800f35b0 f   GuIntersectionBoxBox.obj
 0001:000f39b0       ?intersectCapsuleTriangle@Gu@physx@@YA_NAEBVPxVec3@2@000AEBVCapsule@12@AEBUCapsuleTriangleOverlapData@12@@Z 00000001800f49b0 f   GuIntersectionCapsuleTriangle.obj
 0001:000f3ce0       ??$PxClamp@M@physx@@YAMMMM@Z 00000001800f4ce0 f i GuIntersectionCapsuleTriangle.obj
 0001:000f3d50       ??9PxVec3@physx@@QEBA_NAEBV01@@Z 00000001800f4d50 f i GuIntersectionCapsuleTriangle.obj
 0001:000f3dc0       ?computeEdgeAxis@Gu@physx@@YA?AVPxVec3@2@AEBV32@000MM@Z 00000001800f4dc0 f i GuIntersectionCapsuleTriangle.obj
 0001:000f4020       ?testAxis@Gu@physx@@YAIAEBVPxVec3@2@00AEBVCapsule@12@0@Z 00000001800f5020 f i GuIntersectionCapsuleTriangle.obj
 0001:000f41a0       ?intersectEdgeEdge@Gu@physx@@YA_NAEBVPxVec3@2@0000AEAMAEAV32@@Z 00000001800f51a0 f   GuIntersectionEdgeEdge.obj
 0001:000f4620       ?rayAABBIntersect@Gu@physx@@YA_NAEBVPxVec3@2@000AEAV32@@Z 00000001800f5620 f   GuIntersectionRayBox.obj
 0001:000f4a90       ?rayAABBIntersect2@Gu@physx@@YAIAEBVPxVec3@2@000AEAV32@AEAM@Z 00000001800f5a90 f   GuIntersectionRayBox.obj
 0001:000f4f30       ?intersectRayAABB@Gu@physx@@YAHAEBVPxVec3@2@000AEAM1@Z 00000001800f5f30 f   GuIntersectionRayBox.obj
 0001:000f5200       ?intersectRayAABB@Gu@physx@@YAHAEBVPxVec3@2@0000AEAM1@Z 00000001800f6200 f   GuIntersectionRayBox.obj
 0001:000f55f0       ?intersectRayAABB2@Gu@physx@@YA_NAEBVPxVec3@2@000MAEAM1@Z 00000001800f65f0 f   GuIntersectionRayBox.obj
 0001:000f5ac0       ?intersectRayAABB2@Gu@physx@@YA_NAEBT__m128@@0000AEAT3@1@Z 00000001800f6ac0 f   GuIntersectionRayBox.obj
 0001:000f60d0       ?V3Sign@aos@shdfnd@physx@@YA?AT__m128@@T4@@Z 00000001800f70d0 f i GuIntersectionRayBox.obj
 0001:000f6250       ?recip@intrinsics@physx@@YAMM@Z 00000001800f7250 f i GuIntersectionRayBox.obj
 0001:000f6270       ?intersectRayCapsuleInternal@Gu@physx@@YAIAEBVPxVec3@2@000MQEAM@Z 00000001800f7270 f   GuIntersectionRayCapsule.obj
 0001:000f7100       ?intersectRaySphereBasic@Gu@physx@@YA_NAEBVPxVec3@2@0M0MAEAMPEAV32@@Z 00000001800f8100 f   GuIntersectionRaySphere.obj
 0001:000f72c0       ?intersectRaySphere@Gu@physx@@YA_NAEBVPxVec3@2@0M0MAEAMPEAV32@@Z 00000001800f82c0 f   GuIntersectionRaySphere.obj
 0001:000f7400       ?intersectSphereBox@Gu@physx@@YA_NAEBVSphere@12@AEBVBox@12@@Z 00000001800f8400 f   GuIntersectionSphereBox.obj
 0001:000f7610       ?intersectTriangleBox_ReferenceCode@Gu@physx@@YAHAEBVPxVec3@2@0000@Z 00000001800f8610 f   GuIntersectionTriangleBox.obj
 0001:000f7660       ?intersectTriangleBox_Unsafe@Gu@physx@@YAHAEBVPxVec3@2@0000@Z 00000001800f8660 f   GuIntersectionTriangleBox.obj
 0001:000f7810       ?intersectTriangleBox@Gu@physx@@YAHAEBVBoxPadded@12@AEBVPxVec3@2@11@Z 00000001800f8810 f   GuIntersectionTriangleBox.obj
 0001:000f9940       ?intersectTriangleBoxBV4@@YAHAEBVPxVec3@physx@@00AEBVPxMat33@2@00@Z 00000001800fa940 f   GuIntersectionTriangleBox.obj
 0001:000f9b70       ?BAnyTrue3_R@internalWindowsSimd@aos@shdfnd@physx@@YAIT__m128@@@Z 00000001800fab70 f i GuIntersectionTriangleBox.obj
 0001:000f9bb0       ?U4LoadXYZW@aos@shdfnd@physx@@YA?AT__m128@@IIII@Z 00000001800fabb0 f i GuIntersectionTriangleBox.obj
 0001:000f9c10       ?V4AllGrtrOrEq3@aos@shdfnd@physx@@YAIT__m128@@0@Z 00000001800fac10 f i GuIntersectionTriangleBox.obj
 0001:000f9c70       ?V4AnyGrtr3@aos@shdfnd@physx@@YAIT__m128@@0@Z 00000001800fac70 f i GuIntersectionTriangleBox.obj
 0001:000f9cd0       ?V4Cross@aos@shdfnd@physx@@YA?AT__m128@@T4@0@Z 00000001800facd0 f i GuIntersectionTriangleBox.obj
 0001:000f9dd0       ?V4Dot3@aos@shdfnd@physx@@YA?AT__m128@@T4@0@Z 00000001800fadd0 f i GuIntersectionTriangleBox.obj
 0001:000f9e90       ?V4NegMulSub@aos@shdfnd@physx@@YA?AT__m128@@T4@00@Z 00000001800fae90 f i GuIntersectionTriangleBox.obj
 0001:000f9f20       ?V4PermYZXW@aos@shdfnd@physx@@YA?AT__m128@@T4@@Z 00000001800faf20 f i GuIntersectionTriangleBox.obj
 0001:000f9f50       ?V4U32and@aos@shdfnd@physx@@YA?AT__m128@@T4@0@Z 00000001800faf50 f i GuIntersectionTriangleBox.obj
 0001:000f9ff0       ?V4U32or@aos@shdfnd@physx@@YA?AT__m128@@T4@0@Z 00000001800faff0 f i GuIntersectionTriangleBox.obj
 0001:000fa090       ?V4U32xor@aos@shdfnd@physx@@YA?AT__m128@@T4@0@Z 00000001800fb090 f i GuIntersectionTriangleBox.obj
 0001:000fa130       ?Vec4V_From_FloatV@aos@shdfnd@physx@@YA?AT__m128@@T4@@Z 00000001800fb130 f i GuIntersectionTriangleBox.obj
 0001:000fa140       ?Vec4V_ReinterpretFrom_VecU32V@aos@shdfnd@physx@@YA?AT__m128@@T4@@Z 00000001800fb140 f i GuIntersectionTriangleBox.obj
 0001:000fa160       ?VecU32V_ReinterpretFrom_Vec4V@aos@shdfnd@physx@@YA?AT__m128@@T4@@Z 00000001800fb160 f i GuIntersectionTriangleBox.obj
 0001:000fa180       ??0SourceMeshBase@Gu@physx@@QEAA@XZ 00000001800fb180 f   GuBV4.obj
 0001:000fa1c0       ??1SourceMeshBase@Gu@physx@@QEAA@XZ 00000001800fb1c0 f   GuBV4.obj
 0001:000fa200       ??0SourceMesh@Gu@physx@@QEAA@XZ 00000001800fb200 f   GuBV4.obj
 0001:000fa230       ??1SourceMesh@Gu@physx@@QEAA@XZ 00000001800fb230 f   GuBV4.obj
 0001:000fa250       ?reset@SourceMesh@Gu@physx@@QEAAXXZ 00000001800fb250 f   GuBV4.obj
 0001:000fa2b0       ??4SourceMesh@Gu@physx@@QEAAXAEAV012@@Z 00000001800fb2b0 f   GuBV4.obj
 0001:000fa340       ?remapTopology@SourceMesh@Gu@physx@@QEAAXPEBI@Z 00000001800fb340 f   GuBV4.obj
 0001:000fa880       ?isValid@SourceMesh@Gu@physx@@QEBA_NXZ 00000001800fb880 f   GuBV4.obj
 0001:000fa8e0       ??0BV4Tree@Gu@physx@@QEAA@W4PxEMPTY@2@@Z 00000001800fb8e0 f   GuBV4.obj
 0001:000fa940       ?exportExtraData@BV4Tree@Gu@physx@@QEAAXAEAVPxSerializationContext@3@@Z 00000001800fb940 f   GuBV4.obj
 0001:000fa9b0       ?importExtraData@BV4Tree@Gu@physx@@QEAAXAEAVPxDeserializationContext@3@@Z 00000001800fb9b0 f   GuBV4.obj
 0001:000faa00       ??0BV4Tree@Gu@physx@@QEAA@XZ 00000001800fba00 f   GuBV4.obj
 0001:000faa60       ??0BV4Tree@Gu@physx@@QEAA@PEAVSourceMesh@12@AEBVPxBounds3@2@@Z 00000001800fba60 f   GuBV4.obj
 0001:000faae0       ??1BV4Tree@Gu@physx@@QEAA@XZ 00000001800fbae0 f   GuBV4.obj
 0001:000fab00       ?load@BV4Tree@Gu@physx@@QEAA_NAEAVPxInputStream@3@_N@Z 00000001800fbb00 f   GuBV4.obj
 0001:000fae40       ?reset@BV4Tree@Gu@physx@@QEAAXXZ 00000001800fbe40 f   GuBV4.obj
 0001:000faee0       ??4BV4Tree@Gu@physx@@QEAAXAEAV012@@Z 00000001800fbee0 f   GuBV4.obj
 0001:000fafc0       ?init@BV4Tree@Gu@physx@@QEAA_NPEAVSourceMesh@23@AEBVPxBounds3@3@@Z 00000001800fbfc0 f   GuBV4.obj
 0001:000fb010       ?release@BV4Tree@Gu@physx@@QEAAXXZ 00000001800fc010 f   GuBV4.obj
 0001:000fb080       ?refit@BV4Tree@Gu@physx@@QEAAXM@Z 00000001800fc080 f   GuBV4.obj
 0001:000fb0b0       ??$?_UV?$ReflectionAllocator@VIndTri16@Gu@physx@@@shdfnd@physx@@@UserAllocated@shdfnd@physx@@SAPEAX_KV?$ReflectionAllocator@VIndTri16@Gu@physx@@@12@PEBDH@Z 00000001800fc0b0 f i GuBV4.obj
 0001:000fb0f0       ??$?_UV?$ReflectionAllocator@VIndTri32@Gu@physx@@@shdfnd@physx@@@UserAllocated@shdfnd@physx@@SAPEAX_KV?$ReflectionAllocator@VIndTri32@Gu@physx@@@12@PEBDH@Z 00000001800fc0f0 f i GuBV4.obj
 0001:000fb130       ??$readExtraData@U?$BVDataPackedT@VQuantizedAABB@Gu@physx@@@Gu@physx@@@PxDeserializationContext@physx@@QEAAPEAU?$BVDataPackedT@VQuantizedAABB@Gu@physx@@@Gu@1@I@Z 00000001800fc130 f i GuBV4.obj
 0001:000fb170       ??0?$ReflectionAllocator@VIndTri16@Gu@physx@@@shdfnd@physx@@QEAA@PEBD@Z 00000001800fc170 f i GuBV4.obj
 0001:000fb180       ??0?$ReflectionAllocator@VIndTri32@Gu@physx@@@shdfnd@physx@@QEAA@PEBD@Z 00000001800fc180 f i GuBV4.obj
 0001:000fb190       ??0IndTri16@Gu@physx@@QEAA@XZ 00000001800fc190 f i GuBV4.obj
 0001:000fb1a0       ??0IndTri32@Gu@physx@@QEAA@XZ 00000001800fc1a0 f i GuBV4.obj
 0001:000fb1b0       ??0LocalBounds@Gu@physx@@QEAA@W4PxEMPTY@2@@Z 00000001800fc1b0 f i GuBV4.obj
 0001:000fb1e0       ??0LocalBounds@Gu@physx@@QEAA@XZ 00000001800fc1e0 f i GuBV4.obj
 0001:000fb210       ??1IndTri16@Gu@physx@@QEAA@XZ 00000001800fc210 f i GuBV4.obj
 0001:000fb220       ??1IndTri32@Gu@physx@@QEAA@XZ 00000001800fc220 f i GuBV4.obj
 0001:000fb230       ??4LocalBounds@Gu@physx@@QEAAAEAU012@AEBU012@@Z 00000001800fc230 f i GuBV4.obj
 0001:000fb270       ??_EIndTri16@Gu@physx@@QEAAPEAXI@Z 00000001800fc270 f i GuBV4.obj
 0001:000fb350       ??_EIndTri32@Gu@physx@@QEAAPEAXI@Z 00000001800fc350 f i GuBV4.obj
 0001:000fb430       ?allocate@?$ReflectionAllocator@VIndTri16@Gu@physx@@@shdfnd@physx@@QEAAPEAX_KPEBDH@Z 00000001800fc430 f i GuBV4.obj
 0001:000fb4b0       ?allocate@?$ReflectionAllocator@VIndTri32@Gu@physx@@@shdfnd@physx@@QEAAPEAX_KPEBDH@Z 00000001800fc4b0 f i GuBV4.obj
 0001:000fb530       ?getName@?$ReflectionAllocator@VIndTri16@Gu@physx@@@shdfnd@physx@@CAPEBDXZ 00000001800fc530 f i GuBV4.obj
 0001:000fb570       ?getName@?$ReflectionAllocator@VIndTri32@Gu@physx@@@shdfnd@physx@@CAPEBDXZ 00000001800fc570 f i GuBV4.obj
 0001:000fb5b0       ?init@LocalBounds@Gu@physx@@QEAAXAEBVPxBounds3@3@@Z 00000001800fc5b0 f i GuBV4.obj
 0001:000fb600       ?readBigEndianVersionNumber@physx@@YA_NAEAVPxInputStream@1@_NAEAIAEA_N@Z 00000001800fc600 f i GuBV4.obj
 0001:000fb7f0       ??0AABBTree@Gu@physx@@QEAA@XZ 00000001800fc7f0 f   GuBV4Build.obj
 0001:000fb830       ??1AABBTree@Gu@physx@@QEAA@XZ 00000001800fc830 f   GuBV4Build.obj
 0001:000fb850       ?buildFromMesh@AABBTree@Gu@physx@@QEAA_NAEAVSourceMesh@23@I@Z 00000001800fc850 f   GuBV4Build.obj
 0001:000fbee0       ?release@AABBTree@Gu@physx@@QEAAXXZ 00000001800fcee0 f   GuBV4Build.obj
 0001:000fbf70       ?walk@AABBTree@Gu@physx@@QEBAIP6A_NPEBVAABBTreeNode@23@IPEAX@Z1@Z 00000001800fcf70 f   GuBV4Build.obj
 0001:000fbfd0       ?BuildBV4Ex@Gu@physx@@YA_NAEAVBV4Tree@12@AEAVSourceMesh@12@MI@Z 00000001800fcfd0 f   GuBV4Build.obj
 0001:000fd2f0       ??0BVData@@QEAA@XZ         00000001800fe2f0 f   GuBV4Build.obj
 0001:000fd340       ??1BV4BuildParams@@QEAA@XZ 00000001800fe340 f   GuBV4Build.obj
 0001:000fd360       ?allocateNode@BV4BuildParams@@QEAAPEAUBV4Node@@XZ 00000001800fe360 f   GuBV4Build.obj
 0001:000fd480       ?releaseNodes@BV4BuildParams@@QEAAXXZ 00000001800fe480 f   GuBV4Build.obj
 0001:000ff720       ??$?2V?$ReflectionAllocator@USlab@BV4BuildParams@@@shdfnd@physx@@@UserAllocated@shdfnd@physx@@SAPEAX_KV?$ReflectionAllocator@USlab@BV4BuildParams@@@12@PEBDH@Z 0000000180100720 f i GuBV4Build.obj
 0001:000ff760       ??$?_UV?$ReflectionAllocator@U?$BVDataPackedT@VQuantizedAABB@Gu@physx@@@Gu@physx@@@shdfnd@physx@@@UserAllocated@shdfnd@physx@@SAPEAX_KV?$ReflectionAllocator@U?$BVDataPackedT@VQuantizedAABB@Gu@physx@@@Gu@physx@@@12@PEBDH@Z 0000000180100760 f i GuBV4Build.obj
 0001:000ff7a0       ??$?_UV?$ReflectionAllocator@VAABBTreeNode@Gu@physx@@@shdfnd@physx@@@UserAllocated@shdfnd@physx@@SAPEAX_KV?$ReflectionAllocator@VAABBTreeNode@Gu@physx@@@12@PEBDH@Z 00000001801007a0 f i GuBV4Build.obj
 0001:000ff7e0       ??$swap@PEAVAABBTreeNode@Gu@physx@@@shdfnd@physx@@YAXAEAPEAVAABBTreeNode@Gu@1@0@Z 00000001801007e0 f i GuBV4Build.obj
 0001:000ff820       ??$swap@VAABBTreeNode@Gu@physx@@@shdfnd@physx@@YAXAEAVAABBTreeNode@Gu@1@0@Z 0000000180100820 f i GuBV4Build.obj
 0001:000ff870       ??0?$ReflectionAllocator@U?$BVDataPackedT@VQuantizedAABB@Gu@physx@@@Gu@physx@@@shdfnd@physx@@QEAA@PEBD@Z 0000000180100870 f i GuBV4Build.obj
 0001:000ff880       ??0?$ReflectionAllocator@USlab@BV4BuildParams@@@shdfnd@physx@@QEAA@PEBD@Z 0000000180100880 f i GuBV4Build.obj
 0001:000ff890       ??0?$ReflectionAllocator@VAABBTreeNode@Gu@physx@@@shdfnd@physx@@QEAA@PEBD@Z 0000000180100890 f i GuBV4Build.obj
 0001:000ff8a0       ??0AABBTreeNode@Gu@physx@@QEAA@AEBV012@@Z 00000001801008a0 f i GuBV4Build.obj
 0001:000ff900       ??0AABBTreeNode@Gu@physx@@QEAA@XZ 0000000180100900 f i GuBV4Build.obj
 0001:000ff950       ??0BV4BuildParams@@QEAA@M@Z 0000000180100950 f i GuBV4Build.obj
 0001:000ff980       ??0BV4Node@@QEAA@XZ        0000000180100980 f i GuBV4Build.obj
 0001:000ff9c0       ??0Slab@BV4BuildParams@@QEAA@XZ 00000001801009c0 f i GuBV4Build.obj
 0001:000ffa00       ??1AABBTreeNode@Gu@physx@@QEAA@XZ 0000000180100a00 f i GuBV4Build.obj
 0001:000ffa30       ??1BV4Node@@QEAA@XZ        0000000180100a30 f i GuBV4Build.obj
 0001:000ffa60       ??1BVData@@QEAA@XZ         0000000180100a60 f i GuBV4Build.obj
 0001:000ffa80       ??1Slab@BV4BuildParams@@QEAA@XZ 0000000180100a80 f i GuBV4Build.obj
 0001:000ffab0       ??4AABBTreeNode@Gu@physx@@QEAAAEAV012@AEBV012@@Z 0000000180100ab0 f i GuBV4Build.obj
 0001:000ffb10       ??_EAABBTreeNode@Gu@physx@@QEAAPEAXI@Z 0000000180100b10 f i GuBV4Build.obj
 0001:000ffbf0       ??_GSlab@BV4BuildParams@@QEAAPEAXI@Z 0000000180100bf0 f i GuBV4Build.obj
 0001:000fff00       ?allocate@?$ReflectionAllocator@U?$BVDataPackedT@VQuantizedAABB@Gu@physx@@@Gu@physx@@@shdfnd@physx@@QEAAPEAX_KPEBDH@Z 0000000180100f00 f i GuBV4Build.obj
 0001:000fff80       ?allocate@?$ReflectionAllocator@USlab@BV4BuildParams@@@shdfnd@physx@@QEAAPEAX_KPEBDH@Z 0000000180100f80 f i GuBV4Build.obj
 0001:00100000       ?allocate@?$ReflectionAllocator@VAABBTreeNode@Gu@physx@@@shdfnd@physx@@QEAAPEAX_KPEBDH@Z 0000000180101000 f i GuBV4Build.obj
 0001:00100080       ?encodePNS@?$BVDataPackedT@VQuantizedAABB@Gu@physx@@@Gu@physx@@QEAAXI@Z 0000000180101080 f i GuBV4Build.obj
 0001:00100100       ?getAABB@AABBTreeNode@Gu@physx@@QEBAAEBVPxBounds3@3@XZ 0000000180101100 f i GuBV4Build.obj
 0001:00100110       ?getBV@AABBTree@Gu@physx@@QEBAAEBVPxBounds3@3@XZ 0000000180101110 f i GuBV4Build.obj
 0001:00100120       ?getChild@BV4Node@@QEBAPEBU1@I@Z 0000000180101120 f i GuBV4Build.obj
 0001:00100140       ?getIndices@AABBTree@Gu@physx@@QEBAPEBIXZ 0000000180101140 f i GuBV4Build.obj
 0001:00100150       ?getName@?$ReflectionAllocator@U?$BVDataPackedT@VQuantizedAABB@Gu@physx@@@Gu@physx@@@shdfnd@physx@@CAPEBDXZ 0000000180101150 f i GuBV4Build.obj
 0001:00100190       ?getName@?$ReflectionAllocator@USlab@BV4BuildParams@@@shdfnd@physx@@CAPEBDXZ 0000000180101190 f i GuBV4Build.obj
 0001:001001d0       ?getName@?$ReflectionAllocator@VAABBTreeNode@Gu@physx@@@shdfnd@physx@@CAPEBDXZ 00000001801011d0 f i GuBV4Build.obj
 0001:00100210       ?getNbPrimitives@AABBTreeNode@Gu@physx@@QEBAIXZ 0000000180101210 f i GuBV4Build.obj
 0001:00100220       ?getNbTriangles@SourceMesh@Gu@physx@@QEBAIXZ 0000000180101220 f i GuBV4Build.obj
 0001:00100230       ?getNeg@AABBTreeNode@Gu@physx@@QEBAPEBV123@XZ 0000000180101230 f i GuBV4Build.obj
 0001:00100280       ?getNodes@AABBTree@Gu@physx@@QEBAPEBVAABBTreeNode@23@XZ 0000000180101280 f i GuBV4Build.obj
 0001:00100290       ?getPos@AABBTreeNode@Gu@physx@@QEBAPEBV123@XZ 0000000180101290 f i GuBV4Build.obj
 0001:001002a0       ?getPrimitives@AABBTreeNode@Gu@physx@@QEBAPEBIXZ 00000001801012a0 f i GuBV4Build.obj
 0001:001002b0       ?getTriangle@SourceMesh@Gu@physx@@QEBAXAEAUVertexPointers@23@I@Z 00000001801012b0 f i GuBV4Build.obj
 0001:00100370       ?getType@BV4Node@@QEBAIXZ  0000000180101370 f i GuBV4Build.obj
 0001:001003d0       ?getVertexReferences@Gu@physx@@YAXAEAI00IPEBVIndTri32@12@PEBVIndTri16@12@@Z 00000001801013d0 f i GuBV4Build.obj
 0001:001004c0       ?isLeaf@AABBTreeNode@Gu@physx@@QEBA_NXZ 00000001801014c0 f i GuBV4Build.obj
 0001:00100500       ?isLeaf@BV4Node@@QEBA_KI@Z 0000000180101500 f i GuBV4Build.obj
 0001:001020d0       ?Sweep_AABB_BV4@@YAHAEBVBox@Gu@physx@@AEBVPxVec3@3@MAEBVBV4Tree@23@PEIAVSweepHit@23@I@Z 00000001801030d0 f   GuBV4_AABBSweep.obj
 0001:001022e0       ?Sweep_AABB_BV4_CB@@YAXAEBVBox@Gu@physx@@AEBVPxVec3@3@MAEBVBV4Tree@23@PEIBVPxMat44@3@P6A_NPEAXAEBVSweepHit@23@@Z4I_N@Z 00000001801032e0 f   GuBV4_AABBSweep.obj
 0001:00102560       ?GenericSweep_AABB_CB@@YAXAEBVBox@Gu@physx@@AEBVPxVec3@3@MAEBVBV4Tree@23@P6A_NPEAX111IAEAM@Z3I@Z 0000000180103560 f   GuBV4_AABBSweep.obj
 0001:0010cc40       ??$V4SplatElement@$00@aos@shdfnd@physx@@YA?AT__m128@@T3@@Z 000000018010dc40 f i GuBV4_AABBSweep.obj
 0001:0010cca0       ??$V4SplatElement@$01@aos@shdfnd@physx@@YA?AT__m128@@T3@@Z 000000018010dca0 f i GuBV4_AABBSweep.obj
 0001:0010cd00       ??$V4SplatElement@$0A@@aos@shdfnd@physx@@YA?AT__m128@@T3@@Z 000000018010dd00 f i GuBV4_AABBSweep.obj
 0001:0010d550       ??0RayParams@@QEAA@XZ      000000018010e550 f i GuBV4_AABBSweep.obj
 0001:0010d5a0       ??0RaycastHitInternal@Gu@physx@@QEAA@XZ 000000018010e5a0 f i GuBV4_AABBSweep.obj
 0001:0010d5b0       ??0SweepHit@Gu@physx@@QEAA@XZ 000000018010e5b0 f i GuBV4_AABBSweep.obj
 0001:0010d670       ??1RayParams@@QEAA@XZ      000000018010e670 f i GuBV4_AABBSweep.obj
 0001:0010d6b0       ??1RaycastHitInternal@Gu@physx@@QEAA@XZ 000000018010e6b0 f i GuBV4_AABBSweep.obj
 0001:0010d6c0       ??1SweepHit@Gu@physx@@QEAA@XZ 000000018010e6c0 f i GuBV4_AABBSweep.obj
 0001:0010d6d0       ?V4RecipFast@aos@shdfnd@physx@@YA?AT__m128@@T4@@Z 000000018010e6d0 f i GuBV4_AABBSweep.obj
 0001:0010d700       ?computeBoxLocalImpact@Gu@physx@@YAXAEAVPxVec3@2@0AEAV?$PxFlags@W4Enum@PxHitFlag@physx@@G@2@AEBVBox@12@AEBV32@AEBVPxTriangle@2@V42@_N6M@Z 000000018010e700 f i GuBV4_AABBSweep.obj
 0001:0010d920       ?cross010@shdfnd@physx@@YA?AVPxVec3@2@AEBV32@@Z 000000018010e920 f i GuBV4_AABBSweep.obj
 0001:0010d970       ?cross100@shdfnd@physx@@YA?AVPxVec3@2@AEBV32@@Z 000000018010e970 f i GuBV4_AABBSweep.obj
 0001:0010d9c0       ?decodePNSNoShift@BVDataSwizzledQ@Gu@physx@@QEBAII@Z 000000018010e9c0 f i GuBV4_AABBSweep.obj
 0001:0010e000       ?getChildData@BVDataSwizzledQ@Gu@physx@@QEBAII@Z 000000018010f000 f i GuBV4_AABBSweep.obj
 0001:0010e020       ?getNbPrimitives@Gu@physx@@YAIAEAI@Z 000000018010f020 f i GuBV4_AABBSweep.obj
 0001:0010e060       ?getPrimitive@BVDataSwizzledQ@Gu@physx@@QEBAII@Z 000000018010f060 f i GuBV4_AABBSweep.obj
 0001:0010e080       ?getTris16@SourceMesh@Gu@physx@@QEBAPEBVIndTri16@23@XZ 000000018010f080 f i GuBV4_AABBSweep.obj
 0001:0010e090       ?getTris32@SourceMesh@Gu@physx@@QEBAPEBVIndTri32@23@XZ 000000018010f090 f i GuBV4_AABBSweep.obj
 0001:0010e0a0       ?getVerts@SourceMeshBase@Gu@physx@@QEBAPEBVPxVec3@3@XZ 000000018010f0a0 f i GuBV4_AABBSweep.obj
 0001:0010e0b0       ?invertBoxMatrix@Gu@physx@@YAXAEAVPxMat33@2@AEAVPxVec3@2@AEBVBox@12@@Z 000000018010f0b0 f i GuBV4_AABBSweep.obj
 0001:0010e2d0       ?isLeaf@BVDataSwizzledQ@Gu@physx@@QEBAII@Z 000000018010f2d0 f i GuBV4_AABBSweep.obj
 0001:0010e2f0       ?shouldFlipNormal@Gu@physx@@YA_NAEBVPxVec3@2@_N1AEBVPxTriangle@2@0PEBVPxTransform@2@@Z 000000018010f2f0 f i GuBV4_AABBSweep.obj
 0001:0010e420       ?testSeparationAxes@Gu@physx@@YAHAEBVPxTriangle@2@AEBVPxVec3@2@111MAEAM@Z 000000018010f420 f i GuBV4_AABBSweep.obj
 0001:0010e7f0       ?triBoxSweepTestBoxSpace_inlined@Gu@physx@@YAHAEBVPxTriangle@2@AEBVPxVec3@2@11MAEAMI@Z 000000018010f7f0 f i GuBV4_AABBSweep.obj
 0001:0010e950       ?BV4_OverlapBoxAny@@YAHAEBVBox@Gu@physx@@AEBVBV4Tree@23@PEIBVPxMat44@3@@Z 000000018010f950 f   GuBV4_BoxOverlap.obj
 0001:0010eb80       ?BV4_OverlapBoxAll@@YAIAEBVBox@Gu@physx@@AEBVBV4Tree@23@PEIBVPxMat44@3@PEAIIAEA_N@Z 000000018010fb80 f   GuBV4_BoxOverlap.obj
 0001:0010edf0       ?BV4_OverlapBoxCB@@YAXAEBVBox@Gu@physx@@AEBVBV4Tree@23@P6A_NPEAXAEBVPxVec3@3@33IPEBI@Z2@Z 000000018010fdf0 f   GuBV4_BoxOverlap.obj
 0001:0010f3c0       ?BV4_OverlapCapsuleAny@@YAHAEBVCapsule@Gu@physx@@AEBVBV4Tree@23@PEIBVPxMat44@3@@Z 00000001801103c0 f   GuBV4_BoxOverlap.obj
 0001:0010f5a0       ?BV4_OverlapCapsuleAll@@YAIAEBVCapsule@Gu@physx@@AEBVBV4Tree@23@PEIBVPxMat44@3@PEAIIAEA_N@Z 00000001801105a0 f   GuBV4_BoxOverlap.obj
 0001:0010f7e0       ?BV4_OverlapCapsuleCB@@YAXAEBVCapsule@Gu@physx@@AEBVBV4Tree@23@PEIBVPxMat44@3@P6A_NPEAXAEBVPxVec3@3@44IPEBI@Z3@Z 00000001801107e0 f   GuBV4_BoxOverlap.obj
 0001:00116530       ??$precomputeData@UOBBTestParams@@@@YAXPEIAUOBBTestParams@@PEIAVPxMat33@physx@@PEIBV12@@Z 0000000180117530 f i GuBV4_BoxOverlap.obj
 0001:001169b0       ??$setupBoxData@UOBBTestParams@@@@YAXPEIAUOBBTestParams@@AEBVPxVec3@physx@@PEIBVPxMat33@2@@Z 00000001801179b0 f i GuBV4_BoxOverlap.obj
 0001:00116af0       ??$setupMeshPointersAndQuantizedCoeffs@UCapsuleParamsAll@@@Gu@physx@@YAXPEIAUCapsuleParamsAll@@PEIBVSourceMesh@01@PEIBVBV4Tree@01@@Z 0000000180117af0 f i GuBV4_BoxOverlap.obj
 0001:00116bc0       ??$setupMeshPointersAndQuantizedCoeffs@UCapsuleParamsAny@@@Gu@physx@@YAXPEIAUCapsuleParamsAny@@PEIBVSourceMesh@01@PEIBVBV4Tree@01@@Z 0000000180117bc0 f i GuBV4_BoxOverlap.obj
 0001:00116c90       ??$setupMeshPointersAndQuantizedCoeffs@UCapsuleParamsCB@@@Gu@physx@@YAXPEIAUCapsuleParamsCB@@PEIBVSourceMesh@01@PEIBVBV4Tree@01@@Z 0000000180117c90 f i GuBV4_BoxOverlap.obj
 0001:00116d60       ??$setupMeshPointersAndQuantizedCoeffs@UOBBParams@@@Gu@physx@@YAXPEIAUOBBParams@@PEIBVSourceMesh@01@PEIBVBV4Tree@01@@Z 0000000180117d60 f i GuBV4_BoxOverlap.obj
 0001:00116e30       ??$setupMeshPointersAndQuantizedCoeffs@UOBBParamsAll@@@Gu@physx@@YAXPEIAUOBBParamsAll@@PEIBVSourceMesh@01@PEIBVBV4Tree@01@@Z 0000000180117e30 f i GuBV4_BoxOverlap.obj
 0001:00116f00       ??$setupMeshPointersAndQuantizedCoeffs@UOBBParamsCB@@@Gu@physx@@YAXPEIAUOBBParamsCB@@PEIBVSourceMesh@01@PEIBVBV4Tree@01@@Z 0000000180117f00 f i GuBV4_BoxOverlap.obj
 0001:00116fd0       ??0CapsuleParamsAll@@QEAA@XZ 0000000180117fd0 f i GuBV4_BoxOverlap.obj
 0001:00116ff0       ??0CapsuleParamsAny@@QEAA@XZ 0000000180117ff0 f i GuBV4_BoxOverlap.obj
 0001:00117040       ??0CapsuleParamsCB@@QEAA@XZ 0000000180118040 f i GuBV4_BoxOverlap.obj
 0001:00117060       ??0CapsuleTriangleOverlapData@Gu@physx@@QEAA@XZ 0000000180118060 f i GuBV4_BoxOverlap.obj
 0001:00117080       ??0OBBParams@@QEAA@XZ      0000000180118080 f i GuBV4_BoxOverlap.obj
 0001:001170d0       ??0OBBParamsAll@@QEAA@XZ   00000001801180d0 f i GuBV4_BoxOverlap.obj
 0001:001170f0       ??0OBBParamsCB@@QEAA@XZ    00000001801180f0 f i GuBV4_BoxOverlap.obj
 0001:00117110       ??0OBBTestParams@@QEAA@XZ  0000000180118110 f i GuBV4_BoxOverlap.obj
 0001:001171e0       ??0PxMat44@physx@@QEAA@XZ  00000001801181e0 f i GuBV4_BoxOverlap.obj
 0001:00117240       ??1CapsuleParamsAll@@QEAA@XZ 0000000180118240 f i GuBV4_BoxOverlap.obj
 0001:00117260       ??1CapsuleParamsAny@@QEAA@XZ 0000000180118260 f i GuBV4_BoxOverlap.obj
 0001:00117290       ??1CapsuleParamsCB@@QEAA@XZ 0000000180118290 f i GuBV4_BoxOverlap.obj
 0001:001172b0       ??1OBBParams@@QEAA@XZ      00000001801182b0 f i GuBV4_BoxOverlap.obj
 0001:001172e0       ??1OBBParamsAll@@QEAA@XZ   00000001801182e0 f i GuBV4_BoxOverlap.obj
 0001:00117300       ??1OBBParamsCB@@QEAA@XZ    0000000180118300 f i GuBV4_BoxOverlap.obj
 0001:00117320       ??1OBBTestParams@@QEAA@XZ  0000000180118320 f i GuBV4_BoxOverlap.obj
 0001:001173f0       ?BV4_BoxBoxOverlap@@YAHT__m128@@0PEIBUOBBTestParams@@@Z 00000001801183f0 f i GuBV4_BoxOverlap.obj
 0001:00117aa0       ?computeLocalBox@Gu@physx@@YAXAEAVBox@12@AEBV312@PEIBVPxMat44@2@@Z 0000000180118aa0 f i GuBV4_BoxOverlap.obj
 0001:00117b10       ?computeLocalCapsule@Gu@physx@@YAXAEAVCapsule@12@AEBV312@PEIBVPxMat44@2@@Z 0000000180118b10 f i GuBV4_BoxOverlap.obj
 0001:001182a0       ?init@CapsuleTriangleOverlapData@Gu@physx@@QEAAXAEBVCapsule@23@@Z 00000001801192a0 f i GuBV4_BoxOverlap.obj
 0001:00118350       ?inverseTransform@Gu@physx@@YA?AVPxVec3@2@PEIBVPxMat44@2@AEBV32@@Z 0000000180119350 f i GuBV4_BoxOverlap.obj
 0001:001185a0       ?invertPRMatrix@Gu@physx@@YAXPEIAVPxMat44@2@PEIBV32@@Z 00000001801195a0 f i GuBV4_BoxOverlap.obj
 0001:001187f0       ?precomputeBoxData@OBBTestParams@@QEAAXAEBVPxVec3@physx@@PEIBVPxMat33@3@@Z 00000001801197f0 f i GuBV4_BoxOverlap.obj
 0001:00118840       ?rotateBox@Gu@physx@@YAXAEAVBox@12@AEBVPxMat44@2@AEBV312@@Z 0000000180119840 f i GuBV4_BoxOverlap.obj
 0001:0011a3b0       ?BV4_CapsuleSweepSingle@@YAHAEBVCapsule@Gu@physx@@AEBVPxVec3@3@MAEBVBV4Tree@23@PEIAVSweepHit@23@I@Z 000000018011b3b0 f   GuBV4_CapsuleSweep.obj
 0001:0011ac80       ?BV4_CapsuleSweepCB@@YAXAEBVCapsule@Gu@physx@@AEBVPxVec3@3@MAEBVBV4Tree@23@PEIBVPxMat44@3@P6A_NPEAXAEBVSweepHit@23@@Z4I_N@Z 000000018011bc80 f   GuBV4_CapsuleSweep.obj
 0001:00120150       ??$PX_UNUSED@_N@@YAXAEB_N@Z 0000000180121150 f i GuBV4_CapsuleSweep.obj
 0001:00120d20       ??4Capsule@Gu@physx@@QEAAAEAV012@AEBV012@@Z 0000000180121d20 f i GuBV4_CapsuleSweep.obj
 0001:00120d60       ??4Segment@Gu@physx@@QEAAAEAV012@AEBV012@@Z 0000000180121d60 f i GuBV4_CapsuleSweep.obj
 0001:00120eb0       ?coarseCullingQuad@Gu@physx@@YA_NAEBVPxVec3@2@0MMPEIBV32@@Z 0000000180121eb0 f i GuBV4_CapsuleSweep.obj
 0001:00121120       ?coarseCullingTri@Gu@physx@@YA_NAEBVPxVec3@2@0MMPEIBV32@@Z 0000000180122120 f i GuBV4_CapsuleSweep.obj
 0001:00121410       ?computeAlignmentValue@Gu@physx@@YAMAEBVPxVec3@2@0@Z 0000000180122410 f i GuBV4_CapsuleSweep.obj
 0001:00121770       ?cullQuad@Gu@physx@@YA_NPEIBVPxVec3@2@AEBV32@MMM@Z 0000000180122770 f i GuBV4_CapsuleSweep.obj
 0001:00121b80       ?keepTriangle@Gu@physx@@YA_NMMMMMM@Z 0000000180122b80 f i GuBV4_CapsuleSweep.obj
 0001:00121c60       ?rejectQuad@Gu@physx@@YA_NAEBVPxVec3@2@0MMPEIBV32@M@Z 0000000180122c60 f i GuBV4_CapsuleSweep.obj
 0001:00121cf0       ?rejectTriangle@Gu@physx@@YA_NAEBVPxVec3@2@0MMPEIBV32@M@Z 0000000180122cf0 f i GuBV4_CapsuleSweep.obj
 0001:00121d80       ?squareDistance@Gu@physx@@YAMAEBVPxVec3@2@0M0@Z 0000000180122d80 f i GuBV4_CapsuleSweep.obj
 0001:00123790       ?BV4_CapsuleSweepSingleAA@@YAHAEBVCapsule@Gu@physx@@AEBVPxVec3@3@MAEBVBV4Tree@23@PEIAVSweepHit@23@I@Z 0000000180124790 f   GuBV4_CapsuleSweepAA.obj
 0001:001299c0       ?Sweep_OBB_BV4@@YAHAEBVBox@Gu@physx@@AEBVPxVec3@3@MAEBVBV4Tree@23@PEIAVSweepHit@23@I@Z 000000018012a9c0 f   GuBV4_OBBSweep.obj
 0001:00129b90       ?Sweep_OBB_BV4_CB@@YAXAEBVBox@Gu@physx@@AEBVPxVec3@3@MAEBVBV4Tree@23@PEIBVPxMat44@3@P6A_NPEAXAEBVSweepHit@23@@Z4I_N@Z 000000018012ab90 f   GuBV4_OBBSweep.obj
 0001:00129dd0       ?GenericSweep_OBB_CB@@YAXAEBVBox@Gu@physx@@AEBVPxVec3@3@MAEBVBV4Tree@23@P6A_NPEAX111IAEAM@Z3I@Z 000000018012add0 f   GuBV4_OBBSweep.obj
 0001:0012a160       ?BV4_BoxSweepSingle@@YAHAEBVBox@Gu@physx@@AEBVPxVec3@3@MAEBVBV4Tree@23@PEIBVPxMat44@3@PEIAVSweepHit@23@I@Z 000000018012b160 f   GuBV4_OBBSweep.obj
 0001:0012a2f0       ?BV4_BoxSweepCB@@YAXAEBVBox@Gu@physx@@AEBVPxVec3@3@MAEBVBV4Tree@23@PEIBVPxMat44@3@P6A_NPEAXAEBVSweepHit@23@@Z4I_N@Z 000000018012b2f0 f   GuBV4_OBBSweep.obj
 0001:0012a440       ?BV4_GenericSweepCB@@YAXAEBVBox@Gu@physx@@AEBVPxVec3@3@MAEBVBV4Tree@23@P6A_NPEAX111IAEAM@Z3_N@Z 000000018012b440 f   GuBV4_OBBSweep.obj
 0001:00133f30       ?BV4_RaycastSingle@@YAHAEBVPxVec3@physx@@0AEBVBV4Tree@Gu@2@PEIBVPxMat44@2@PEIAUPxRaycastHit@2@MMIV?$PxFlags@W4Enum@PxHitFlag@physx@@G@2@@Z 0000000180134f30 f   GuBV4_Raycast.obj
 0001:00134180       ?BV4_RaycastCB@@YAXAEBVPxVec3@physx@@0AEBVBV4Tree@Gu@2@PEIBVPxMat44@2@MMIP6A?AW4HitCode@42@PEAX000IMMM@Z3@Z 0000000180135180 f   GuBV4_Raycast.obj
 0001:001343e0       ?BV4_RaycastAll@@YAIAEBVPxVec3@physx@@0AEBVBV4Tree@Gu@2@PEIBVPxMat44@2@PEIAUPxRaycastHit@2@IMMIV?$PxFlags@W4Enum@PxHitFlag@physx@@G@2@@Z 00000001801353e0 f   GuBV4_Raycast.obj
 0001:0013ab40       ??$RayTriOverlapT@URayParams@@@@YAHAEAUPxRaycastHit@physx@@AEBVPxVec3@1@11PEIBURayParams@@@Z 000000018013bb40 f i GuBV4_Raycast.obj
 0001:0013b090       ??$setupMeshPointersAndQuantizedCoeffs@URayParams@@@Gu@physx@@YAXPEIAURayParams@@PEIBVSourceMesh@01@PEIBVBV4Tree@01@@Z 000000018013c090 f i GuBV4_Raycast.obj
 0001:0013b2d0       ??$setupParamsFlags@URayParams@@@Gu@physx@@YAXPEIAURayParams@@I@Z 000000018013c2d0 f i GuBV4_Raycast.obj
 0001:0013b410       ??0RaycastHitInternalUV@@QEAA@XZ 000000018013c410 f i GuBV4_Raycast.obj
 0001:0013b470       ??1RaycastHitInternalUV@@QEAA@XZ 000000018013c470 f i GuBV4_Raycast.obj
 0001:0013b490       ?computeLocalRay@Gu@physx@@YAXAEAVPxVec3@2@0AEBV32@1PEIBVPxMat44@2@@Z 000000018013c490 f i GuBV4_Raycast.obj
 0001:0013bb00       ?inverseRotate@Gu@physx@@YA?AVPxVec3@2@PEIBVPxMat44@2@AEBV32@@Z 000000018013cb00 f i GuBV4_Raycast.obj
 0001:0013c140       ?BV4_OverlapSphereAny@@YAHAEBVSphere@Gu@physx@@AEBVBV4Tree@23@PEIBVPxMat44@3@@Z 000000018013d140 f   GuBV4_SphereOverlap.obj
 0001:0013c320       ?BV4_OverlapSphereAll@@YAIAEBVSphere@Gu@physx@@AEBVBV4Tree@23@PEIBVPxMat44@3@PEAIIAEA_N@Z 000000018013d320 f   GuBV4_SphereOverlap.obj
 0001:0013c560       ?BV4_OverlapSphereCB@@YAXAEBVSphere@Gu@physx@@AEBVBV4Tree@23@PEIBVPxMat44@3@P6A_NPEAXAEBVPxVec3@3@44IPEBI@Z3@Z 000000018013d560 f   GuBV4_SphereOverlap.obj
 0001:0013f530       ??$setupMeshPointersAndQuantizedCoeffs@USphereParams@@@Gu@physx@@YAXPEIAUSphereParams@@PEIBVSourceMesh@01@PEIBVBV4Tree@01@@Z 0000000180140530 f i GuBV4_SphereOverlap.obj
 0001:0013f600       ??$setupMeshPointersAndQuantizedCoeffs@USphereParamsAll@@@Gu@physx@@YAXPEIAUSphereParamsAll@@PEIBVSourceMesh@01@PEIBVBV4Tree@01@@Z 0000000180140600 f i GuBV4_SphereOverlap.obj
 0001:0013f6d0       ??$setupMeshPointersAndQuantizedCoeffs@USphereParamsCB@@@Gu@physx@@YAXPEIAUSphereParamsCB@@PEIBVSourceMesh@01@PEIBVBV4Tree@01@@Z 00000001801406d0 f i GuBV4_SphereOverlap.obj
 0001:0013f7a0       ??0SphereParams@@QEAA@XZ   00000001801407a0 f i GuBV4_SphereOverlap.obj
 0001:0013f800       ??0SphereParamsAll@@QEAA@XZ 0000000180140800 f i GuBV4_SphereOverlap.obj
 0001:0013f820       ??0SphereParamsCB@@QEAA@XZ 0000000180140820 f i GuBV4_SphereOverlap.obj
 0001:0013f840       ??1SphereParams@@QEAA@XZ   0000000180140840 f i GuBV4_SphereOverlap.obj
 0001:0013f870       ??1SphereParamsAll@@QEAA@XZ 0000000180140870 f i GuBV4_SphereOverlap.obj
 0001:0013f890       ??1SphereParamsCB@@QEAA@XZ 0000000180140890 f i GuBV4_SphereOverlap.obj
 0001:0013f8b0       ?closestPtPointTriangle2@Gu@physx@@YA?AVPxVec3@2@AEBV32@00000@Z 00000001801408b0 f i GuBV4_SphereOverlap.obj
 0001:0013fd90       ?computeLocalSphere@Gu@physx@@YAXAEAMAEAVPxVec3@2@AEBVSphere@12@PEIBVPxMat44@2@@Z 0000000180140d90 f i GuBV4_SphereOverlap.obj
 0001:00140450       ?BV4_SphereSweepSingle@@YAHAEBVSphere@Gu@physx@@AEBVPxVec3@3@MAEBVBV4Tree@23@PEIBVPxMat44@3@PEIAVSweepHit@23@I@Z 0000000180141450 f   GuBV4_SphereSweep.obj
 0001:00140cc0       ?BV4_SphereSweepCB@@YAXAEBVSphere@Gu@physx@@AEBVPxVec3@3@MAEBVBV4Tree@23@PEIBVPxMat44@3@P6A_NPEAXAEBVSweepHit@23@@Z4I_N@Z 0000000180141cc0 f   GuBV4_SphereSweep.obj
 0001:00140fb0       ?BV4_GenericSweepCB_Old@@YAXAEBVPxVec3@physx@@00MAEBVBV4Tree@Gu@2@PEIBVPxMat44@2@P6A_NPEAX000IAEAM@Z3@Z 0000000180141fb0 f   GuBV4_SphereSweep.obj
 0001:0014a4b0       ??0Sphere@Gu@physx@@QEAA@XZ 000000018014b4b0 f i GuBV4_SphereSweep.obj
 0001:0014aba0       ?raycast_triangleMesh_BV4@Gu@physx@@YAIPEBVTriangleMesh@12@AEBVPxTriangleMeshGeometry@2@AEBVPxTransform@2@AEBVPxVec3@2@3MV?$PxFlags@W4Enum@PxHitFlag@physx@@G@2@IPEIAUPxRaycastHit@2@@Z 000000018014bba0 f   GuMidphaseBV4.obj
 0001:0014b410       ?intersectSphereVsMesh_BV4@Gu@physx@@YA_NAEBVSphere@12@AEBVTriangleMesh@12@AEBVPxTransform@2@AEBVPxMeshScale@2@PEAULimitedResults@12@@Z 000000018014c410 f   GuMidphaseBV4.obj
 0001:0014b6c0       ?intersectBoxVsMesh_BV4@Gu@physx@@YA_NAEBVBox@12@AEBVTriangleMesh@12@AEBVPxTransform@2@AEBVPxMeshScale@2@PEAULimitedResults@12@@Z 000000018014c6c0 f   GuMidphaseBV4.obj
 0001:0014b920       ?intersectCapsuleVsMesh_BV4@Gu@physx@@YA_NAEBVCapsule@12@AEBVTriangleMesh@12@AEBVPxTransform@2@AEBVPxMeshScale@2@PEAULimitedResults@12@@Z 000000018014c920 f   GuMidphaseBV4.obj
 0001:0014bbb0       ?intersectOBB_BV4@Gu@physx@@YAXPEBVTriangleMesh@12@AEBVBox@12@AEAU?$MeshHitCallback@UPxRaycastHit@physx@@@12@_N3@Z 000000018014cbb0 f   GuMidphaseBV4.obj
 0001:0014bc10       ?sweepCapsule_MeshGeom_BV4@Gu@physx@@YA_NPEBVTriangleMesh@12@AEBVPxTriangleMeshGeometry@2@AEBVPxTransform@2@AEBVCapsule@12@AEBVPxVec3@2@MAEAUPxSweepHit@2@V?$PxFlags@W4Enum@PxHitFlag@physx@@G@2@M@Z 000000018014cc10 f   GuMidphaseBV4.obj
 0001:0014c4a0       ?sweepBox_MeshGeom_BV4@Gu@physx@@YA_NPEBVTriangleMesh@12@AEBVPxTriangleMeshGeometry@2@AEBVPxTransform@2@AEBVBox@12@AEBVPxVec3@2@MAEAUPxSweepHit@2@V?$PxFlags@W4Enum@PxHitFlag@physx@@G@2@M@Z 000000018014d4a0 f   GuMidphaseBV4.obj
 0001:0014cfa0       ?sweepConvex_MeshGeom_BV4@Gu@physx@@YAXPEBVTriangleMesh@12@AEBVBox@12@AEBVPxVec3@2@MAEAUSweepConvexMeshHitCallback@12@_N@Z 000000018014dfa0 f   GuMidphaseBV4.obj
 0001:0014e4a0       ??0BV4RaycastCBParams@@QEAA@PEAUPxRaycastHit@physx@@IPEBVPxMeshScale@2@PEBVPxTransform@2@PEBVMatrix34@Cm@2@IAEBVPxVec3@2@_NM@Z 000000018014f4a0 f i GuMidphaseBV4.obj
 0001:0014e950       ??0Matrix34Padded@Gu@physx@@QEAA@AEBVMatrix34@Cm@2@@Z 000000018014f950 f i GuMidphaseBV4.obj
 0001:0014e980       ??0PxRaycastHit@physx@@QEAA@XZ 000000018014f980 f i GuMidphaseBV4.obj
 0001:0014ea10       ??1Matrix34Padded@Gu@physx@@QEAA@XZ 000000018014fa10 f i GuMidphaseBV4.obj
 0001:0014ea20       ??1SweepBoxMeshHitCallback@Gu@physx@@UEAA@XZ 000000018014fa20 f i GuMidphaseBV4.obj
 0001:0014ea60       ??1SweepCapsuleMeshHitCallback@Gu@physx@@UEAA@XZ 000000018014fa60 f i GuMidphaseBV4.obj
 0001:0014ea80       ??1SweepShapeMeshHitCallback@Gu@physx@@UEAA@XZ 000000018014fa80 f i GuMidphaseBV4.obj
 0001:0014eaa0       ??4PxRaycastHit@physx@@QEAAAEAU01@AEBU01@@Z 000000018014faa0 f i GuMidphaseBV4.obj
 0001:0014eaf0       ??_GSweepBoxMeshHitCallback@Gu@physx@@UEAAPEAXI@Z 000000018014faf0 f i GuMidphaseBV4.obj
 0001:0014eaf0       ??_ESweepBoxMeshHitCallback@Gu@physx@@UEAAPEAXI@Z 000000018014faf0 f i GuMidphaseBV4.obj
 0001:0014eb30       ?add@LimitedResults@Gu@physx@@QEAA_NI@Z 000000018014fb30 f i GuMidphaseBV4.obj
 0001:0014ebb0       ?computeSweepData@physx@@YAMAEBVPxTriangleMeshGeometry@1@AEAVPxVec3@1@11M@Z 000000018014fbb0 f i GuMidphaseBV4.obj
 0001:0014edc0       ?getBV4Tree@BV4TriangleMesh@Gu@physx@@QEBAAEBVBV4Tree@23@XZ 000000018014fdc0 f i GuMidphaseBV4.obj
 0001:0014ede0       ?getGeomEpsilon@TriangleMesh@Gu@physx@@QEBAMXZ 000000018014fde0 f i GuMidphaseBV4.obj
 0001:0014edf0       ?getInverse@physx@@YAXAEAVPxMat33@1@AEAVPxVec3@1@AEBV21@AEBV31@@Z 000000018014fdf0 f i GuMidphaseBV4.obj
 0001:0014f410       ?setupSweepHitForMTD@Gu@physx@@YAXAEAUPxSweepHit@2@_NAEBVPxVec3@2@@Z 0000000180150410 f i GuMidphaseBV4.obj
 0001:0014f4d0       ?transform@PxMeshScale@physx@@QEBA?AVPxVec3@2@AEBV32@@Z 00000001801504d0 f i GuMidphaseBV4.obj
 0001:0014f530       ?getTriangle@PxMeshQuery@physx@@SAXAEBVPxTriangleMeshGeometry@2@AEBVPxTransform@2@IAEAVPxTriangle@2@PEAI3@Z 0000000180150530 f   GuMeshQuery.obj
 0001:0014f690       ?getTriangle@PxMeshQuery@physx@@SAXAEBVPxHeightFieldGeometry@2@AEBVPxTransform@2@IAEAVPxTriangle@2@PEAI3@Z 0000000180150690 f   GuMeshQuery.obj
 0001:0014f710       ?findOverlapTriangleMesh@PxMeshQuery@physx@@SAIAEBVPxGeometry@2@AEBVPxTransform@2@AEBVPxTriangleMeshGeometry@2@1PEAIIIAEA_N@Z 0000000180150710 f   GuMeshQuery.obj
 0001:0014f9e0       ?findOverlapHeightField@PxMeshQuery@physx@@SAIAEBVPxGeometry@2@AEBVPxTransform@2@AEBVPxHeightFieldGeometry@2@1PEAIIIAEA_N@Z 00000001801509e0 f   GuMeshQuery.obj
 0001:0014fd50       ?sweep@PxMeshQuery@physx@@SA_NAEBVPxVec3@2@MAEBVPxGeometry@2@AEBVPxTransform@2@IPEBVPxTriangle@2@AEAUPxSweepHit@2@V?$PxFlags@W4Enum@PxHitFlag@physx@@G@2@PEBIM_N@Z 0000000180150d50 f   GuMeshQuery.obj
 0001:00150510       ??0LimitedResults@Gu@physx@@QEAA@PEAIII@Z 0000000180151510 f i GuMeshQuery.obj
 0001:00150570       ??0PxBoxGeometry@physx@@QEAA@XZ 0000000180151570 f i GuMeshQuery.obj
 0001:001505b0       ??0PxProfileScoped@physx@@QEAA@PEAVPxProfilerCallback@1@PEBD_N_K@Z 00000001801515b0 f i GuMeshQuery.obj
 0001:00150680       ??1PxProfileScoped@physx@@QEAA@XZ 0000000180151680 f i GuMeshQuery.obj
 0001:00150720       ?intersectBoxVsMesh@Midphase@Gu@physx@@YA_NAEBVBox@23@AEBVTriangleMesh@23@AEBVPxTransform@3@AEBVPxMeshScale@3@PEAULimitedResults@23@@Z 0000000180151720 f i GuMeshQuery.obj
 0001:00150790       ?intersectCapsuleVsMesh@Midphase@Gu@physx@@YA_NAEBVCapsule@23@AEBVTriangleMesh@23@AEBVPxTransform@3@AEBVPxMeshScale@3@PEAULimitedResults@23@@Z 0000000180151790 f i GuMeshQuery.obj
 0001:00150800       ?intersectSphereVsMesh@Midphase@Gu@physx@@YA_NAEBVSphere@23@AEBVTriangleMesh@23@AEBVPxTransform@3@AEBVPxMeshScale@3@PEAULimitedResults@23@@Z 0000000180151800 f i GuMeshQuery.obj
 0001:00150a40       ?reset@LimitedResults@Gu@physx@@QEAAXXZ 0000000180151a40 f i GuMeshQuery.obj
 0001:00150ba0       ?raycast_triangleMesh_RTREE@Gu@physx@@YAIPEBVTriangleMesh@12@AEBVPxTriangleMeshGeometry@2@AEBVPxTransform@2@AEBVPxVec3@2@3MV?$PxFlags@W4Enum@PxHitFlag@physx@@G@2@IPEIAUPxRaycastHit@2@@Z 0000000180151ba0 f   GuMidphaseRTree.obj
 0001:00150fb0       ?intersectSphereVsMesh_RTREE@Gu@physx@@YA_NAEBVSphere@12@AEBVTriangleMesh@12@AEBVPxTransform@2@AEBVPxMeshScale@2@PEAULimitedResults@12@@Z 0000000180151fb0 f   GuMidphaseRTree.obj
 0001:00151010       ?intersectBoxVsMesh_RTREE@Gu@physx@@YA_NAEBVBox@12@AEBVTriangleMesh@12@AEBVPxTransform@2@AEBVPxMeshScale@2@PEAULimitedResults@12@@Z 0000000180152010 f   GuMidphaseRTree.obj
 0001:00151070       ?intersectCapsuleVsMesh_RTREE@Gu@physx@@YA_NAEBVCapsule@12@AEBVTriangleMesh@12@AEBVPxTransform@2@AEBVPxMeshScale@2@PEAULimitedResults@12@@Z 0000000180152070 f   GuMidphaseRTree.obj
 0001:001510d0       ?intersectOBB_RTREE@Gu@physx@@YAXPEBVTriangleMesh@12@AEBVBox@12@AEAU?$MeshHitCallback@UPxRaycastHit@physx@@@12@_N3@Z 00000001801520d0 f   GuMidphaseRTree.obj
 0001:00151120       ?sweepCapsule_MeshGeom_RTREE@Gu@physx@@YA_NPEBVTriangleMesh@12@AEBVPxTriangleMeshGeometry@2@AEBVPxTransform@2@AEBVCapsule@12@AEBVPxVec3@2@MAEAUPxSweepHit@2@V?$PxFlags@W4Enum@PxHitFlag@physx@@G@2@M@Z 0000000180152120 f   GuMidphaseRTree.obj
 0001:00151570       ?sweepBox_MeshGeom_RTREE@Gu@physx@@YA_NPEBVTriangleMesh@12@AEBVPxTriangleMeshGeometry@2@AEBVPxTransform@2@AEBVBox@12@AEBVPxVec3@2@MAEAUPxSweepHit@2@V?$PxFlags@W4Enum@PxHitFlag@physx@@G@2@M@Z 0000000180152570 f   GuMidphaseRTree.obj
 0001:00151d70       ?sweepConvex_MeshGeom_RTREE@Gu@physx@@YAXPEBVTriangleMesh@12@AEBVBox@12@AEBVPxVec3@2@MAEAUSweepConvexMeshHitCallback@12@_N@Z 0000000180152d70 f   GuMidphaseRTree.obj
 0001:00151e90       ?collideOBB@MeshRayCollider@@SAXAEBVBox@Gu@physx@@_NPEBVRTreeTriangleMesh@34@AEAU?$MeshHitCallback@UPxRaycastHit@physx@@@34@1@Z 0000000180152e90 f   GuMidphaseRTree.obj
 0001:00155ce0       ??$collide@$00$00@MeshRayCollider@@SAXAEBVPxVec3@physx@@0M_NPEBVRTreeTriangleMesh@Gu@2@AEAU?$MeshHitCallback@UPxRaycastHit@physx@@@42@PEBV12@@Z 0000000180156ce0 f i GuMidphaseRTree.obj
 0001:00156050       ??$collide@$00$0A@@MeshRayCollider@@SAXAEBVPxVec3@physx@@0M_NPEBVRTreeTriangleMesh@Gu@2@AEAU?$MeshHitCallback@UPxRaycastHit@physx@@@42@PEBV12@@Z 0000000180157050 f i GuMidphaseRTree.obj
 0001:001563c0       ??$collide@$0A@$00@MeshRayCollider@@SAXAEBVPxVec3@physx@@0M_NPEBVRTreeTriangleMesh@Gu@2@AEAU?$MeshHitCallback@UPxRaycastHit@physx@@@42@PEBV12@@Z 00000001801573c0 f i GuMidphaseRTree.obj
 0001:00156730       ??$collide@$0A@$0A@@MeshRayCollider@@SAXAEBVPxVec3@physx@@0M_NPEBVRTreeTriangleMesh@Gu@2@AEAU?$MeshHitCallback@UPxRaycastHit@physx@@@42@PEBV12@@Z 0000000180157730 f i GuMidphaseRTree.obj
 0001:00156d40       ??0?$RayRTreeCallback@$00$00@@QEAA@MAEAU?$MeshHitCallback@UPxRaycastHit@physx@@@Gu@physx@@HPEBXPEBVPxVec3@3@AEBV43@3M_N2@Z 0000000180157d40 f i GuMidphaseRTree.obj
 0001:00156fd0       ??0?$RayRTreeCallback@$00$0A@@@QEAA@MAEAU?$MeshHitCallback@UPxRaycastHit@physx@@@Gu@physx@@HPEBXPEBVPxVec3@3@AEBV43@3M_N2@Z 0000000180157fd0 f i GuMidphaseRTree.obj
 0001:00157260       ??0?$RayRTreeCallback@$0A@$00@@QEAA@MAEAU?$MeshHitCallback@UPxRaycastHit@physx@@@Gu@physx@@HPEBXPEBVPxVec3@3@AEBV43@3M_N2@Z 0000000180158260 f i GuMidphaseRTree.obj
 0001:001574f0       ??0?$RayRTreeCallback@$0A@$0A@@@QEAA@MAEAU?$MeshHitCallback@UPxRaycastHit@physx@@@Gu@physx@@HPEBXPEBVPxVec3@3@AEBV43@3M_N2@Z 00000001801584f0 f i GuMidphaseRTree.obj
 0001:00157780       ??0Callback@RTree@Gu@physx@@QEAA@XZ 0000000180158780 f i GuMidphaseRTree.obj
 0001:001577a0       ??0CallbackRaycast@RTree@Gu@physx@@QEAA@XZ 00000001801587a0 f i GuMidphaseRTree.obj
 0001:00157840       ??0PxLocationHit@physx@@QEAA@AEBU01@@Z 0000000180158840 f i GuMidphaseRTree.obj
 0001:001578d0       ??0PxRaycastHit@physx@@QEAA@AEBU01@@Z 00000001801588d0 f i GuMidphaseRTree.obj
 0001:00157920       ??0RayMeshColliderCallback@@QEAA@W4Enum@CallbackMode@Gu@physx@@PEAUPxRaycastHit@4@IPEBVPxMeshScale@4@PEBVPxTransform@4@PEBVMatrix34@Cm@4@IAEBVPxVec3@4@_NM@Z 0000000180158920 f i GuMidphaseRTree.obj
 0001:001579f0       ??0SimpleRayTriOverlap@@QEAA@AEBVPxVec3@physx@@0_NM@Z 00000001801589f0 f i GuMidphaseRTree.obj
 0001:00157be0       ??1?$RayRTreeCallback@$00$00@@UEAA@XZ 0000000180158be0 f i GuMidphaseRTree.obj
 0001:00157d20       ??1?$RayRTreeCallback@$00$0A@@@UEAA@XZ 0000000180158d20 f i GuMidphaseRTree.obj
 0001:00157e60       ??1?$RayRTreeCallback@$0A@$00@@UEAA@XZ 0000000180158e60 f i GuMidphaseRTree.obj
 0001:00157fa0       ??1?$RayRTreeCallback@$0A@$0A@@@UEAA@XZ 0000000180158fa0 f i GuMidphaseRTree.obj
 0001:001580e0       ??1Callback@RTree@Gu@physx@@UEAA@XZ 00000001801590e0 f i GuMidphaseRTree.obj
 0001:00158100       ??1CallbackRaycast@RTree@Gu@physx@@UEAA@XZ 0000000180159100 f i GuMidphaseRTree.obj
 0001:00158150       ??1RayMeshColliderCallback@@UEAA@XZ 0000000180159150 f i GuMidphaseRTree.obj
 0001:00158168       ??_E?$RayRTreeCallback@$00$00@@W7EAAPEAXI@Z 0000000180159168 f i GuMidphaseRTree.obj
 0001:00158174       ??_E?$RayRTreeCallback@$00$0A@@@W7EAAPEAXI@Z 0000000180159174 f i GuMidphaseRTree.obj
 0001:00158180       ??_E?$RayRTreeCallback@$0A@$00@@W7EAAPEAXI@Z 0000000180159180 f i GuMidphaseRTree.obj
 0001:0015818c       ??_E?$RayRTreeCallback@$0A@$0A@@@W7EAAPEAXI@Z 000000018015918c f i GuMidphaseRTree.obj
 0001:00158320       ??_G?$RayRTreeCallback@$00$00@@UEAAPEAXI@Z 0000000180159320 f i GuMidphaseRTree.obj
 0001:00158320       ??_E?$RayRTreeCallback@$00$00@@UEAAPEAXI@Z 0000000180159320 f i GuMidphaseRTree.obj
 0001:00158360       ??_G?$RayRTreeCallback@$00$0A@@@UEAAPEAXI@Z 0000000180159360 f i GuMidphaseRTree.obj
 0001:00158360       ??_E?$RayRTreeCallback@$00$0A@@@UEAAPEAXI@Z 0000000180159360 f i GuMidphaseRTree.obj
 0001:001583a0       ??_G?$RayRTreeCallback@$0A@$00@@UEAAPEAXI@Z 00000001801593a0 f i GuMidphaseRTree.obj
 0001:001583a0       ??_E?$RayRTreeCallback@$0A@$00@@UEAAPEAXI@Z 00000001801593a0 f i GuMidphaseRTree.obj
 0001:001583e0       ??_E?$RayRTreeCallback@$0A@$0A@@@UEAAPEAXI@Z 00000001801593e0 f i GuMidphaseRTree.obj
 0001:001583e0       ??_G?$RayRTreeCallback@$0A@$0A@@@UEAAPEAXI@Z 00000001801593e0 f i GuMidphaseRTree.obj
 0001:00158420       ??_GCallback@RTree@Gu@physx@@UEAAPEAXI@Z 0000000180159420 f i GuMidphaseRTree.obj
 0001:00158420       ??_ECallback@RTree@Gu@physx@@UEAAPEAXI@Z 0000000180159420 f i GuMidphaseRTree.obj
 0001:00158460       ??_ECallbackRaycast@RTree@Gu@physx@@UEAAPEAXI@Z 0000000180159460 f i GuMidphaseRTree.obj
 0001:00158460       ??_GCallbackRaycast@RTree@Gu@physx@@UEAAPEAXI@Z 0000000180159460 f i GuMidphaseRTree.obj
 0001:001584e0       ??_ERayMeshColliderCallback@@UEAAPEAXI@Z 00000001801594e0 f i GuMidphaseRTree.obj
 0001:001584e0       ??_GRayMeshColliderCallback@@UEAAPEAXI@Z 00000001801594e0 f i GuMidphaseRTree.obj
 0001:00158520       ?GetNbTriangles@LeafTriangles@Gu@physx@@QEBAIXZ 0000000180159520 f i GuMidphaseRTree.obj
 0001:00158540       ?GetTriangleIndex@LeafTriangles@Gu@physx@@QEBAIXZ 0000000180159540 f i GuMidphaseRTree.obj
 0001:00158560       ?LeafGetNbTriangles@Gu@physx@@YAII@Z 0000000180159560 f i GuMidphaseRTree.obj
 0001:00158570       ?LeafGetTriangleIndex@Gu@physx@@YAII@Z 0000000180159570 f i GuMidphaseRTree.obj
 0001:00158580       ?getRTree@RTreeTriangleMesh@Gu@physx@@QEBAAEBURTree@23@XZ 0000000180159580 f i GuMidphaseRTree.obj
 0001:001585a0       ?getVertIndices@?$RayRTreeCallback@$00$00@@QEAAXIAEAI00@Z 00000001801595a0 f i GuMidphaseRTree.obj
 0001:00158690       ?getVertIndices@?$RayRTreeCallback@$00$0A@@@QEAAXIAEAI00@Z 0000000180159690 f i GuMidphaseRTree.obj
 0001:00158780       ?getVertIndices@?$RayRTreeCallback@$0A@$00@@QEAAXIAEAI00@Z 0000000180159780 f i GuMidphaseRTree.obj
 0001:00158870       ?getVertIndices@?$RayRTreeCallback@$0A@$0A@@@QEAAXIAEAI00@Z 0000000180159870 f i GuMidphaseRTree.obj
 0001:00158960       ?inAnyMode@?$MeshHitCallback@UPxRaycastHit@physx@@@Gu@physx@@QEBA_NXZ 0000000180159960 f i GuMidphaseRTree.obj
 0001:00158990       ?inClosestMode@?$MeshHitCallback@UPxRaycastHit@physx@@@Gu@physx@@QEBA_NXZ 0000000180159990 f i GuMidphaseRTree.obj
 0001:001589c0       ?largestAxis@shdfnd@physx@@YAIAEBVPxVec3@2@AEAI1@Z 00000001801599c0 f i GuMidphaseRTree.obj
 0001:00158a70       ?overlap@SimpleRayTriOverlap@@QEBAHAEBVPxVec3@physx@@00AEAUPxRaycastHit@3@@Z 0000000180159a70 f i GuMidphaseRTree.obj
 0001:00159bf0       ?processHit@RayMeshColliderCallback@@UEAA_NAEBUPxRaycastHit@physx@@AEBVPxVec3@3@11AEAMPEBI@Z 000000018015abf0 f i GuMidphaseRTree.obj
 0001:00159f90       ?processResults@?$RayRTreeCallback@$00$00@@UEAA_NIPEAI@Z 000000018015af90 f i GuMidphaseRTree.obj
 0001:00159fd0       ?processResults@?$RayRTreeCallback@$00$00@@UEAA_NIPEAIAEAM@Z 000000018015afd0 f i GuMidphaseRTree.obj
 0001:0015a760       ?processResults@?$RayRTreeCallback@$00$0A@@@UEAA_NIPEAI@Z 000000018015b760 f i GuMidphaseRTree.obj
 0001:0015a7a0       ?processResults@?$RayRTreeCallback@$00$0A@@@UEAA_NIPEAIAEAM@Z 000000018015b7a0 f i GuMidphaseRTree.obj
 0001:0015af30       ?processResults@?$RayRTreeCallback@$0A@$00@@UEAA_NIPEAI@Z 000000018015bf30 f i GuMidphaseRTree.obj
 0001:0015af70       ?processResults@?$RayRTreeCallback@$0A@$00@@UEAA_NIPEAIAEAM@Z 000000018015bf70 f i GuMidphaseRTree.obj
 0001:0015b700       ?processResults@?$RayRTreeCallback@$0A@$0A@@@UEAA_NIPEAI@Z 000000018015c700 f i GuMidphaseRTree.obj
 0001:0015b740       ?processResults@?$RayRTreeCallback@$0A@$0A@@@UEAA_NIPEAIAEAM@Z 000000018015c740 f i GuMidphaseRTree.obj
 0001:0015bed0       ?profile@Callback@RTree@Gu@physx@@UEAAXXZ 000000018015ced0 f i GuMidphaseRTree.obj
 0001:0015bf40       ?checkOverlapAABB_triangleGeom@Gu@physx@@YA_NAEBVPxGeometry@2@AEBVPxTransform@2@AEBVPxBounds3@2@@Z 000000018015cf40 f   GuOverlapTestsMesh.obj
 0001:0015c130       ?GeomOverlapCallback_SphereMesh@@YA_NAEBVPxGeometry@physx@@AEBVPxTransform@2@01PEAUTriggerCache@Gu@2@@Z 000000018015d130 f   GuOverlapTestsMesh.obj
 0001:0015c2a0       ?GeomOverlapCallback_CapsuleMesh@@YA_NAEBVPxGeometry@physx@@AEBVPxTransform@2@01PEAUTriggerCache@Gu@2@@Z 000000018015d2a0 f   GuOverlapTestsMesh.obj
 0001:0015c420       ?GeomOverlapCallback_BoxMesh@@YA_NAEBVPxGeometry@physx@@AEBVPxTransform@2@01PEAUTriggerCache@Gu@2@@Z 000000018015d420 f   GuOverlapTestsMesh.obj
 0001:0015c5b0       ?GeomOverlapCallback_ConvexMesh@@YA_NAEBVPxGeometry@physx@@AEBVPxTransform@2@01PEAUTriggerCache@Gu@2@@Z 000000018015d5b0 f   GuOverlapTestsMesh.obj
 0001:0015c910       ??$gjk@U?$RelativeConvex@VTriangleV@Gu@physx@@@Gu@physx@@U?$LocalConvex@VConvexHullV@Gu@physx@@@23@@Gu@physx@@YA?AW4GjkStatus@01@AEBU?$RelativeConvex@VTriangleV@Gu@physx@@@01@AEBU?$LocalConvex@VConvexHullV@Gu@physx@@@01@AEBT__m128@@2AEAT5@333@Z 000000018015d910 f i GuOverlapTestsMesh.obj
 0001:0015da50       ??0ConvexVsMeshOverlapCallback@@QEAA@AEBVConvexMesh@Gu@physx@@AEBVPxMeshScale@3@AEBVFastVertex2ShapeScaling@Cm@3@AEBVPxTransform@3@3_NAEBVBox@23@@Z 000000018015ea50 f i GuOverlapTestsMesh.obj
 0001:0015de70       ??1ConvexVsMeshOverlapCallback@@UEAA@XZ 000000018015ee70 f i GuOverlapTestsMesh.obj
 0001:0015deb0       ??_EConvexVsMeshOverlapCallback@@UEAAPEAXI@Z 000000018015eeb0 f i GuOverlapTestsMesh.obj
 0001:0015deb0       ??_GConvexVsMeshOverlapCallback@@UEAAPEAXI@Z 000000018015eeb0 f i GuOverlapTestsMesh.obj
 0001:0015def0       ?BAnyTrue3@aos@shdfnd@physx@@YA?AT__m128@@T4@@Z 000000018015eef0 f i GuOverlapTestsMesh.obj
 0001:0015df80       ?processHit@ConvexVsMeshOverlapCallback@@UEAA_NAEBUPxRaycastHit@physx@@AEBVPxVec3@3@11AEAMPEBI@Z 000000018015ef80 f i GuOverlapTestsMesh.obj
 0001:0015e520       ??0RTree@Gu@physx@@QEAA@W4PxEMPTY@2@@Z 000000018015f520 f   GuRTree.obj
 0001:0015e590       ?exportExtraData@RTree@Gu@physx@@QEAAXAEAVPxSerializationContext@3@@Z 000000018015f590 f   GuRTree.obj
 0001:0015e5f0       ?importExtraData@RTree@Gu@physx@@QEAAXAEAVPxDeserializationContext@3@@Z 000000018015f5f0 f   GuRTree.obj
 0001:0015e640       ?load@RTree@Gu@physx@@QEAA_NAEAVPxInputStream@3@I_N@Z 000000018015f640 f   GuRTree.obj
 0001:0015e9e0       ?refitAllStaticTree@RTree@Gu@physx@@QEAAXAEAUCallbackRefit@123@PEAVPxBounds3@3@@Z 000000018015f9e0 f   GuRTree.obj
 0001:0015efb0       ?validate@RTree@Gu@physx@@QEAAXPEAUCallbackRefit@123@@Z 000000018015ffb0 f   GuRTree.obj
 0001:0015f070       ?computeBottomLevelCount@RTree@Gu@physx@@QEBAII@Z 0000000180160070 f   GuRTree.obj
 0001:0015f290       ?validateRecursive@RTree@Gu@physx@@IEAAXIURTreeNodeQ@23@PEAURTreePage@23@PEAUCallbackRefit@123@@Z 0000000180160290 f   GuRTree.obj
 0001:0015fc70       ??$PX_UNUSED@URTreeNodeQ@Gu@physx@@@@YAXAEBURTreeNodeQ@Gu@physx@@@Z 0000000180160c70 f i GuRTree.obj
 0001:0015fc80       ??$readExtraData@URTreePage@Gu@physx@@@PxDeserializationContext@physx@@QEAAPEAURTreePage@Gu@1@I@Z 0000000180160c80 f i GuRTree.obj
 0001:0015fcc0       ?allocate@?$AlignedAllocator@$0IA@VNonTrackingAllocator@shdfnd@physx@@@shdfnd@physx@@QEAAPEAX_KPEBDH@Z 0000000180160cc0 f i GuRTree.obj
 0001:0015fd60       ?computeBounds@RTreePage@Gu@physx@@QEAAXAEAURTreeNodeQ@23@@Z 0000000180160d60 f i GuRTree.obj
 0001:0015ff20       ?getNode@RTreePage@Gu@physx@@QEBAXIAEAURTreeNodeQ@23@@Z 0000000180160f20 f i GuRTree.obj
 0001:00160030       ?isEmpty@RTreePage@Gu@physx@@QEBA_NI@Z 0000000180161030 f i GuRTree.obj
 0001:00160080       ?isLeaf@RTreeNodeQ@Gu@physx@@QEBAIXZ 0000000180161080 f i GuRTree.obj
 0001:001600a0       ?isLeaf@RTreePage@Gu@physx@@QEBAII@Z 00000001801610a0 f i GuRTree.obj
 0001:001600c0       ?nodeCount@RTreePage@Gu@physx@@QEBAIXZ 00000001801610c0 f i GuRTree.obj
 0001:00160110       ?traverseAABB@RTree@Gu@physx@@QEBAXAEBVPxVec3@3@0IPEAIPEAUCallback@123@@Z 0000000180161110 f   GuRTreeQueries.obj
 0001:00160b80       ?traverseOBB@RTree@Gu@physx@@QEBAXAEBVBox@23@IPEAIPEAUCallback@123@@Z 0000000180161b80 f   GuRTreeQueries.obj
 0001:001640a0       ??$PX_UNUSED@PEAI@@YAXAEBQEAI@Z 00000001801650a0 f i GuRTreeQueries.obj
 0001:001640b0       ??$traverseRay@$00@RTree@Gu@physx@@QEBAXAEBVPxVec3@2@0IPEAIPEAUCallbackRaycast@012@PEBV32@M@Z 00000001801650b0 f i GuRTreeQueries.obj
 0001:001654d0       ??$traverseRay@$0A@@RTree@Gu@physx@@QEBAXAEBVPxVec3@2@0IPEAIPEAUCallbackRaycast@012@PEBV32@M@Z 00000001801664d0 f i GuRTreeQueries.obj
 0001:001668f0       ?U4Load@aos@shdfnd@physx@@YA?AT__m128@@I@Z 00000001801678f0 f i GuRTreeQueries.obj
 0001:00166910       ?U4StoreA@aos@shdfnd@physx@@YAXT__m128@@PEAI@Z 0000000180167910 f i GuRTreeQueries.obj
 0001:00166990       ?V4Andc@aos@shdfnd@physx@@YA?AT__m128@@T4@0@Z 0000000180167990 f i GuRTreeQueries.obj
 0001:00166a00       ?V4IsGrtrV32u@aos@shdfnd@physx@@YA?AT__m128@@T4@0@Z 0000000180167a00 f i GuRTreeQueries.obj
 0001:00166a50       ?V4U32Andc@aos@shdfnd@physx@@YA?AT__m128@@T4@0@Z 0000000180167a50 f i GuRTreeQueries.obj
 0001:00166af0       ?V4U32StoreAligned@aos@shdfnd@physx@@YAXT__m128@@PEAT4@@Z 0000000180167af0 f i GuRTreeQueries.obj
 0001:00166b10       ?Vec4V_From_PxVec3_WUndefined@aos@shdfnd@physx@@YA?AT__m128@@AEBVPxVec3@3@@Z 0000000180167b10 f i GuRTreeQueries.obj
 0001:00166b60       ?VecU32V_From_BoolV@aos@shdfnd@physx@@YA?AT__m128@@AEBT4@@Z 0000000180167b60 f i GuRTreeQueries.obj
 0001:00166c20       ??0SweepShapeMeshHitCallback@Gu@physx@@QEAA@W4Enum@CallbackMode@12@AEBV?$PxFlags@W4Enum@PxHitFlag@physx@@G@2@_NM@Z 0000000180167c20 f   GuSweepsMesh.obj
 0001:00166cb0       ??0SweepCapsuleMeshHitCallback@Gu@physx@@QEAA@AEAUPxSweepHit@2@AEBVMatrix34@Cm@2@M_NAEBVCapsule@12@AEBVPxVec3@2@AEBV?$PxFlags@W4Enum@PxHitFlag@physx@@G@2@2M@Z 0000000180167cb0 f   GuSweepsMesh.obj
 0001:00166dd0       ?processHit@SweepCapsuleMeshHitCallback@Gu@physx@@UEAA_NAEBUPxRaycastHit@3@AEBVPxVec3@3@11AEAMPEBI@Z 0000000180167dd0 f   GuSweepsMesh.obj
 0001:00167330       ?finalizeHit@SweepCapsuleMeshHitCallback@Gu@physx@@QEBA_NAEAUPxSweepHit@3@AEBVCapsule@23@AEBVPxTriangleMeshGeometry@3@AEBVPxTransform@3@_N@Z 0000000180168330 f   GuSweepsMesh.obj
 0001:00167510       ??0SweepBoxMeshHitCallback@Gu@physx@@QEAA@W4Enum@CallbackMode@12@AEBVMatrix34Padded@12@M_NAEBVBox@12@AEBVPxVec3@2@44AEBV?$PxFlags@W4Enum@PxHitFlag@physx@@G@2@M2M@Z 0000000180168510 f   GuSweepsMesh.obj
 0001:00167790       ?processHit@SweepBoxMeshHitCallback@Gu@physx@@UEAA_NAEBUPxRaycastHit@3@AEBVPxVec3@3@11AEAMPEBI@Z 0000000180168790 f   GuSweepsMesh.obj
 0001:001683b0       ?finalizeHit@SweepBoxMeshHitCallback@Gu@physx@@QEBA_NAEAUPxSweepHit@3@AEBVPxTriangleMeshGeometry@3@AEBVPxTransform@3@2AEBVPxVec3@3@_N4@Z 00000001801693b0 f   GuSweepsMesh.obj
 0001:00168850       ??0SweepConvexMeshHitCallback@Gu@physx@@QEAA@AEBUConvexHullData@12@AEBVPxMeshScale@2@AEBVFastVertex2ShapeScaling@Cm@2@AEBVPxTransform@2@3AEBVPxVec3@2@MV?$PxFlags@W4Enum@PxHitFlag@physx@@G@2@_NM6M@Z 0000000180169850 f   GuSweepsMesh.obj
 0001:00168d20       ?processHit@SweepConvexMeshHitCallback@Gu@physx@@UEAA_NAEBUPxRaycastHit@3@AEBVPxVec3@3@11AEAMPEBI@Z 0000000180169d20 f   GuSweepsMesh.obj
 0001:00169050       ?finalizeHit@SweepConvexMeshHitCallback@Gu@physx@@QEAA_NAEAUPxSweepHit@3@AEBVPxTriangleMeshGeometry@3@AEBVPxTransform@3@AEBVPxConvexMeshGeometry@3@2AEBVPxVec3@3@M_N555@Z 000000018016a050 f   GuSweepsMesh.obj
 0001:00169ab0       ?sweepCapsule_MeshGeom@@YA_NAEBVPxGeometry@physx@@AEBVPxTransform@2@AEBVPxCapsuleGeometry@2@1AEBVCapsule@Gu@2@AEBVPxVec3@2@MAEAUPxSweepHit@2@V?$PxFlags@W4Enum@PxHitFlag@physx@@G@2@M@Z 000000018016aab0 f   GuSweepsMesh.obj
 0001:00169e20       ?sweepBox_MeshGeom@@YA_NAEBVPxGeometry@physx@@AEBVPxTransform@2@AEBVPxBoxGeometry@2@1AEBVBox@Gu@2@AEBVPxVec3@2@MAEAUPxSweepHit@2@V?$PxFlags@W4Enum@PxHitFlag@physx@@G@2@M@Z 000000018016ae20 f   GuSweepsMesh.obj
 0001:00169f50       ?sweepConvex_MeshGeom@@YA_NAEBVPxGeometry@physx@@AEBVPxTransform@2@AEBVPxConvexMeshGeometry@2@1AEBVPxVec3@2@MAEAUPxSweepHit@2@V?$PxFlags@W4Enum@PxHitFlag@physx@@G@2@M@Z 000000018016af50 f   GuSweepsMesh.obj
 0001:0016a570       ??1SweepConvexMeshHitCallback@Gu@physx@@UEAA@XZ 000000018016b570 f i GuSweepsMesh.obj
 0001:0016a5c0       ??4PxTriangle@physx@@QEAAXAEBV01@@Z 000000018016b5c0 f i GuSweepsMesh.obj
 0001:0016a670       ??_5?$PxFlags@W4Enum@PxHitFlag@physx@@G@physx@@QEAAAEAV01@AEBV01@@Z 000000018016b670 f i GuSweepsMesh.obj
 0001:0016a6a0       ??_GSweepCapsuleMeshHitCallback@Gu@physx@@UEAAPEAXI@Z 000000018016b6a0 f i GuSweepsMesh.obj
 0001:0016a6a0       ??_ESweepCapsuleMeshHitCallback@Gu@physx@@UEAAPEAXI@Z 000000018016b6a0 f i GuSweepsMesh.obj
 0001:0016a6e0       ??_GSweepConvexMeshHitCallback@Gu@physx@@UEAAPEAXI@Z 000000018016b6e0 f i GuSweepsMesh.obj
 0001:0016a6e0       ??_ESweepConvexMeshHitCallback@Gu@physx@@UEAAPEAXI@Z 000000018016b6e0 f i GuSweepsMesh.obj
 0001:0016a720       ??_GSweepShapeMeshHitCallback@Gu@physx@@UEAAPEAXI@Z 000000018016b720 f i GuSweepsMesh.obj
 0001:0016a720       ??_ESweepShapeMeshHitCallback@Gu@physx@@UEAAPEAXI@Z 000000018016b720 f i GuSweepsMesh.obj
 0001:0016a760       ?V4ScaleAdd@aos@shdfnd@physx@@YA?AT__m128@@T4@00@Z 000000018016b760 f i GuSweepsMesh.obj
 0001:0016a860       ?getShape2VertexSkew@FastVertex2ShapeScaling@Cm@physx@@QEBAAEBVPxMat33@3@XZ 000000018016b860 f i GuSweepsMesh.obj
 0001:0016a870       ?sweepBoxVsMesh@Midphase@Gu@physx@@YA_NPEBVTriangleMesh@23@AEBVPxTriangleMeshGeometry@3@AEBVPxTransform@3@AEBVBox@23@AEBVPxVec3@3@MAEAUPxSweepHit@3@V?$PxFlags@W4Enum@PxHitFlag@physx@@G@3@M@Z 000000018016b870 f i GuSweepsMesh.obj
 0001:0016a940       ?sweepCapsuleVsMesh@Midphase@Gu@physx@@YA_NPEBVTriangleMesh@23@AEBVPxTriangleMeshGeometry@3@AEBVPxTransform@3@AEBVCapsule@23@AEBVPxVec3@3@MAEAUPxSweepHit@3@V?$PxFlags@W4Enum@PxHitFlag@physx@@G@3@M@Z 000000018016b940 f i GuSweepsMesh.obj
 0001:0016aa10       ?sweepConvexVsMesh@Midphase@Gu@physx@@YAXPEBVTriangleMesh@23@AEBVBox@23@AEBVPxVec3@3@MAEAUSweepConvexMeshHitCallback@23@_N@Z 000000018016ba10 f i GuSweepsMesh.obj
 0001:0016ab40       ?exportExtraData@TriangleMesh@Gu@physx@@UEAAXAEAVPxSerializationContext@3@@Z 000000018016bb40 f   GuTriangleMesh.obj
 0001:0016ad70       ?importExtraData@TriangleMesh@Gu@physx@@QEAAXAEAVPxDeserializationContext@3@@Z 000000018016bd70 f   GuTriangleMesh.obj
 0001:0016aef0       ?release@TriangleMesh@Gu@physx@@UEAAXXZ 000000018016bef0 f   GuTriangleMesh.obj
 0001:0016af20       ?onRefCountZero@TriangleMesh@Gu@physx@@UEAAXXZ 000000018016bf20 f   GuTriangleMesh.obj
 0001:0016afe0       ??0TriangleMesh@Gu@physx@@QEAA@AEAVGuMeshFactory@2@AEAVTriangleMeshData@12@@Z 000000018016bfe0 f   GuTriangleMesh.obj
 0001:0016b240       ??1TriangleMesh@Gu@physx@@UEAA@XZ 000000018016c240 f   GuTriangleMesh.obj
 0001:0016b4b0       ?getVerticesForModification@TriangleMesh@Gu@physx@@UEAAPEAVPxVec3@3@XZ 000000018016c4b0 f   GuTriangleMesh.obj
 0001:0016b500       ?refitBVH@TriangleMesh@Gu@physx@@UEAA?AVPxBounds3@3@XZ 000000018016c500 f   GuTriangleMesh.obj
 0001:0016b590       ??$deletePxBase@VTriangleMesh@Gu@physx@@@Cm@physx@@YAXPEAVTriangleMesh@Gu@1@@Z 000000018016c590 f i GuTriangleMesh.obj
 0001:0016b620       ??$readExtraData@G$0BA@@PxDeserializationContext@physx@@QEAAPEAGI@Z 000000018016c620 f i GuTriangleMesh.obj
 0001:0016b650       ??$readExtraData@G@PxDeserializationContext@physx@@QEAAPEAGI@Z 000000018016c650 f i GuTriangleMesh.obj
 0001:0016b690       ??$readExtraData@I$0BA@@PxDeserializationContext@physx@@QEAAPEAII@Z 000000018016c690 f i GuTriangleMesh.obj
 0001:0016b6c0       ??$readExtraData@I@PxDeserializationContext@physx@@QEAAPEAII@Z 000000018016c6c0 f i GuTriangleMesh.obj
 0001:0016b700       ??$readExtraData@VPxVec3@physx@@$0BA@@PxDeserializationContext@physx@@QEAAPEAVPxVec3@1@I@Z 000000018016c700 f i GuTriangleMesh.obj
 0001:0016b730       ??$readExtraData@VPxVec3@physx@@@PxDeserializationContext@physx@@QEAAPEAVPxVec3@1@I@Z 000000018016c730 f i GuTriangleMesh.obj
 0001:0016b770       ??0?$PxFlags@W4Enum@PxTriangleMeshFlag@physx@@E@physx@@QEAA@E@Z 000000018016c770 f i GuTriangleMesh.obj
 0001:0016b790       ??0PxTriangleMesh@physx@@IEAA@GV?$PxFlags@W4Enum@PxBaseFlag@physx@@G@1@@Z 000000018016c790 f i GuTriangleMesh.obj
 0001:0016b7f0       ??1PxTriangleMesh@physx@@MEAA@XZ 000000018016c7f0 f i GuTriangleMesh.obj
 0001:0016b818       ??_ETriangleMesh@Gu@physx@@WBA@EAAPEAXI@Z 000000018016c818 f i GuTriangleMesh.obj
 0001:0016b830       ??_GPxTriangleMesh@physx@@MEAAPEAXI@Z 000000018016c830 f i GuTriangleMesh.obj
 0001:0016b830       ??_EPxTriangleMesh@physx@@MEAAPEAXI@Z 000000018016c830 f i GuTriangleMesh.obj
 0001:0016b870       ??_ETriangleMesh@Gu@physx@@UEAAPEAXI@Z 000000018016c870 f i GuTriangleMesh.obj
 0001:0016b870       ??_GTriangleMesh@Gu@physx@@UEAAPEAXI@Z 000000018016c870 f i GuTriangleMesh.obj
 0001:0016b8d0       ?acquireReference@TriangleMesh@Gu@physx@@UEAAXXZ 000000018016c8d0 f i GuTriangleMesh.obj
 0001:0016b8f0       ?getLocalBounds@TriangleMesh@Gu@physx@@UEBA?AVPxBounds3@3@XZ 000000018016c8f0 f i GuTriangleMesh.obj
 0001:0016b990       ?getNbTriangles@TriangleMesh@Gu@physx@@UEBAIXZ 000000018016c990 f i GuTriangleMesh.obj
 0001:0016b9a0       ?getNbVertices@TriangleMesh@Gu@physx@@UEBAIXZ 000000018016c9a0 f i GuTriangleMesh.obj
 0001:0016b9b0       ?getReferenceCount@TriangleMesh@Gu@physx@@UEBAIXZ 000000018016c9b0 f i GuTriangleMesh.obj
 0001:0016b9d0       ?getTriangleMaterialIndex@TriangleMesh@Gu@physx@@UEBAGI@Z 000000018016c9d0 f i GuTriangleMesh.obj
 0001:0016ba20       ?getTriangleMeshFlags@TriangleMesh@Gu@physx@@UEBA?AV?$PxFlags@W4Enum@PxTriangleMeshFlag@physx@@E@3@XZ 000000018016ca20 f i GuTriangleMesh.obj
 0001:0016ba50       ?getTriangles@TriangleMesh@Gu@physx@@UEBAPEBXXZ 000000018016ca50 f i GuTriangleMesh.obj
 0001:0016ba60       ?getTrianglesRemap@TriangleMesh@Gu@physx@@UEBAPEBIXZ 000000018016ca60 f i GuTriangleMesh.obj
 0001:0016ba70       ?getVertices@TriangleMesh@Gu@physx@@UEBAPEBVPxVec3@3@XZ 000000018016ca70 f i GuTriangleMesh.obj
 0001:0016ba80       ?hasPerTriangleMaterials@TriangleMesh@Gu@physx@@QEBA_NXZ 000000018016ca80 f i GuTriangleMesh.obj
 0001:0016bab0       ?isKindOf@PxTriangleMesh@physx@@MEBA_NPEBD@Z 000000018016cab0 f i GuTriangleMesh.obj
 0001:0016bb10       ?requiresObjects@TriangleMesh@Gu@physx@@UEAAXAEAVPxProcessPxBaseCallback@3@@Z 000000018016cb10 f i GuTriangleMesh.obj
 0001:0016bbd0       ?exportExtraData@BV4TriangleMesh@Gu@physx@@UEAAXAEAVPxSerializationContext@3@@Z 000000018016cbd0 f   GuTriangleMeshBV4.obj
 0001:0016bc10       ?importExtraData@BV4TriangleMesh@Gu@physx@@QEAAXAEAVPxDeserializationContext@3@@Z 000000018016cc10 f   GuTriangleMeshBV4.obj
 0001:0016bcf0       ?createObject@BV4TriangleMesh@Gu@physx@@SAPEAVTriangleMesh@23@AEAPEAEAEAVPxDeserializationContext@3@@Z 000000018016ccf0 f   GuTriangleMeshBV4.obj
 0001:0016bda0       ??0BV4TriangleMesh@Gu@physx@@QEAA@AEAVGuMeshFactory@2@AEAVTriangleMeshData@12@@Z 000000018016cda0 f   GuTriangleMeshBV4.obj
 0001:0016bed0       ??0BV4TriangleMesh@Gu@physx@@QEAA@V?$PxFlags@W4Enum@PxBaseFlag@physx@@G@2@@Z 000000018016ced0 f i GuTriangleMeshBV4.obj
 0001:0016bf60       ??0PxTriangleMesh@physx@@IEAA@V?$PxFlags@W4Enum@PxBaseFlag@physx@@G@1@@Z 000000018016cf60 f i GuTriangleMeshBV4.obj
 0001:0016bfb0       ??0SourceMesh@Gu@physx@@QEAA@W4PxEMPTY@2@@Z 000000018016cfb0 f i GuTriangleMeshBV4.obj
 0001:0016bfe0       ??0TriangleMesh@Gu@physx@@QEAA@V?$PxFlags@W4Enum@PxBaseFlag@physx@@G@2@@Z 000000018016cfe0 f i GuTriangleMeshBV4.obj
 0001:0016c070       ??1BV4TriangleMesh@Gu@physx@@UEAA@XZ 000000018016d070 f i GuTriangleMeshBV4.obj
 0001:0016c0d0       ??_EBV4TriangleMesh@Gu@physx@@WBA@EAAPEAXI@Z 000000018016d0d0 f i GuTriangleMeshBV4.obj
 0001:0016c0e0       ??_EBV4TriangleMesh@Gu@physx@@UEAAPEAXI@Z 000000018016d0e0 f i GuTriangleMeshBV4.obj
 0001:0016c0e0       ??_GBV4TriangleMesh@Gu@physx@@UEAAPEAXI@Z 000000018016d0e0 f i GuTriangleMeshBV4.obj
 0001:0016c140       ?getConcreteTypeName@BV4TriangleMesh@Gu@physx@@UEBAPEBDXZ 000000018016d140 f i GuTriangleMeshBV4.obj
 0001:0016c150       ?getMidphaseID@BV4TriangleMesh@Gu@physx@@UEBA?AW4Enum@PxMeshMidPhase@3@XZ 000000018016d150 f i GuTriangleMeshBV4.obj
 0001:0016c210       ?exportExtraData@RTreeTriangleMesh@Gu@physx@@UEAAXAEAVPxSerializationContext@3@@Z 000000018016d210 f   GuTriangleMeshRTree.obj
 0001:0016c250       ?importExtraData@RTreeTriangleMesh@Gu@physx@@QEAAXAEAVPxDeserializationContext@3@@Z 000000018016d250 f   GuTriangleMeshRTree.obj
 0001:0016c290       ?createObject@RTreeTriangleMesh@Gu@physx@@SAPEAVTriangleMesh@23@AEAPEAEAEAVPxDeserializationContext@3@@Z 000000018016d290 f   GuTriangleMeshRTree.obj
 0001:0016c340       ??0RTreeTriangleMesh@Gu@physx@@QEAA@AEAVGuMeshFactory@2@AEAVTriangleMeshData@12@@Z 000000018016d340 f   GuTriangleMeshRTree.obj
 0001:0016c440       ?getVerticesForModification@RTreeTriangleMesh@Gu@physx@@UEAAPEAVPxVec3@3@XZ 000000018016d440 f   GuTriangleMeshRTree.obj
 0001:0016c470       ?refitBVH@RTreeTriangleMesh@Gu@physx@@UEAA?AVPxBounds3@3@XZ 000000018016d470 f   GuTriangleMeshRTree.obj
 0001:0016c640       ??0?$RefitCallback@G@physx@@QEAA@PEBVPxVec3@1@PEBG@Z 000000018016d640 f i GuTriangleMeshRTree.obj
 0001:0016c6a0       ??0?$RefitCallback@I@physx@@QEAA@PEBVPxVec3@1@PEBI@Z 000000018016d6a0 f i GuTriangleMeshRTree.obj
 0001:0016c700       ??0CallbackRefit@RTree@Gu@physx@@QEAA@XZ 000000018016d700 f i GuTriangleMeshRTree.obj
 0001:0016c720       ??0RTreeTriangleMesh@Gu@physx@@QEAA@V?$PxFlags@W4Enum@PxBaseFlag@physx@@G@2@@Z 000000018016d720 f i GuTriangleMeshRTree.obj
 0001:0016c7a0       ??1?$RefitCallback@G@physx@@UEAA@XZ 000000018016d7a0 f i GuTriangleMeshRTree.obj
 0001:0016c7d0       ??1?$RefitCallback@I@physx@@UEAA@XZ 000000018016d7d0 f i GuTriangleMeshRTree.obj
 0001:0016c800       ??1CallbackRefit@RTree@Gu@physx@@UEAA@XZ 000000018016d800 f i GuTriangleMeshRTree.obj
 0001:0016c820       ??1RTreeTriangleMesh@Gu@physx@@UEAA@XZ 000000018016d820 f i GuTriangleMeshRTree.obj
 0001:0016c870       ??4RTree@Gu@physx@@QEAAAEAU012@AEBU012@@Z 000000018016d870 f i GuTriangleMeshRTree.obj
 0001:0016c95c       ??_ERTreeTriangleMesh@Gu@physx@@WBA@EAAPEAXI@Z 000000018016d95c f i GuTriangleMeshRTree.obj
 0001:0016c970       ??_E?$RefitCallback@G@physx@@UEAAPEAXI@Z 000000018016d970 f i GuTriangleMeshRTree.obj
 0001:0016c970       ??_G?$RefitCallback@G@physx@@UEAAPEAXI@Z 000000018016d970 f i GuTriangleMeshRTree.obj
 0001:0016c9b0       ??_E?$RefitCallback@I@physx@@UEAAPEAXI@Z 000000018016d9b0 f i GuTriangleMeshRTree.obj
 0001:0016c9b0       ??_G?$RefitCallback@I@physx@@UEAAPEAXI@Z 000000018016d9b0 f i GuTriangleMeshRTree.obj
 0001:0016c9f0       ??_ECallbackRefit@RTree@Gu@physx@@UEAAPEAXI@Z 000000018016d9f0 f i GuTriangleMeshRTree.obj
 0001:0016c9f0       ??_GCallbackRefit@RTree@Gu@physx@@UEAAPEAXI@Z 000000018016d9f0 f i GuTriangleMeshRTree.obj
 0001:0016ca30       ??_GRTreeTriangleMesh@Gu@physx@@UEAAPEAXI@Z 000000018016da30 f i GuTriangleMeshRTree.obj
 0001:0016ca30       ??_ERTreeTriangleMesh@Gu@physx@@UEAAPEAXI@Z 000000018016da30 f i GuTriangleMeshRTree.obj
 0001:0016ca90       ?getConcreteTypeName@RTreeTriangleMesh@Gu@physx@@UEBAPEBDXZ 000000018016da90 f i GuTriangleMeshRTree.obj
 0001:0016caa0       ?getMidphaseID@RTreeTriangleMesh@Gu@physx@@UEBA?AW4Enum@PxMeshMidPhase@3@XZ 000000018016daa0 f i GuTriangleMeshRTree.obj
 0001:0016cab0       ?recomputeBounds@?$RefitCallback@G@physx@@UEAAXIAEAT__m128@@0@Z 000000018016dab0 f i GuTriangleMeshRTree.obj
 0001:0016d030       ?recomputeBounds@?$RefitCallback@I@physx@@UEAAXIAEAT__m128@@0@Z 000000018016e030 f i GuTriangleMeshRTree.obj
 0001:0016d5b0       ??0BV32Tree@Gu@physx@@QEAA@W4PxEMPTY@2@@Z 000000018016e5b0 f   GuBV32.obj
 0001:0016d5f0       ?exportExtraData@BV32Tree@Gu@physx@@QEAAXAEAVPxSerializationContext@3@@Z 000000018016e5f0 f   GuBV32.obj
 0001:0016d660       ?importExtraData@BV32Tree@Gu@physx@@QEAAXAEAVPxDeserializationContext@3@@Z 000000018016e660 f   GuBV32.obj
 0001:0016d6b0       ??0BV32Tree@Gu@physx@@QEAA@XZ 000000018016e6b0 f   GuBV32.obj
 0001:0016d6f0       ??0BV32Tree@Gu@physx@@QEAA@PEAVSourceMesh@12@AEBVPxBounds3@2@@Z 000000018016e6f0 f   GuBV32.obj
 0001:0016d750       ??1BV32Tree@Gu@physx@@QEAA@XZ 000000018016e750 f   GuBV32.obj
 0001:0016d770       ?load@BV32Tree@Gu@physx@@QEAA_NAEAVPxInputStream@3@_N@Z 000000018016e770 f   GuBV32.obj
 0001:0016db10       ?calculateLeafNode@BV32Tree@Gu@physx@@QEAAXAEAUBV32Data@23@@Z 000000018016eb10 f   GuBV32.obj
 0001:0016dc20       ?createSOAformatNode@BV32Tree@Gu@physx@@QEAAXAEAUBV32DataPacked@23@AEBUBV32Data@23@IAEAI2@Z 000000018016ec20 f   GuBV32.obj
 0001:0016df40       ?reset@BV32Tree@Gu@physx@@QEAAXXZ 000000018016ef40 f   GuBV32.obj
 0001:0016dfa0       ??4BV32Tree@Gu@physx@@QEAAXAEAV012@@Z 000000018016efa0 f   GuBV32.obj
 0001:0016e030       ?init@BV32Tree@Gu@physx@@QEAA_NPEAVSourceMesh@23@AEBVPxBounds3@3@@Z 000000018016f030 f   GuBV32.obj
 0001:0016e080       ?release@BV32Tree@Gu@physx@@QEAAXXZ 000000018016f080 f   GuBV32.obj
 0001:0016e110       ??$readExtraData@UBV32DataPacked@Gu@physx@@@PxDeserializationContext@physx@@QEAAPEAUBV32DataPacked@Gu@1@I@Z 000000018016f110 f i GuBV32.obj
 0001:0016e150       ?getChildOffset@BV32Data@Gu@physx@@QEBAIXZ 000000018016f150 f i GuBV32.obj
 0001:0016e1d0       ?getNbChildren@BV32Data@Gu@physx@@QEBAIXZ 000000018016f1d0 f i GuBV32.obj
 0001:0016e250       ?isLeaf@BV32Data@Gu@physx@@QEBAIXZ 000000018016f250 f i GuBV32.obj
 0001:0016e270       ?BuildBV32Ex@Gu@physx@@YA_NAEAVBV32Tree@12@AEAVSourceMesh@12@MI@Z 000000018016f270 f   GuBV32Build.obj
 0001:0016f590       ??$?2V?$ReflectionAllocator@UBV32Node@@@shdfnd@physx@@@UserAllocated@shdfnd@physx@@SAPEAX_KV?$ReflectionAllocator@UBV32Node@@@12@PEBDH@Z 0000000180170590 f i GuBV32Build.obj
 0001:0016f5d0       ??$?_UV?$ReflectionAllocator@UBV32Data@Gu@physx@@@shdfnd@physx@@@UserAllocated@shdfnd@physx@@SAPEAX_KV?$ReflectionAllocator@UBV32Data@Gu@physx@@@12@PEBDH@Z 00000001801705d0 f i GuBV32Build.obj
 0001:0016f610       ??0?$ReflectionAllocator@UBV32Data@Gu@physx@@@shdfnd@physx@@QEAA@PEBD@Z 0000000180170610 f i GuBV32Build.obj
 0001:0016f620       ??0?$ReflectionAllocator@UBV32Node@@@shdfnd@physx@@QEAA@PEBD@Z 0000000180170620 f i GuBV32Build.obj
 0001:0016f630       ??0BV32Data@Gu@physx@@QEAA@XZ 0000000180170630 f i GuBV32Build.obj
 0001:0016f690       ??0BV32Node@@QEAA@XZ       0000000180170690 f i GuBV32Build.obj
 0001:0016fcf0       ?allocate@?$ReflectionAllocator@UBV32Data@Gu@physx@@@shdfnd@physx@@QEAAPEAX_KPEBDH@Z 0000000180170cf0 f i GuBV32Build.obj
 0001:0016fd70       ?allocate@?$ReflectionAllocator@UBV32Node@@@shdfnd@physx@@QEAAPEAX_KPEBDH@Z 0000000180170d70 f i GuBV32Build.obj
 0001:0016fdf0       ?getChild@BV32Node@@QEBAPEBU1@I@Z 0000000180170df0 f i GuBV32Build.obj
 0001:0016fe10       ?getName@?$ReflectionAllocator@UBV32Data@Gu@physx@@@shdfnd@physx@@CAPEBDXZ 0000000180170e10 f i GuBV32Build.obj
 0001:0016fe50       ?getName@?$ReflectionAllocator@UBV32Node@@@shdfnd@physx@@CAPEBDXZ 0000000180170e50 f i GuBV32Build.obj
 0001:0016fe90       ?isLeaf@BV32Node@@QEBA_KI@Z 0000000180170e90 f i GuBV32Build.obj
 0001:0016feb0       ?setEmpty@BV32Data@Gu@physx@@QEAAXXZ 0000000180170eb0 f i GuBV32Build.obj
 0001:0016ff20       ?pcmContactBoxBox@Gu@physx@@YA_NAEBVGeometryUnion@12@0AEBVPxTransform@2@1AEBUNarrowPhaseParams@12@AEAUCache@12@AEAVContactBuffer@12@PEAVRenderOutput@Cm@2@@Z 0000000180170f20 f   GuPCMContactBoxBox.obj
 0001:00178ba0       ?BTTFT@aos@shdfnd@physx@@YA?AT__m128@@XZ 0000000180179ba0 f i GuPCMContactBoxBox.obj
 0001:00178be0       ?CalculatePCMBoxMargin@Gu@physx@@YA?AT__m128@@AEBT3@MM@Z 0000000180179be0 f i GuPCMContactBoxBox.obj
 0001:00178ce0       ?PxAcos@physx@@YAMM@Z      0000000180179ce0 f i GuPCMContactBoxBox.obj
 0001:00178d10       ?V3ExtractMax@aos@shdfnd@physx@@YA?AT__m128@@T4@@Z 0000000180179d10 f i GuPCMContactBoxBox.obj
 0001:00178e40       ?V3RecipFast@aos@shdfnd@physx@@YA?AT__m128@@T4@@Z 0000000180179e40 f i GuPCMContactBoxBox.obj
 0001:00178f70       ?V3SetZ@aos@shdfnd@physx@@YA?AT__m128@@T4@0@Z 0000000180179f70 f i GuPCMContactBoxBox.obj
 0001:001790c0       ?Vec3V_From_FloatV@aos@shdfnd@physx@@YA?AT__m128@@T4@@Z 000000018017a0c0 f i GuPCMContactBoxBox.obj
 0001:00179110       ?contains@Gu@physx@@YA_NPEAT__m128@@IAEBT3@11@Z 000000018017a110 f i GuPCMContactBoxBox.obj
 0001:00179ad0       ?getCol0@PsMatTransformV@aos@shdfnd@physx@@QEBA?AT__m128@@XZ 000000018017aad0 f i GuPCMContactBoxBox.obj
 0001:00179af0       ?getCol1@PsMatTransformV@aos@shdfnd@physx@@QEBA?AT__m128@@XZ 000000018017aaf0 f i GuPCMContactBoxBox.obj
 0001:00179b20       ?getCol2@PsMatTransformV@aos@shdfnd@physx@@QEBA?AT__m128@@XZ 000000018017ab20 f i GuPCMContactBoxBox.obj
 0001:00179b50       ?getManifold@Cache@Gu@physx@@QEAAAEAVPersistentContactManifold@23@XZ 000000018017ab50 f i GuPCMContactBoxBox.obj
 0001:00179c80       ?getNumContacts@PersistentContactManifold@Gu@physx@@QEBAIXZ 000000018017ac80 f i GuPCMContactBoxBox.obj
 0001:00179c90       ?getWorldNormal@PersistentContactManifold@Gu@physx@@QEAA?AT__m128@@AEBVPsTransformV@aos@shdfnd@3@@Z 000000018017ac90 f i GuPCMContactBoxBox.obj
 0001:00179ef0       ?invalidate_BoxConvex@PersistentContactManifold@Gu@physx@@QEAAIAEBVPsTransformV@aos@shdfnd@3@AEBT__m128@@1111@Z 000000018017aef0 f i GuPCMContactBoxBox.obj
 0001:0017a4b0       ?isManifold@Cache@Gu@physx@@QEBAEXZ 000000018017b4b0 f i GuPCMContactBoxBox.obj
 0001:0017a4d0       ?isMultiManifold@Cache@Gu@physx@@QEBAEXZ 000000018017b4d0 f i GuPCMContactBoxBox.obj
 0001:0017a4f0       ?loadTransformA@aos@shdfnd@physx@@YA?AVPsTransformV@123@AEBVPxTransform@3@@Z 000000018017b4f0 f i GuPCMContactBoxBox.obj
 0001:0017a560       ?maxTransformPositionDelta@PersistentContactManifold@Gu@physx@@QEAA?AT__m128@@AEBT4@@Z 000000018017b560 f i GuPCMContactBoxBox.obj
 0001:0017a650       ?refreshContactPoints@PersistentContactManifold@Gu@physx@@QEAAXAEBVPsMatTransformV@aos@shdfnd@3@AEBT__m128@@1@Z 000000018017b650 f i GuPCMContactBoxBox.obj
 0001:0017a9e0       ?removeContactPoint@PersistentContactManifold@Gu@physx@@QEAAXI@Z 000000018017b9e0 f i GuPCMContactBoxBox.obj
 0001:0017aa40       ?rotateInv@PsMatTransformV@aos@shdfnd@physx@@QEBA?AT__m128@@AEBT5@@Z 000000018017ba40 f i GuPCMContactBoxBox.obj
 0001:0017aa90       ?setRelativeTransform@PersistentContactManifold@Gu@physx@@QEAAXAEBVPsTransformV@aos@shdfnd@3@T__m128@@1@Z 000000018017ba90 f i GuPCMContactBoxBox.obj
 0001:0017aae0       ?transformInv@PsMatTransformV@aos@shdfnd@physx@@QEBA?AT__m128@@AEBT5@@Z 000000018017bae0 f i GuPCMContactBoxBox.obj
 0001:0017ab70       ?transformInv@PsMatTransformV@aos@shdfnd@physx@@QEBA?AV1234@AEBV1234@@Z 000000018017bb70 f i GuPCMContactBoxBox.obj
 0001:0017ac60       ?pcmContactBoxConvex@Gu@physx@@YA_NAEBVGeometryUnion@12@0AEBVPxTransform@2@1AEBUNarrowPhaseParams@12@AEAUCache@12@AEAVContactBuffer@12@PEAVRenderOutput@Cm@2@@Z 000000018017bc60 f   GuPCMContactBoxConvex.obj
 0001:0017bf60       ??$getConvex@VConvexHullNoScaleV@Gu@physx@@@GjkConvexBase@Gu@physx@@QEBAAEBVConvexHullNoScaleV@12@XZ 000000018017cf60 f i GuPCMContactBoxConvex.obj
 0001:0017bf70       ??$gjkPenetration@U?$RelativeConvex@VBoxV@Gu@physx@@@Gu@physx@@U?$LocalConvex@VConvexHullNoScaleV@Gu@physx@@@23@@Gu@physx@@YA?AW4GjkStatus@01@AEBU?$RelativeConvex@VBoxV@Gu@physx@@@01@AEBU?$LocalConvex@VConvexHullNoScaleV@Gu@physx@@@01@AEBT__m128@@2_NPEIAE4AEAEAEAUGjkOutput@01@@Z 000000018017cf70 f i GuPCMContactBoxConvex.obj
 0001:0017d1b0       ??0?$LocalConvex@VConvexHullNoScaleV@Gu@physx@@@Gu@physx@@QEAA@AEBVConvexHullNoScaleV@12@@Z 000000018017e1b0 f i GuPCMContactBoxConvex.obj
 0001:0017d1f0       ??1?$LocalConvex@VConvexHullNoScaleV@Gu@physx@@@Gu@physx@@UEAA@XZ 000000018017e1f0 f i GuPCMContactBoxConvex.obj
 0001:0017d210       ??_E?$LocalConvex@VConvexHullNoScaleV@Gu@physx@@@Gu@physx@@UEAAPEAXI@Z 000000018017e210 f i GuPCMContactBoxConvex.obj
 0001:0017d210       ??_G?$LocalConvex@VConvexHullNoScaleV@Gu@physx@@@Gu@physx@@UEAAPEAXI@Z 000000018017e210 f i GuPCMContactBoxConvex.obj
 0001:0017d250       ?CalculatePCMConvexMargin@Gu@physx@@YA?AT__m128@@PEBUConvexHullData@12@AEBT3@MM@Z 000000018017e250 f i GuPCMContactBoxConvex.obj
 0001:0017d3c0       ?getCenter@?$LocalConvex@VConvexHullNoScaleV@Gu@physx@@@Gu@physx@@UEBA?AT__m128@@XZ 000000018017e3c0 f i GuPCMContactBoxConvex.obj
 0001:0017d3f0       ?getLocalNormal@PersistentContactManifold@Gu@physx@@QEAA?AT__m128@@XZ 000000018017e3f0 f i GuPCMContactBoxConvex.obj
 0001:0017d500       ?getMarginF@ConvexV@Gu@physx@@QEBAMXZ 000000018017e500 f i GuPCMContactBoxConvex.obj
 0001:0017d510       ?getSweepMargin@?$LocalConvex@VConvexHullNoScaleV@Gu@physx@@@Gu@physx@@UEBA?AT__m128@@XZ 000000018017e510 f i GuPCMContactBoxConvex.obj
 0001:0017d540       ?support@?$LocalConvex@VConvexHullNoScaleV@Gu@physx@@@Gu@physx@@UEBA?AT__m128@@AEBT4@@Z 000000018017e540 f i GuPCMContactBoxConvex.obj
 0001:0017d580       ?support@?$LocalConvex@VConvexHullNoScaleV@Gu@physx@@@Gu@physx@@UEBA?AT__m128@@AEBT4@AEAH@Z 000000018017e580 f i GuPCMContactBoxConvex.obj
 0001:0017d5d0       ?supportLocal@ConvexHullNoScaleV@Gu@physx@@QEBA?AT__m128@@AEBT4@AEAH@Z 000000018017e5d0 f i GuPCMContactBoxConvex.obj
 0001:0017d650       ?supportPoint@?$LocalConvex@VConvexHullNoScaleV@Gu@physx@@@Gu@physx@@UEBA?AT__m128@@H@Z 000000018017e650 f i GuPCMContactBoxConvex.obj
 0001:0017d690       ?supportPoint@ConvexHullNoScaleV@Gu@physx@@QEBA?AT__m128@@H@Z 000000018017e690 f i GuPCMContactBoxConvex.obj
 0001:0017d6e0       ?pcmContactCapsuleBox@Gu@physx@@YA_NAEBVGeometryUnion@12@0AEBVPxTransform@2@1AEBUNarrowPhaseParams@12@AEAUCache@12@AEAVContactBuffer@12@PEAVRenderOutput@Cm@2@@Z 000000018017e6e0 f   GuPCMContactCapsuleBox.obj
 0001:0017e8a0       ?invalidate_SphereCapsule@PersistentContactManifold@Gu@physx@@QEAAIAEBVPsTransformV@aos@shdfnd@3@AEBT__m128@@@Z 000000018017f8a0 f i GuPCMContactCapsuleBox.obj
 0001:0017eb20       ?setRelativeTransform@PersistentContactManifold@Gu@physx@@QEAAXAEBVPsTransformV@aos@shdfnd@3@@Z 000000018017fb20 f i GuPCMContactCapsuleBox.obj
 0001:0017eb40       ?transformInv@PsTransformV@aos@shdfnd@physx@@QEBA?AT__m128@@AEBT5@@Z 000000018017fb40 f i GuPCMContactCapsuleBox.obj
 0001:0017ec50       ?pcmContactCapsuleCapsule@Gu@physx@@YA_NAEBVGeometryUnion@12@0AEBVPxTransform@2@1AEBUNarrowPhaseParams@12@AEAUCache@12@AEAVContactBuffer@12@PEAVRenderOutput@Cm@2@@Z 000000018017fc50 f   GuPCMContactCapsuleCapsule.obj
 0001:00181720       ?BFTTT@aos@shdfnd@physx@@YA?AT__m128@@XZ 0000000180182720 f i GuPCMContactCapsuleCapsule.obj
 0001:00181760       ?QuatGetBasisVector0@aos@shdfnd@physx@@YA?AT__m128@@T4@@Z 0000000180182760 f i GuPCMContactCapsuleCapsule.obj
 0001:00181aa0       ?V3SetX@aos@shdfnd@physx@@YA?AT__m128@@T4@0@Z 0000000180182aa0 f i GuPCMContactCapsuleCapsule.obj
 0001:00181bf0       ?V3StoreA@aos@shdfnd@physx@@YAXT__m128@@AEAVPxVec3@3@@Z 0000000180182bf0 f i GuPCMContactCapsuleCapsule.obj
 0001:00181cb0       ?pcmContactCapsuleConvex@Gu@physx@@YA_NAEBVGeometryUnion@12@0AEBVPxTransform@2@1AEBUNarrowPhaseParams@12@AEAUCache@12@AEAVContactBuffer@12@PEAVRenderOutput@Cm@2@@Z 0000000180182cb0 f   GuPCMContactCapsuleConvex.obj
 0001:00183010       ??$gjkPenetration@U?$LocalConvex@VCapsuleV@Gu@physx@@@Gu@physx@@U?$LocalConvex@VConvexHullNoScaleV@Gu@physx@@@23@@Gu@physx@@YA?AW4GjkStatus@01@AEBU?$LocalConvex@VCapsuleV@Gu@physx@@@01@AEBU?$LocalConvex@VConvexHullNoScaleV@Gu@physx@@@01@AEBT__m128@@2_NPEIAE4AEAEAEAUGjkOutput@01@@Z 0000000180184010 f i GuPCMContactCapsuleConvex.obj
 0001:00184250       ?CalculateCapsuleMinMargin@Gu@physx@@YA?AT__m128@@AEBT3@@Z 0000000180185250 f i GuPCMContactCapsuleConvex.obj
 0001:001842b0       ?pcmContactCapsuleHeightField@Gu@physx@@YA_NAEBVGeometryUnion@12@0AEBVPxTransform@2@1AEBUNarrowPhaseParams@12@AEAUCache@12@AEAVContactBuffer@12@PEAVRenderOutput@Cm@2@@Z 00000001801852b0 f   GuPCMContactCapsuleHeightField.obj
 0001:001848a0       ??$processTriangleCache@$0BA@@PCMCapsuleVsHeightfieldContactGenerationCallback@physx@@QEAAXAEAU?$TriangleCache@$0BA@@Gu@1@@Z 00000001801858a0 f i GuPCMContactCapsuleHeightField.obj
 0001:001848d0       ??$processTriangleCache@$0BA@VPCMCapsuleVsMeshContactGeneration@Gu@physx@@@PCMMeshContactGeneration@Gu@physx@@QEAA_NAEAU?$TriangleCache@$0BA@@12@@Z 00000001801858d0 f i GuPCMContactCapsuleHeightField.obj
 0001:001849b0       ??0?$PCMHeightfieldContactGenerationCallback@UPCMCapsuleVsHeightfieldContactGenerationCallback@physx@@@Gu@physx@@QEAA@AEBVHeightFieldUtil@12@AEBVPxTransform@2@@Z 00000001801859b0 f i GuPCMContactCapsuleHeightField.obj
 0001:00184a70       ??0?$TriangleCache@$0BA@@Gu@physx@@QEAA@XZ 0000000180185a70 f i GuPCMContactCapsuleHeightField.obj
 0001:00184ac0       ??0PCMCapsuleVsHeightfieldContactGenerationCallback@physx@@QEAA@AEBVCapsuleV@Gu@1@AEBT__m128@@1AEBVPsTransformV@aos@shdfnd@1@2AEBVPxTransform@1@AEAVMultiplePersistentContactManifold@31@AEAVContactBuffer@31@PEAV?$InlineArray@I$0EEA@VNamedAllocator@shdfnd@physx@@@71@AEAVHeightFieldUtil@31@@Z 0000000180185ac0 f i GuPCMContactCapsuleHeightField.obj
 0001:00184b80       ??0PCMCapsuleVsMeshContactGeneration@Gu@physx@@QEAA@AEBVCapsuleV@12@AEBT__m128@@1AEBVPsTransformV@aos@shdfnd@2@2AEAVMultiplePersistentContactManifold@12@AEAVContactBuffer@12@PEAV?$InlineArray@I$0EEA@VNamedAllocator@shdfnd@physx@@@72@PEAVRenderOutput@Cm@2@@Z 0000000180185b80 f i GuPCMContactCapsuleHeightField.obj
 0001:00184ce0       ??0PCMContactPatch@Gu@physx@@QEAA@XZ 0000000180185ce0 f i GuPCMContactCapsuleHeightField.obj
 0001:00184d40       ??0PCMMeshContactGeneration@Gu@physx@@QEAA@AEBT__m128@@0AEBVPsTransformV@aos@shdfnd@2@1AEAVMultiplePersistentContactManifold@12@AEAVContactBuffer@12@PEAV?$InlineArray@I$0EEA@VNamedAllocator@shdfnd@physx@@@62@PEAVRenderOutput@Cm@2@@Z 0000000180185d40 f i GuPCMContactCapsuleHeightField.obj
 0001:00184fe0       ??1?$PCMHeightfieldContactGenerationCallback@UPCMCapsuleVsHeightfieldContactGenerationCallback@physx@@@Gu@physx@@UEAA@XZ 0000000180185fe0 f i GuPCMContactCapsuleHeightField.obj
 0001:00185000       ??1PCMCapsuleVsHeightfieldContactGenerationCallback@physx@@UEAA@XZ 0000000180186000 f i GuPCMContactCapsuleHeightField.obj
 0001:00185020       ??_G?$PCMHeightfieldContactGenerationCallback@UPCMCapsuleVsHeightfieldContactGenerationCallback@physx@@@Gu@physx@@UEAAPEAXI@Z 0000000180186020 f i GuPCMContactCapsuleHeightField.obj
 0001:00185020       ??_E?$PCMHeightfieldContactGenerationCallback@UPCMCapsuleVsHeightfieldContactGenerationCallback@physx@@@Gu@physx@@UEAAPEAXI@Z 0000000180186020 f i GuPCMContactCapsuleHeightField.obj
 0001:00185060       ??_EPCMCapsuleVsHeightfieldContactGenerationCallback@physx@@UEAAPEAXI@Z 0000000180186060 f i GuPCMContactCapsuleHeightField.obj
 0001:00185060       ??_GPCMCapsuleVsHeightfieldContactGenerationCallback@physx@@UEAAPEAXI@Z 0000000180186060 f i GuPCMContactCapsuleHeightField.obj
 0001:001850a0       ?addTriangle@?$TriangleCache@$0BA@@Gu@physx@@QEAAXPEBVPxVec3@3@PEBIIE@Z 00000001801860a0 f i GuPCMContactCapsuleHeightField.obj
 0001:00185280       ?getMultipleManifold@Cache@Gu@physx@@QEAAAEAVMultiplePersistentContactManifold@23@XZ 0000000180186280 f i GuPCMContactCapsuleHeightField.obj
 0001:001853b0       ?onEvent@?$PCMHeightfieldContactGenerationCallback@UPCMCapsuleVsHeightfieldContactGenerationCallback@physx@@@Gu@physx@@UEAA_NIPEAI@Z 00000001801863b0 f i GuPCMContactCapsuleHeightField.obj
 0001:00185990       ?prioritizeContactPatches@PCMMeshContactGeneration@Gu@physx@@QEAAXXZ 0000000180186990 f i GuPCMContactCapsuleHeightField.obj
 0001:00185b70       ?processContacts@PCMMeshContactGeneration@Gu@physx@@QEAAXE_N@Z 0000000180186b70 f i GuPCMContactCapsuleHeightField.obj
 0001:00185d20       ?pcmContactCapsuleMesh@Gu@physx@@YA_NAEBVGeometryUnion@12@0AEBVPxTransform@2@1AEBUNarrowPhaseParams@12@AEAUCache@12@AEAVContactBuffer@12@PEAVRenderOutput@Cm@2@@Z 0000000180186d20 f   GuPCMContactCapsuleMesh.obj
 0001:00186440       ??$processTriangleCache@$0BA@@PCMCapsuleVsMeshContactGenerationCallback@physx@@QEAAXAEAU?$TriangleCache@$0BA@@Gu@1@@Z 0000000180187440 f i GuPCMContactCapsuleMesh.obj
 0001:00186470       ??0?$PCMMeshContactGenerationCallback@UPCMCapsuleVsMeshContactGenerationCallback@physx@@@Gu@physx@@QEAA@AEBVFastVertex2ShapeScaling@Cm@2@PEBE_N@Z 0000000180187470 f i GuPCMContactCapsuleMesh.obj
 0001:001864f0       ??0PCMCapsuleVsMeshContactGenerationCallback@physx@@QEAA@AEBVCapsuleV@Gu@1@AEBT__m128@@1AEBVPsTransformV@aos@shdfnd@1@2AEAVMultiplePersistentContactManifold@31@AEAVContactBuffer@31@PEBEAEBVFastVertex2ShapeScaling@Cm@1@_NPEAV?$InlineArray@I$0EEA@VNamedAllocator@shdfnd@physx@@@71@PEAVRenderOutput@Cm@1@@Z 00000001801874f0 f i GuPCMContactCapsuleMesh.obj
 0001:001865c0       ??1?$PCMMeshContactGenerationCallback@UPCMCapsuleVsMeshContactGenerationCallback@physx@@@Gu@physx@@UEAA@XZ 00000001801875c0 f i GuPCMContactCapsuleMesh.obj
 0001:001865e0       ??1PCMCapsuleVsMeshContactGenerationCallback@physx@@UEAA@XZ 00000001801875e0 f i GuPCMContactCapsuleMesh.obj
 0001:00186600       ??_G?$PCMMeshContactGenerationCallback@UPCMCapsuleVsMeshContactGenerationCallback@physx@@@Gu@physx@@UEAAPEAXI@Z 0000000180187600 f i GuPCMContactCapsuleMesh.obj
 0001:00186600       ??_E?$PCMMeshContactGenerationCallback@UPCMCapsuleVsMeshContactGenerationCallback@physx@@@Gu@physx@@UEAAPEAXI@Z 0000000180187600 f i GuPCMContactCapsuleMesh.obj
 0001:00186640       ??_EPCMCapsuleVsMeshContactGenerationCallback@physx@@UEAAPEAXI@Z 0000000180187640 f i GuPCMContactCapsuleMesh.obj
 0001:00186640       ??_GPCMCapsuleVsMeshContactGenerationCallback@physx@@UEAAPEAXI@Z 0000000180187640 f i GuPCMContactCapsuleMesh.obj
 0001:00186680       ?doTest@PCMCapsuleVsMeshContactGenerationCallback@physx@@QEAA_NAEBVPxVec3@2@00@Z 0000000180187680 f i GuPCMContactCapsuleMesh.obj
 0001:001866a0       ?flushCache@?$PCMMeshContactGenerationCallback@UPCMCapsuleVsMeshContactGenerationCallback@physx@@@Gu@physx@@QEAAXXZ 00000001801876a0 f i GuPCMContactCapsuleMesh.obj
 0001:001866f0       ?isEmpty@?$TriangleCache@$0BA@@Gu@physx@@QEBA_NXZ 00000001801876f0 f i GuPCMContactCapsuleMesh.obj
 0001:00186720       ?isFull@?$TriangleCache@$0BA@@Gu@physx@@QEBA_NXZ 0000000180187720 f i GuPCMContactCapsuleMesh.obj
 0001:00186750       ?processHit@?$PCMMeshContactGenerationCallback@UPCMCapsuleVsMeshContactGenerationCallback@physx@@@Gu@physx@@UEAA_NAEBUPxRaycastHit@3@AEBVPxVec3@3@11AEAMPEBI@Z 0000000180187750 f i GuPCMContactCapsuleMesh.obj
 0001:001869c0       ?reset@?$TriangleCache@$0BA@@Gu@physx@@QEAAXXZ 00000001801879c0 f i GuPCMContactCapsuleMesh.obj
 0001:001869e0       ?generateLastContacts@PCMConvexVsMeshContactGeneration@Gu@physx@@QEAAXXZ 00000001801879e0 f   GuPCMContactConvexCommon.obj
 0001:00187070       ?addContactsToPatch@PCMConvexVsMeshContactGeneration@Gu@physx@@QEAAXAEBT__m128@@I@Z 0000000180188070 f   GuPCMContactConvexCommon.obj
 0001:00187580       ?processTriangle@PCMConvexVsMeshContactGeneration@Gu@physx@@QEAA_NPEBVPxVec3@3@IEPEBI@Z 0000000180188580 f   GuPCMContactConvexCommon.obj
 0001:00187cc0       ?processTriangle@PCMConvexVsMeshContactGeneration@Gu@physx@@SA_NAEBUPolygonalData@23@PEAVSupportLocal@23@PEBVPxVec3@3@IEAEBT__m128@@_NAEBVPsTransformV@aos@shdfnd@3@AEBVPsMatTransformV@9shdfnd@3@PEAVMeshPersistentContact@23@AEAI@Z 0000000180188cc0 f   GuPCMContactConvexCommon.obj
 0001:00188150       ?processTriangle@PCMSphereVsMeshContactGeneration@Gu@physx@@QEAA_NPEBVPxVec3@3@IEPEBI@Z 0000000180189150 f   GuPCMContactConvexCommon.obj
 0001:001889e0       ?generateLastContacts@PCMSphereVsMeshContactGeneration@Gu@physx@@QEAAXXZ 00000001801899e0 f   GuPCMContactConvexCommon.obj
 0001:00188d00       ?addToPatch@PCMSphereVsMeshContactGeneration@Gu@physx@@QEAAXAEBT__m128@@0T4@I@Z 0000000180189d00 f   GuPCMContactConvexCommon.obj
 0001:00189320       ?generateEEContacts@PCMCapsuleVsMeshContactGeneration@Gu@physx@@QEAAXAEBT__m128@@000I000PEAVMeshPersistentContact@23@AEAI@Z 000000018018a320 f   GuPCMContactConvexCommon.obj
 0001:00189480       ?generateEE@PCMCapsuleVsMeshContactGeneration@Gu@physx@@QEAAXAEBT__m128@@000I00PEAVMeshPersistentContact@23@AEAI@Z 000000018018a480 f   GuPCMContactConvexCommon.obj
 0001:00189e30       ?generateContacts@PCMCapsuleVsMeshContactGeneration@Gu@physx@@SA_NAEBT__m128@@0000I000PEAVMeshPersistentContact@23@AEAI@Z 000000018018ae30 f   GuPCMContactConvexCommon.obj
 0001:0018afe0       ?generateEEContactsMTD@PCMCapsuleVsMeshContactGeneration@Gu@physx@@SAXAEBT__m128@@000I000PEAVMeshPersistentContact@23@AEAI@Z 000000018018bfe0 f   GuPCMContactConvexCommon.obj
 0001:0018b120       ?generateEEMTD@PCMCapsuleVsMeshContactGeneration@Gu@physx@@SAXAEBT__m128@@000I00PEAVMeshPersistentContact@23@AEAI@Z 000000018018c120 f   GuPCMContactConvexCommon.obj
 0001:0018b9e0       ?processTriangle@PCMCapsuleVsMeshContactGeneration@Gu@physx@@QEAA_NPEBVPxVec3@3@IEPEBI@Z 000000018018c9e0 f   GuPCMContactConvexCommon.obj
 0001:0018c770       ?processTriangle@PCMCapsuleVsMeshContactGeneration@Gu@physx@@SA_NAEBVTriangleV@23@IAEBVCapsuleV@23@AEBT__m128@@EPEAVMeshPersistentContact@23@AEAI@Z 000000018018d770 f   GuPCMContactConvexCommon.obj
 0001:0018e5c0       ?pcmDistanceSegmentTriangleSquared@Gu@physx@@YA?AT__m128@@AEBT3@0000AEAT3@11@Z 000000018018f5c0 f   GuPCMContactConvexCommon.obj
 0001:001906d0       ??$PX_UNUSED@PEBI@@YAXAEBQEBI@Z 00000001801916d0 f i GuPCMContactConvexCommon.obj
 0001:001906e0       ??$median3@USortedTriangle@Gu@physx@@$$CBU?$Less@USortedTriangle@Gu@physx@@@shdfnd@3@@internal@shdfnd@physx@@YAXPEAUSortedTriangle@Gu@2@HHAEBU?$Less@USortedTriangle@Gu@physx@@@12@@Z 00000001801916e0 f i GuPCMContactConvexCommon.obj
 0001:001908a0       ??$partition@USortedTriangle@Gu@physx@@$$CBU?$Less@USortedTriangle@Gu@physx@@@shdfnd@3@@internal@shdfnd@physx@@YAHPEAUSortedTriangle@Gu@2@HHAEBU?$Less@USortedTriangle@Gu@physx@@@12@@Z 00000001801918a0 f i GuPCMContactConvexCommon.obj
 0001:00190ac0       ??$smallSort@USortedTriangle@Gu@physx@@$$CBU?$Less@USortedTriangle@Gu@physx@@@shdfnd@3@@internal@shdfnd@physx@@YAXPEAUSortedTriangle@Gu@2@HHAEBU?$Less@USortedTriangle@Gu@physx@@@12@@Z 0000000180191ac0 f i GuPCMContactConvexCommon.obj
 0001:00190bb0       ??$sort@USortedTriangle@Gu@physx@@U?$Less@USortedTriangle@Gu@physx@@@shdfnd@3@@shdfnd@physx@@YAXPEAUSortedTriangle@Gu@1@IAEBU?$Less@USortedTriangle@Gu@physx@@@01@@Z 0000000180191bb0 f i GuPCMContactConvexCommon.obj
 0001:00190c00       ??$sort@USortedTriangle@Gu@physx@@U?$Less@USortedTriangle@Gu@physx@@@shdfnd@3@VNamedAllocator@53@@shdfnd@physx@@YAXPEAUSortedTriangle@Gu@1@IAEBU?$Less@USortedTriangle@Gu@physx@@@01@AEBVNamedAllocator@01@I@Z 0000000180191c00 f i GuPCMContactConvexCommon.obj
 0001:00190f00       ??$swap@USortedTriangle@Gu@physx@@@shdfnd@physx@@YAXAEAUSortedTriangle@Gu@1@0@Z 0000000180191f00 f i GuPCMContactConvexCommon.obj
 0001:00190f50       ??0?$Stack@VNamedAllocator@shdfnd@physx@@@internal@shdfnd@physx@@QEAA@PEAHIAEBVNamedAllocator@23@@Z 0000000180191f50 f i GuPCMContactConvexCommon.obj
 0001:00190fc0       ??0?$SupportLocalImpl@VTriangleV@Gu@physx@@@Gu@physx@@QEAA@AEBVTriangleV@12@AEBVPsTransformV@aos@shdfnd@2@AEBUMat33V@562@2_N@Z 0000000180191fc0 f i GuPCMContactConvexCommon.obj
 0001:00191030       ??0TriangleV@Gu@physx@@QEAA@PEBVPxVec3@2@@Z 0000000180192030 f i GuPCMContactConvexCommon.obj
 0001:00191260       ??1?$Stack@VNamedAllocator@shdfnd@physx@@@internal@shdfnd@physx@@QEAA@XZ 0000000180192260 f i GuPCMContactConvexCommon.obj
 0001:001912a0       ??1?$SupportLocalImpl@VTriangleV@Gu@physx@@@Gu@physx@@UEAA@XZ 00000001801922a0 f i GuPCMContactConvexCommon.obj
 0001:001912c0       ??A?$Array@USortedTriangle@Gu@physx@@V?$InlineAllocator@$0IAA@VNamedAllocator@shdfnd@physx@@@shdfnd@3@@shdfnd@physx@@QEAAAEAUSortedTriangle@Gu@2@I@Z 00000001801922c0 f i GuPCMContactConvexCommon.obj
 0001:00191340       ??MSortedTriangle@Gu@physx@@QEBA_NAEBU012@@Z 0000000180192340 f i GuPCMContactConvexCommon.obj
 0001:001913a0       ??R?$Less@USortedTriangle@Gu@physx@@@shdfnd@physx@@QEBA_NAEBUSortedTriangle@Gu@2@0@Z 00000001801923a0 f i GuPCMContactConvexCommon.obj
 0001:001913d0       ??_G?$SupportLocalImpl@VTriangleV@Gu@physx@@@Gu@physx@@UEAAPEAXI@Z 00000001801923d0 f i GuPCMContactConvexCommon.obj
 0001:001913d0       ??_E?$SupportLocalImpl@VTriangleV@Gu@physx@@@Gu@physx@@UEAAPEAXI@Z 00000001801923d0 f i GuPCMContactConvexCommon.obj
 0001:00191410       ?V4PermXZXZ@aos@shdfnd@physx@@YA?AT__m128@@T4@@Z 0000000180192410 f i GuPCMContactConvexCommon.obj
 0001:00191440       ?V4PermYWYW@aos@shdfnd@physx@@YA?AT__m128@@T4@@Z 0000000180192440 f i GuPCMContactConvexCommon.obj
 0001:00191470       ?V4PermYXWZ@aos@shdfnd@physx@@YA?AT__m128@@T4@@Z 0000000180192470 f i GuPCMContactConvexCommon.obj
 0001:001914a0       ?addManifoldPointToPatch@PCMMeshContactGeneration@Gu@physx@@QEAAXAEBT__m128@@0I@Z 00000001801924a0 f i GuPCMContactConvexCommon.obj
 0001:00191990       ?allocate@?$Array@USortedTriangle@Gu@physx@@V?$InlineAllocator@$0IAA@VNamedAllocator@shdfnd@physx@@@shdfnd@3@@shdfnd@physx@@IEAAPEAUSortedTriangle@Gu@3@I@Z 0000000180192990 f i GuPCMContactConvexCommon.obj
 0001:00191a20       ?begin@?$Array@USortedTriangle@Gu@physx@@V?$InlineAllocator@$0IAA@VNamedAllocator@shdfnd@physx@@@shdfnd@3@@shdfnd@physx@@QEAAPEAUSortedTriangle@Gu@3@XZ 0000000180192a20 f i GuPCMContactConvexCommon.obj
 0001:00191a40       ?capacity@?$Array@USortedTriangle@Gu@physx@@V?$InlineAllocator@$0IAA@VNamedAllocator@shdfnd@physx@@@shdfnd@3@@shdfnd@physx@@QEBAIXZ 0000000180192a40 f i GuPCMContactConvexCommon.obj
 0001:00191a60       ?capacityIncrement@?$Array@USortedTriangle@Gu@physx@@V?$InlineAllocator@$0IAA@VNamedAllocator@shdfnd@physx@@@shdfnd@3@@shdfnd@physx@@IEBAIXZ 0000000180192a60 f i GuPCMContactConvexCommon.obj
 0001:00191aa0       ?copy@?$Array@USortedTriangle@Gu@physx@@V?$InlineAllocator@$0IAA@VNamedAllocator@shdfnd@physx@@@shdfnd@3@@shdfnd@physx@@KAXPEAUSortedTriangle@Gu@3@0PEBU453@@Z 0000000180192aa0 f i GuPCMContactConvexCommon.obj
 0001:00191b20       ?deallocate@?$Array@USortedTriangle@Gu@physx@@V?$InlineAllocator@$0IAA@VNamedAllocator@shdfnd@physx@@@shdfnd@3@@shdfnd@physx@@IEAAXPEAX@Z 0000000180192b20 f i GuPCMContactConvexCommon.obj
 0001:00191b50       ?destroy@?$Array@USortedTriangle@Gu@physx@@V?$InlineAllocator@$0IAA@VNamedAllocator@shdfnd@physx@@@shdfnd@3@@shdfnd@physx@@KAXPEAUSortedTriangle@Gu@3@0@Z 0000000180192b50 f i GuPCMContactConvexCommon.obj
 0001:00191b80       ?doSupport@?$SupportLocalImpl@VTriangleV@Gu@physx@@@Gu@physx@@UEBA?AT__m128@@AEBT4@@Z 0000000180192b80 f i GuPCMContactConvexCommon.obj
 0001:00191bc0       ?doSupport@?$SupportLocalImpl@VTriangleV@Gu@physx@@@Gu@physx@@UEBAXAEBT__m128@@AEAT4@1@Z 0000000180192bc0 f i GuPCMContactConvexCommon.obj
 0001:00191c00       ?empty@?$Stack@VNamedAllocator@shdfnd@physx@@@internal@shdfnd@physx@@QEAA_NXZ 0000000180192c00 f i GuPCMContactConvexCommon.obj
 0001:00191c30       ?get@?$CacheMap@UCachedEdge@Gu@physx@@$0IA@@Gu@physx@@QEBAPEBUCachedEdge@23@AEBU423@@Z 0000000180192c30 f i GuPCMContactConvexCommon.obj
 0001:00191cd0       ?grow@?$Stack@VNamedAllocator@shdfnd@physx@@@internal@shdfnd@physx@@QEAAXXZ 0000000180192cd0 f i GuPCMContactConvexCommon.obj
 0001:00191d80       ?growAndPushBack@?$Array@USortedTriangle@Gu@physx@@V?$InlineAllocator@$0IAA@VNamedAllocator@shdfnd@physx@@@shdfnd@3@@shdfnd@physx@@IEAAAEAUSortedTriangle@Gu@3@AEBU453@@Z 0000000180192d80 f i GuPCMContactConvexCommon.obj
 0001:00191f80       ?isInUserMemory@?$Array@USortedTriangle@Gu@physx@@V?$InlineAllocator@$0IAA@VNamedAllocator@shdfnd@physx@@@shdfnd@3@@shdfnd@physx@@QEBAIXZ 0000000180192f80 f i GuPCMContactConvexCommon.obj
 0001:00191fa0       ?isValidTriangleBarycentricCoord2@Gu@physx@@YA?AT__m128@@AEBT3@@Z 0000000180192fa0 f i GuPCMContactConvexCommon.obj
 0001:00192360       ?pcmDistanceSegmentSegmentSquared4@Gu@physx@@YA?AT__m128@@AEBT3@000000000AEAT3@1@Z 0000000180193360 f i GuPCMContactConvexCommon.obj
 0001:00193b30       ?pop@?$Stack@VNamedAllocator@shdfnd@physx@@@internal@shdfnd@physx@@QEAAXAEAH0@Z 0000000180194b30 f i GuPCMContactConvexCommon.obj
 0001:00193c10       ?populateVerts@?$SupportLocalImpl@VTriangleV@Gu@physx@@@Gu@physx@@UEBAXPEBEIPEBVPxVec3@3@PEAT__m128@@@Z 0000000180194c10 f i GuPCMContactConvexCommon.obj
 0001:00193c60       ?populateVerts@TriangleV@Gu@physx@@QEBAXPEBEIPEBVPxVec3@3@PEAT__m128@@@Z 0000000180194c60 f i GuPCMContactConvexCommon.obj
 0001:00193ce0       ?push@?$Stack@VNamedAllocator@shdfnd@physx@@@internal@shdfnd@physx@@QEAAXHH@Z 0000000180194ce0 f i GuPCMContactConvexCommon.obj
 0001:00193d70       ?pushBack@?$Array@USortedTriangle@Gu@physx@@V?$InlineAllocator@$0IAA@VNamedAllocator@shdfnd@physx@@@shdfnd@3@@shdfnd@physx@@QEAAAEAUSortedTriangle@Gu@3@AEBU453@@Z 0000000180194d70 f i GuPCMContactConvexCommon.obj
 0001:00193e30       ?size@?$Array@USortedTriangle@Gu@physx@@V?$InlineAllocator@$0IAA@VNamedAllocator@shdfnd@physx@@@shdfnd@3@@shdfnd@physx@@QEBAIXZ 0000000180194e30 f i GuPCMContactConvexCommon.obj
 0001:00193e50       ?supportLocal@TriangleV@Gu@physx@@QEBAXAEBT__m128@@AEAT4@1@Z 0000000180194e50 f i GuPCMContactConvexCommon.obj
 0001:001940b0       ?pcmContactConvexConvex@Gu@physx@@YA_NAEBVGeometryUnion@12@0AEBVPxTransform@2@1AEBUNarrowPhaseParams@12@AEAUCache@12@AEAVContactBuffer@12@PEAVRenderOutput@Cm@2@@Z 00000001801950b0 f   GuPCMContactConvexConvex.obj
 0001:001959e0       ??$gjkPenetration@U?$RelativeConvex@VConvexHullNoScaleV@Gu@physx@@@Gu@physx@@U?$LocalConvex@VConvexHullNoScaleV@Gu@physx@@@23@@Gu@physx@@YA?AW4GjkStatus@01@AEBU?$RelativeConvex@VConvexHullNoScaleV@Gu@physx@@@01@AEBU?$LocalConvex@VConvexHullNoScaleV@Gu@physx@@@01@AEBT__m128@@2_NPEIAE4AEAEAEAUGjkOutput@01@@Z 00000001801969e0 f i GuPCMContactConvexConvex.obj
 0001:00196c20       ??$gjkPenetration@U?$RelativeConvex@VConvexHullNoScaleV@Gu@physx@@@Gu@physx@@U?$LocalConvex@VConvexHullV@Gu@physx@@@23@@Gu@physx@@YA?AW4GjkStatus@01@AEBU?$RelativeConvex@VConvexHullNoScaleV@Gu@physx@@@01@AEBU?$LocalConvex@VConvexHullV@Gu@physx@@@01@AEBT__m128@@2_NPEIAE4AEAEAEAUGjkOutput@01@@Z 0000000180197c20 f i GuPCMContactConvexConvex.obj
 0001:00197e60       ??$gjkPenetration@U?$RelativeConvex@VConvexHullV@Gu@physx@@@Gu@physx@@U?$LocalConvex@VConvexHullNoScaleV@Gu@physx@@@23@@Gu@physx@@YA?AW4GjkStatus@01@AEBU?$RelativeConvex@VConvexHullV@Gu@physx@@@01@AEBU?$LocalConvex@VConvexHullNoScaleV@Gu@physx@@@01@AEBT__m128@@2_NPEIAE4AEAEAEAUGjkOutput@01@@Z 0000000180198e60 f i GuPCMContactConvexConvex.obj
 0001:001990a0       ??0?$RelativeConvex@VConvexHullNoScaleV@Gu@physx@@@Gu@physx@@QEAA@AEBVConvexHullNoScaleV@12@AEBVPsMatTransformV@aos@shdfnd@2@@Z 000000018019a0a0 f i GuPCMContactConvexConvex.obj
 0001:00199140       ??1?$RelativeConvex@VConvexHullNoScaleV@Gu@physx@@@Gu@physx@@UEAA@XZ 000000018019a140 f i GuPCMContactConvexConvex.obj
 0001:00199160       ??_G?$RelativeConvex@VConvexHullNoScaleV@Gu@physx@@@Gu@physx@@UEAAPEAXI@Z 000000018019a160 f i GuPCMContactConvexConvex.obj
 0001:00199160       ??_E?$RelativeConvex@VConvexHullNoScaleV@Gu@physx@@@Gu@physx@@UEAAPEAXI@Z 000000018019a160 f i GuPCMContactConvexConvex.obj
 0001:001991a0       ?getCenter@?$RelativeConvex@VConvexHullNoScaleV@Gu@physx@@@Gu@physx@@UEBA?AT__m128@@XZ 000000018019a1a0 f i GuPCMContactConvexConvex.obj
 0001:001991f0       ?getSweepMargin@?$RelativeConvex@VConvexHullNoScaleV@Gu@physx@@@Gu@physx@@UEBA?AT__m128@@XZ 000000018019a1f0 f i GuPCMContactConvexConvex.obj
 0001:00199220       ?support@?$RelativeConvex@VConvexHullNoScaleV@Gu@physx@@@Gu@physx@@UEBA?AT__m128@@AEBT4@@Z 000000018019a220 f i GuPCMContactConvexConvex.obj
 0001:00199280       ?support@?$RelativeConvex@VConvexHullNoScaleV@Gu@physx@@@Gu@physx@@UEBA?AT__m128@@AEBT4@AEAH@Z 000000018019a280 f i GuPCMContactConvexConvex.obj
 0001:001992f0       ?supportPoint@?$RelativeConvex@VConvexHullNoScaleV@Gu@physx@@@Gu@physx@@UEBA?AT__m128@@H@Z 000000018019a2f0 f i GuPCMContactConvexConvex.obj
 0001:00199340       ?supportRelative@ConvexHullNoScaleV@Gu@physx@@QEBA?AT__m128@@AEBT4@AEBVPsMatTransformV@aos@shdfnd@3@1@Z 000000018019a340 f i GuPCMContactConvexConvex.obj
 0001:001993a0       ?supportRelative@ConvexHullNoScaleV@Gu@physx@@QEBA?AT__m128@@AEBT4@AEBVPsMatTransformV@aos@shdfnd@3@1AEAH@Z 000000018019a3a0 f i GuPCMContactConvexConvex.obj
 0001:00199410       ?pcmContactBoxHeightField@Gu@physx@@YA_NAEBVGeometryUnion@12@0AEBVPxTransform@2@1AEBUNarrowPhaseParams@12@AEAUCache@12@AEAVContactBuffer@12@PEAVRenderOutput@Cm@2@@Z 000000018019a410 f   GuPCMContactConvexHeightField.obj
 0001:00199730       ?pcmContactConvexHeightField@Gu@physx@@YA_NAEBVGeometryUnion@12@0AEBVPxTransform@2@1AEBUNarrowPhaseParams@12@AEAUCache@12@AEAVContactBuffer@12@PEAVRenderOutput@Cm@2@@Z 000000018019a730 f   GuPCMContactConvexHeightField.obj
 0001:00199b80       ?PCMContactConvexHeightfield@Gu@physx@@YA_NAEBUPolygonalData@12@PEAVSupportLocal@12@AEBT__m128@@AEBVPxBounds3@2@AEBVPxHeightFieldGeometry@2@AEBVPxTransform@2@5MAEAVContactBuffer@12@AEBVFastVertex2ShapeScaling@Cm@2@_NAEAVMultiplePersistentContactManifold@12@PEAVRenderOutput@Cm@2@@Z 000000018019ab80 f   GuPCMContactConvexHeightField.obj
 0001:0019a150       ??$processTriangleCache@$0BA@@PCMConvexVsHeightfieldContactGenerationCallback@physx@@QEAAXAEAU?$TriangleCache@$0BA@@Gu@1@@Z 000000018019b150 f i GuPCMContactConvexHeightField.obj
 0001:0019a180       ??$processTriangleCache@$0BA@VPCMConvexVsMeshContactGeneration@Gu@physx@@@PCMMeshContactGeneration@Gu@physx@@QEAA_NAEAU?$TriangleCache@$0BA@@12@@Z 000000018019b180 f i GuPCMContactConvexHeightField.obj
 0001:0019a260       ??0?$PCMHeightfieldContactGenerationCallback@UPCMConvexVsHeightfieldContactGenerationCallback@physx@@@Gu@physx@@QEAA@AEBVHeightFieldUtil@12@AEBVPxTransform@2@@Z 000000018019b260 f i GuPCMContactConvexHeightField.obj
 0001:0019a320       ??0PCMConvexVsHeightfieldContactGenerationCallback@physx@@QEAA@AEBT__m128@@0AEBUPolygonalData@Gu@1@PEAVSupportLocal@41@AEBVFastVertex2ShapeScaling@Cm@1@_NAEBVPsTransformV@aos@shdfnd@1@5AEBVPxTransform@1@AEAVMultiplePersistentContactManifold@41@AEAVContactBuffer@41@AEAVHeightFieldUtil@41@PEAV?$InlineArray@I$0EEA@VNamedAllocator@shdfnd@physx@@@shdfnd@1@4PEAVRenderOutput@71@@Z 000000018019b320 f i GuPCMContactConvexHeightField.obj
 0001:0019a420       ??0PCMConvexVsMeshContactGeneration@Gu@physx@@QEAA@AEBT__m128@@0AEBVPsTransformV@aos@shdfnd@2@1AEAVMultiplePersistentContactManifold@12@AEAVContactBuffer@12@AEBUPolygonalData@12@PEAVSupportLocal@12@PEAV?$InlineArray@I$0EEA@VNamedAllocator@shdfnd@physx@@@62@AEBVFastVertex2ShapeScaling@Cm@2@_N8PEAVRenderOutput@Cm@2@@Z 000000018019b420 f i GuPCMContactConvexHeightField.obj
 0001:0019a590       ??1?$PCMHeightfieldContactGenerationCallback@UPCMConvexVsHeightfieldContactGenerationCallback@physx@@@Gu@physx@@UEAA@XZ 000000018019b590 f i GuPCMContactConvexHeightField.obj
 0001:0019a5b0       ??1PCMConvexVsHeightfieldContactGenerationCallback@physx@@UEAA@XZ 000000018019b5b0 f i GuPCMContactConvexHeightField.obj
 0001:0019a5d0       ??_G?$PCMHeightfieldContactGenerationCallback@UPCMConvexVsHeightfieldContactGenerationCallback@physx@@@Gu@physx@@UEAAPEAXI@Z 000000018019b5d0 f i GuPCMContactConvexHeightField.obj
 0001:0019a5d0       ??_E?$PCMHeightfieldContactGenerationCallback@UPCMConvexVsHeightfieldContactGenerationCallback@physx@@@Gu@physx@@UEAAPEAXI@Z 000000018019b5d0 f i GuPCMContactConvexHeightField.obj
 0001:0019a610       ??_EPCMConvexVsHeightfieldContactGenerationCallback@physx@@UEAAPEAXI@Z 000000018019b610 f i GuPCMContactConvexHeightField.obj
 0001:0019a610       ??_GPCMConvexVsHeightfieldContactGenerationCallback@physx@@UEAAPEAXI@Z 000000018019b610 f i GuPCMContactConvexHeightField.obj
 0001:0019a650       ?onEvent@?$PCMHeightfieldContactGenerationCallback@UPCMConvexVsHeightfieldContactGenerationCallback@physx@@@Gu@physx@@UEAA_NIPEAI@Z 000000018019b650 f i GuPCMContactConvexHeightField.obj
 0001:0019ac30       ?pcmContactBoxMesh@Gu@physx@@YA_NAEBVGeometryUnion@12@0AEBVPxTransform@2@1AEBUNarrowPhaseParams@12@AEAUCache@12@AEAVContactBuffer@12@PEAVRenderOutput@Cm@2@@Z 000000018019bc30 f   GuPCMContactConvexMesh.obj
 0001:0019af60       ?pcmContactConvexMesh@Gu@physx@@YA_NAEBVGeometryUnion@12@0AEBVPxTransform@2@1AEBUNarrowPhaseParams@12@AEAUCache@12@AEAVContactBuffer@12@PEAVRenderOutput@Cm@2@@Z 000000018019bf60 f   GuPCMContactConvexMesh.obj
 0001:0019b3f0       ?PCMContactConvexMesh@Gu@physx@@YA_NAEBUPolygonalData@12@PEAVSupportLocal@12@AEBT__m128@@AEBVPxBounds3@2@AEBUPxTriangleMeshGeometryLL@2@AEBVPxTransform@2@5MAEAVContactBuffer@12@AEBVFastVertex2ShapeScaling@Cm@2@7_N8AEAVMultiplePersistentContactManifold@12@PEAVRenderOutput@Cm@2@@Z 000000018019c3f0 f   GuPCMContactConvexMesh.obj
 0001:0019b9e0       ??$processTriangleCache@$0BA@@PCMConvexVsMeshContactGenerationCallback@physx@@QEAAXAEAU?$TriangleCache@$0BA@@Gu@1@@Z 000000018019c9e0 f i GuPCMContactConvexMesh.obj
 0001:0019ba10       ??0?$PCMMeshContactGenerationCallback@UPCMConvexVsMeshContactGenerationCallback@physx@@@Gu@physx@@QEAA@AEBVFastVertex2ShapeScaling@Cm@2@PEBE_N@Z 000000018019ca10 f i GuPCMContactConvexMesh.obj
 0001:0019ba90       ??0PCMConvexVsMeshContactGenerationCallback@physx@@QEAA@AEBT__m128@@0AEBVPsTransformV@aos@shdfnd@1@1AEAVMultiplePersistentContactManifold@Gu@1@AEAVContactBuffer@71@AEBUPolygonalData@71@PEAVSupportLocal@71@PEAV?$InlineArray@I$0EEA@VNamedAllocator@shdfnd@physx@@@51@AEBVFastVertex2ShapeScaling@Cm@1@_N7PEBE88AEBVBoxPadded@71@PEAVRenderOutput@Cm@1@@Z 000000018019ca90 f i GuPCMContactConvexMesh.obj
 0001:0019bbc0       ??1?$PCMMeshContactGenerationCallback@UPCMConvexVsMeshContactGenerationCallback@physx@@@Gu@physx@@UEAA@XZ 000000018019cbc0 f i GuPCMContactConvexMesh.obj
 0001:0019bbe0       ??1PCMConvexVsMeshContactGenerationCallback@physx@@UEAA@XZ 000000018019cbe0 f i GuPCMContactConvexMesh.obj
 0001:0019bc00       ??_G?$PCMMeshContactGenerationCallback@UPCMConvexVsMeshContactGenerationCallback@physx@@@Gu@physx@@UEAAPEAXI@Z 000000018019cc00 f i GuPCMContactConvexMesh.obj
 0001:0019bc00       ??_E?$PCMMeshContactGenerationCallback@UPCMConvexVsMeshContactGenerationCallback@physx@@@Gu@physx@@UEAAPEAXI@Z 000000018019cc00 f i GuPCMContactConvexMesh.obj
 0001:0019bc40       ??_GPCMConvexVsMeshContactGenerationCallback@physx@@UEAAPEAXI@Z 000000018019cc40 f i GuPCMContactConvexMesh.obj
 0001:0019bc40       ??_EPCMConvexVsMeshContactGenerationCallback@physx@@UEAAPEAXI@Z 000000018019cc40 f i GuPCMContactConvexMesh.obj
 0001:0019bc80       ?doTest@PCMConvexVsMeshContactGenerationCallback@physx@@QEAAHAEBVPxVec3@2@00@Z 000000018019cc80 f i GuPCMContactConvexMesh.obj
 0001:0019bcc0       ?flushCache@?$PCMMeshContactGenerationCallback@UPCMConvexVsMeshContactGenerationCallback@physx@@@Gu@physx@@QEAAXXZ 000000018019ccc0 f i GuPCMContactConvexMesh.obj
 0001:0019bd10       ?processHit@?$PCMMeshContactGenerationCallback@UPCMConvexVsMeshContactGenerationCallback@physx@@@Gu@physx@@UEAA_NAEBUPxRaycastHit@3@AEBVPxVec3@3@11AEAMPEBI@Z 000000018019cd10 f i GuPCMContactConvexMesh.obj
 0001:0019bf70       ?generateFullContactManifold@Gu@physx@@YA_NAEAUPolygonalData@12@0PEAVSupportLocal@12@1PEAVPersistentContact@12@AEAIAEBT__m128@@444MM_NPEAVRenderOutput@Cm@2@M@Z 000000018019cf70 f   GuPCMContactGenBoxConvex.obj
 0001:0019cd00       ?addGJKEPAContacts@Gu@physx@@YA_NPEBUGjkConvex@12@0AEBVPsMatTransformV@aos@shdfnd@2@W4GjkStatus@12@PEAVPersistentContact@12@T__m128@@4AEAUGjkOutput@12@AEAVPersistentContactManifold@12@@Z 000000018019dd00 f   GuPCMContactGenBoxConvex.obj
 0001:0019d100       ?computeMTD@Gu@physx@@YA_NAEAUPolygonalData@12@0PEAVSupportLocal@12@1AEAT__m128@@2@Z 000000018019e100 f   GuPCMContactGenBoxConvex.obj
 0001:0019d490       ?buildPartialHull@Gu@physx@@YAXAEBUPolygonalData@12@PEAVSupportLocal@12@AEAVSeparatingAxes@12@AEBT__m128@@3@Z 000000018019e490 f   GuPCMContactGenBoxConvex.obj
 0001:0019f510       ?generatedContacts@Gu@physx@@YAXAEAUPolygonalData@12@0AEBUHullPolygonData@12@1PEAVSupportLocal@12@2AEBVPsMatTransformV@aos@shdfnd@2@PEAVPersistentContact@12@AEAIAEBT__m128@@PEAVRenderOutput@Cm@2@@Z 00000001801a0510 f   GuPCMContactGenBoxConvex.obj
 0001:001a0d20       ??$PX_UNUSED@UPolygonalData@Gu@physx@@@@YAXAEBUPolygonalData@Gu@physx@@@Z 00000001801a1d20 f i GuPCMContactGenBoxConvex.obj
 0001:001a0d30       ??4PxPlane@physx@@QEAAAEAV01@AEBV01@@Z 00000001801a1d30 f i GuPCMContactGenBoxConvex.obj
 0001:001a0d70       ?getPolygonIndex@Gu@physx@@YAHAEBUPolygonalData@12@PEAVSupportLocal@12@AEBT__m128@@@Z 00000001801a1d70 f i GuPCMContactGenBoxConvex.obj
 0001:001a1560       ?getWitnessPolygonIndex@Gu@physx@@YAIAEBUPolygonalData@12@PEAVSupportLocal@12@AEBT__m128@@2M@Z 00000001801a2560 f i GuPCMContactGenBoxConvex.obj
 0001:001a1ac0       ?signed2DTriArea@Gu@physx@@YA?AT__m128@@AEBT3@00@Z 00000001801a2ac0 f i GuPCMContactGenBoxConvex.obj
 0001:001a1cd0       ?generateFullContactManifold@Gu@physx@@YA_NAEBVCapsuleV@12@AEAUPolygonalData@12@PEAVSupportLocal@12@AEBVPsMatTransformV@aos@shdfnd@2@PEAVPersistentContact@12@AEAIAEBT__m128@@AEAT__m128@@6M_NM@Z 00000001801a2cd0 f   GuPCMContactGenSphereCapsule.obj
 0001:001a2060       ?generateCapsuleBoxFullContactManifold@Gu@physx@@YA_NAEBVCapsuleV@12@AEAUPolygonalData@12@PEAVSupportLocal@12@AEBVPsMatTransformV@aos@shdfnd@2@PEAVPersistentContact@12@AEAIAEBT__m128@@AEAT__m128@@6M_NMPEAVRenderOutput@Cm@2@@Z 00000001801a3060 f   GuPCMContactGenSphereCapsule.obj
 0001:001a2310       ?computeMTD@Gu@physx@@YA_NAEBVCapsuleV@12@AEAUPolygonalData@12@PEAVSupportLocal@12@AEAT__m128@@3@Z 00000001801a3310 f   GuPCMContactGenSphereCapsule.obj
 0001:001a23d0       ?generateSphereFullContactManifold@Gu@physx@@YA_NAEBVCapsuleV@12@AEAUPolygonalData@12@PEAVSupportLocal@12@PEAVPersistentContact@12@AEAIAEBT__m128@@AEAT7@_N@Z 00000001801a33d0 f   GuPCMContactGenSphereCapsule.obj
 0001:001a3030       ?generatedCapsuleBoxFaceContacts@Gu@physx@@YAXAEBVCapsuleV@12@AEAUPolygonalData@12@AEBUHullPolygonData@12@PEAVSupportLocal@12@AEBVPsMatTransformV@aos@shdfnd@2@PEAVPersistentContact@12@AEAIAEBT__m128@@7@Z 00000001801a4030 f   GuPCMContactGenSphereCapsule.obj
 0001:001a4960       ?generatedContactsEEContacts@Gu@physx@@YAXAEBVCapsuleV@12@AEAUPolygonalData@12@AEBUHullPolygonData@12@PEAVSupportLocal@12@AEBVPsMatTransformV@aos@shdfnd@2@PEAVPersistentContact@12@AEAIAEBT__m128@@7@Z 00000001801a5960 f   GuPCMContactGenSphereCapsule.obj
 0001:001a4b30       ?BAndNot@aos@shdfnd@physx@@YA?AT__m128@@T4@0@Z 00000001801a5b30 f i GuPCMContactGenSphereCapsule.obj
 0001:001a4b60       ?intersectSegmentPolyhedron@Gu@physx@@YA_NAEBT__m128@@0AEBUPolygonalData@12@AEAT3@2@Z 00000001801a5b60 f i GuPCMContactGenSphereCapsule.obj
 0001:001a50d0       ?testPolyDataAxis@Gu@physx@@YA_NAEBVCapsuleV@12@AEBUPolygonalData@12@PEAVSupportLocal@12@AEBT__m128@@AEAT6@4@Z 00000001801a60d0 f i GuPCMContactGenSphereCapsule.obj
 0001:001a57c0       ?pcmContactPlaneBox@Gu@physx@@YA_NAEBVGeometryUnion@12@0AEBVPxTransform@2@1AEBUNarrowPhaseParams@12@AEAUCache@12@AEAVContactBuffer@12@PEAVRenderOutput@Cm@2@@Z 00000001801a67c0 f   GuPCMContactPlaneBox.obj
 0001:001a71c0       ?invalidate_PrimitivesPlane@PersistentContactManifold@Gu@physx@@QEAAIAEBVPsTransformV@aos@shdfnd@3@AEBT__m128@@1@Z 00000001801a81c0 f i GuPCMContactPlaneBox.obj
 0001:001a73a0       ?pcmContactPlaneCapsule@Gu@physx@@YA_NAEBVGeometryUnion@12@0AEBVPxTransform@2@1AEBUNarrowPhaseParams@12@AEAUCache@12@AEAVContactBuffer@12@PEAVRenderOutput@Cm@2@@Z 00000001801a83a0 f   GuPCMContactPlaneCapsule.obj
 0001:001a7cc0       ?pcmContactPlaneConvex@Gu@physx@@YA_NAEBVGeometryUnion@12@0AEBVPxTransform@2@1AEBUNarrowPhaseParams@12@AEAUCache@12@AEAVContactBuffer@12@PEAVRenderOutput@Cm@2@@Z 00000001801a8cc0 f   GuPCMContactPlaneConvex.obj
 0001:001a8440       ?ConstructVertex2ShapeMatrix@Gu@physx@@YA?AUMat33V@aos@shdfnd@2@AEBT__m128@@0@Z 00000001801a9440 f i GuPCMContactPlaneConvex.obj
 0001:001a8600       ?pcmContactSphereBox@Gu@physx@@YA_NAEBVGeometryUnion@12@0AEBVPxTransform@2@1AEBUNarrowPhaseParams@12@AEAUCache@12@AEAVContactBuffer@12@PEAVRenderOutput@Cm@2@@Z 00000001801a9600 f   GuPCMContactSphereBox.obj
 0001:001a94a0       ?BAllTrue3@aos@shdfnd@physx@@YA?AT__m128@@T4@@Z 00000001801aa4a0 f i GuPCMContactSphereBox.obj
 0001:001a9530       ?V3Clamp@aos@shdfnd@physx@@YA?AT__m128@@T4@00@Z 00000001801aa530 f i GuPCMContactSphereBox.obj
 0001:001a9720       ?pcmContactSphereCapsule@Gu@physx@@YA_NAEBVGeometryUnion@12@0AEBVPxTransform@2@1AEBUNarrowPhaseParams@12@AEAUCache@12@AEAVContactBuffer@12@PEAVRenderOutput@Cm@2@@Z 00000001801aa720 f   GuPCMContactSphereCapsule.obj
 0001:001a9e90       ?PxcDistancePointSegmentSquared@Gu@physx@@YA?AT__m128@@AEBT3@00AEAT3@@Z 00000001801aae90 f i GuPCMContactSphereCapsule.obj
 0001:001aa1f0       ?pcmContactSphereConvex@Gu@physx@@YA_NAEBVGeometryUnion@12@0AEBVPxTransform@2@1AEBUNarrowPhaseParams@12@AEAUCache@12@AEAVContactBuffer@12@PEAVRenderOutput@Cm@2@@Z 00000001801ab1f0 f   GuPCMContactSphereConvex.obj
 0001:001ab740       ?getContactPoint@PersistentContactManifold@Gu@physx@@QEAAAEAVPersistentContact@23@I@Z 00000001801ac740 f i GuPCMContactSphereConvex.obj
 0001:001ab7c0       ?pcmContactSphereHeightField@Gu@physx@@YA_NAEBVGeometryUnion@12@0AEBVPxTransform@2@1AEBUNarrowPhaseParams@12@AEAUCache@12@AEAVContactBuffer@12@PEAVRenderOutput@Cm@2@@Z 00000001801ac7c0 f   GuPCMContactSphereHeightField.obj
 0001:001abe10       ??$processTriangleCache@$0BA@@PCMSphereVsHeightfieldContactGenerationCallback@physx@@QEAAXAEAU?$TriangleCache@$0BA@@Gu@1@@Z 00000001801ace10 f i GuPCMContactSphereHeightField.obj
 0001:001abe40       ??$processTriangleCache@$0BA@VPCMSphereVsMeshContactGeneration@Gu@physx@@@PCMMeshContactGeneration@Gu@physx@@QEAA_NAEAU?$TriangleCache@$0BA@@12@@Z 00000001801ace40 f i GuPCMContactSphereHeightField.obj
 0001:001abf20       ??0?$Array@USortedTriangle@Gu@physx@@V?$InlineAllocator@$0IAA@VNamedAllocator@shdfnd@physx@@@shdfnd@3@@shdfnd@physx@@QEAA@AEBV?$InlineAllocator@$0IAA@VNamedAllocator@shdfnd@physx@@@12@@Z 00000001801acf20 f i GuPCMContactSphereHeightField.obj
 0001:001abf80       ??0?$InlineArray@USortedTriangle@Gu@physx@@$0EA@VNamedAllocator@shdfnd@3@@shdfnd@physx@@QEAA@AEBVNamedAllocator@12@@Z 00000001801acf80 f i GuPCMContactSphereHeightField.obj
 0001:001ac010       ??0?$PCMHeightfieldContactGenerationCallback@UPCMSphereVsHeightfieldContactGenerationCallback@physx@@@Gu@physx@@QEAA@AEBVHeightFieldUtil@12@AEBVPxTransform@2@@Z 00000001801ad010 f i GuPCMContactSphereHeightField.obj
 0001:001ac0d0       ??0PCMSphereVsHeightfieldContactGenerationCallback@physx@@QEAA@AEBT__m128@@000AEBVPsTransformV@aos@shdfnd@1@1AEBVPxTransform@1@AEAVMultiplePersistentContactManifold@Gu@1@AEAVContactBuffer@81@PEAV?$InlineArray@I$0EEA@VNamedAllocator@shdfnd@physx@@@51@AEAVHeightFieldUtil@81@@Z 00000001801ad0d0 f i GuPCMContactSphereHeightField.obj
 0001:001ac1a0       ??0PCMSphereVsMeshContactGeneration@Gu@physx@@QEAA@AEBT__m128@@000AEBVPsTransformV@aos@shdfnd@2@1AEAVMultiplePersistentContactManifold@12@AEAVContactBuffer@12@PEAV?$InlineArray@I$0EEA@VNamedAllocator@shdfnd@physx@@@62@PEAVRenderOutput@Cm@2@@Z 00000001801ad1a0 f i GuPCMContactSphereHeightField.obj
 0001:001ac330       ??1?$Array@USortedTriangle@Gu@physx@@V?$InlineAllocator@$0IAA@VNamedAllocator@shdfnd@physx@@@shdfnd@3@@shdfnd@physx@@QEAA@XZ 00000001801ad330 f i GuPCMContactSphereHeightField.obj
 0001:001ac3b0       ??1?$InlineArray@USortedTriangle@Gu@physx@@$0EA@VNamedAllocator@shdfnd@3@@shdfnd@physx@@QEAA@XZ 00000001801ad3b0 f i GuPCMContactSphereHeightField.obj
 0001:001ac3d0       ??1?$PCMHeightfieldContactGenerationCallback@UPCMSphereVsHeightfieldContactGenerationCallback@physx@@@Gu@physx@@UEAA@XZ 00000001801ad3d0 f i GuPCMContactSphereHeightField.obj
 0001:001ac3f0       ??1PCMSphereVsHeightfieldContactGenerationCallback@physx@@UEAA@XZ 00000001801ad3f0 f i GuPCMContactSphereHeightField.obj
 0001:001ac420       ??1PCMSphereVsMeshContactGeneration@Gu@physx@@QEAA@XZ 00000001801ad420 f i GuPCMContactSphereHeightField.obj
 0001:001ac450       ??_E?$PCMHeightfieldContactGenerationCallback@UPCMSphereVsHeightfieldContactGenerationCallback@physx@@@Gu@physx@@UEAAPEAXI@Z 00000001801ad450 f i GuPCMContactSphereHeightField.obj
 0001:001ac450       ??_G?$PCMHeightfieldContactGenerationCallback@UPCMSphereVsHeightfieldContactGenerationCallback@physx@@@Gu@physx@@UEAAPEAXI@Z 00000001801ad450 f i GuPCMContactSphereHeightField.obj
 0001:001ac490       ??_EPCMSphereVsHeightfieldContactGenerationCallback@physx@@UEAAPEAXI@Z 00000001801ad490 f i GuPCMContactSphereHeightField.obj
 0001:001ac490       ??_GPCMSphereVsHeightfieldContactGenerationCallback@physx@@UEAAPEAXI@Z 00000001801ad490 f i GuPCMContactSphereHeightField.obj
 0001:001ac4d0       ?onEvent@?$PCMHeightfieldContactGenerationCallback@UPCMSphereVsHeightfieldContactGenerationCallback@physx@@@Gu@physx@@UEAA_NIPEAI@Z 00000001801ad4d0 f i GuPCMContactSphereHeightField.obj
 0001:001acab0       ?pcmContactSphereMesh@Gu@physx@@YA_NAEBVGeometryUnion@12@0AEBVPxTransform@2@1AEBUNarrowPhaseParams@12@AEAUCache@12@AEAVContactBuffer@12@PEAVRenderOutput@Cm@2@@Z 00000001801adab0 f   GuPCMContactSphereMesh.obj
 0001:001ad1a0       ??$processTriangleCache@$0BA@@PCMSphereVsMeshContactGenerationCallback@physx@@QEAAXAEAU?$TriangleCache@$0BA@@Gu@1@@Z 00000001801ae1a0 f i GuPCMContactSphereMesh.obj
 0001:001ad1d0       ??0?$PCMMeshContactGenerationCallback@UPCMSphereVsMeshContactGenerationCallback@physx@@@Gu@physx@@QEAA@AEBVFastVertex2ShapeScaling@Cm@2@PEBE_N@Z 00000001801ae1d0 f i GuPCMContactSphereMesh.obj
 0001:001ad250       ??0PCMSphereVsMeshContactGenerationCallback@physx@@QEAA@AEBT__m128@@000AEBVPsTransformV@aos@shdfnd@1@1AEAVMultiplePersistentContactManifold@Gu@1@AEAVContactBuffer@71@PEBEAEBVFastVertex2ShapeScaling@Cm@1@_NPEAV?$InlineArray@I$0EEA@VNamedAllocator@shdfnd@physx@@@51@PEAVRenderOutput@Cm@1@@Z 00000001801ae250 f i GuPCMContactSphereMesh.obj
 0001:001ad330       ??1?$PCMMeshContactGenerationCallback@UPCMSphereVsMeshContactGenerationCallback@physx@@@Gu@physx@@UEAA@XZ 00000001801ae330 f i GuPCMContactSphereMesh.obj
 0001:001ad350       ??1PCMSphereVsMeshContactGenerationCallback@physx@@UEAA@XZ 00000001801ae350 f i GuPCMContactSphereMesh.obj
 0001:001ad380       ??_G?$PCMMeshContactGenerationCallback@UPCMSphereVsMeshContactGenerationCallback@physx@@@Gu@physx@@UEAAPEAXI@Z 00000001801ae380 f i GuPCMContactSphereMesh.obj
 0001:001ad380       ??_E?$PCMMeshContactGenerationCallback@UPCMSphereVsMeshContactGenerationCallback@physx@@@Gu@physx@@UEAAPEAXI@Z 00000001801ae380 f i GuPCMContactSphereMesh.obj
 0001:001ad3c0       ??_EPCMSphereVsMeshContactGenerationCallback@physx@@UEAAPEAXI@Z 00000001801ae3c0 f i GuPCMContactSphereMesh.obj
 0001:001ad3c0       ??_GPCMSphereVsMeshContactGenerationCallback@physx@@UEAAPEAXI@Z 00000001801ae3c0 f i GuPCMContactSphereMesh.obj
 0001:001ad400       ?doTest@PCMSphereVsMeshContactGenerationCallback@physx@@QEAA_NAEBVPxVec3@2@00@Z 00000001801ae400 f i GuPCMContactSphereMesh.obj
 0001:001ad420       ?flushCache@?$PCMMeshContactGenerationCallback@UPCMSphereVsMeshContactGenerationCallback@physx@@@Gu@physx@@QEAAXXZ 00000001801ae420 f i GuPCMContactSphereMesh.obj
 0001:001ad470       ?processHit@?$PCMMeshContactGenerationCallback@UPCMSphereVsMeshContactGenerationCallback@physx@@@Gu@physx@@UEAA_NAEBUPxRaycastHit@3@AEBVPxVec3@3@11AEAMPEBI@Z 00000001801ae470 f i GuPCMContactSphereMesh.obj
 0001:001ad6e0       ?pcmContactSpherePlane@Gu@physx@@YA_NAEBVGeometryUnion@12@0AEBVPxTransform@2@1AEBUNarrowPhaseParams@12@AEAUCache@12@AEAVContactBuffer@12@PEAVRenderOutput@Cm@2@@Z 00000001801ae6e0 f   GuPCMContactSpherePlane.obj
 0001:001ada80       ?pcmContactSphereSphere@Gu@physx@@YA_NAEBVGeometryUnion@12@0AEBVPxTransform@2@1AEBUNarrowPhaseParams@12@AEAUCache@12@AEAVContactBuffer@12@PEAVRenderOutput@Cm@2@@Z 00000001801aea80 f   GuPCMContactSphereSphere.obj
 0001:001ae0c0       ??0PCMPolygonalBox@Gu@physx@@QEAA@AEBVPxVec3@2@@Z 00000001801af0c0 f   GuPCMShapeConvex.obj
 0001:001aea00       ?getPolygonalData@PCMPolygonalBox@Gu@physx@@QEBAXPEIAUPolygonalData@23@@Z 00000001801afa00 f   GuPCMShapeConvex.obj
 0001:001aeb00       ?getPCMConvexData@Gu@physx@@YAXAEBVConvexHullV@12@_NAEAUPolygonalData@12@@Z 00000001801afb00 f   GuPCMShapeConvex.obj
 0001:001aebc0       ?getPCMConvexData@Gu@physx@@YA_NAEBVGeometryUnion@12@AEAVFastVertex2ShapeScaling@Cm@2@AEAVPxBounds3@2@AEAUPolygonalData@12@@Z 00000001801afbc0 f   GuPCMShapeConvex.obj
 0001:001af040       ?getVerticesByEdges16@ConvexHullData@Gu@physx@@QEBAPEBGXZ 00000001801b0040 f i GuPCMShapeConvex.obj
 0001:001af100       ?generateTriangleFullContactManifold@PCMConvexVsMeshContactGeneration@Gu@physx@@QEAA_NAEAVTriangleV@23@IPEBIEAEBUPolygonalData@23@PEAV?$SupportLocalImpl@VTriangleV@Gu@physx@@@23@PEAVSupportLocal@23@PEAVMeshPersistentContact@23@AEAIAEBT__m128@@AEAT9@@Z 00000001801b0100 f   GuPCMTriangleContactGen.obj
 0001:001af900       ?generatePolyDataContactManifold@PCMConvexVsMeshContactGeneration@Gu@physx@@QEAA_NAEAVTriangleV@23@IIEPEAVMeshPersistentContact@23@AEAIAEBT__m128@@AEAT6@@Z 00000001801b0900 f   GuPCMTriangleContactGen.obj
 0001:001afab0       ?generateTriangleFullContactManifold@PCMConvexVsMeshContactGeneration@Gu@physx@@SA_NAEAVTriangleV@23@IEAEBUPolygonalData@23@PEAV?$SupportLocalImpl@VTriangleV@Gu@physx@@@23@PEAVSupportLocal@23@PEAVMeshPersistentContact@23@AEAIAEBT__m128@@AEAT9@PEAVRenderOutput@Cm@3@@Z 00000001801b0ab0 f   GuPCMTriangleContactGen.obj
 0001:001b44f0       ??$PX_UNUSED@E@@YAXAEBE@Z  00000001801b54f0 f i GuPCMTriangleContactGen.obj
 0001:001b4500       ??$PX_UNUSED@PEAV?$SupportLocalImpl@VTriangleV@Gu@physx@@@Gu@physx@@@@YAXAEBQEAV?$SupportLocalImpl@VTriangleV@Gu@physx@@@Gu@physx@@@Z 00000001801b5500 f i GuPCMTriangleContactGen.obj
 0001:001b4510       ?FRsqrtFast@aos@shdfnd@physx@@YA?AT__m128@@T4@@Z 00000001801b5510 f i GuPCMTriangleContactGen.obj
 0001:001b45a0       ?V3AllGrtr@aos@shdfnd@physx@@YAIT__m128@@0@Z 00000001801b55a0 f i GuPCMTriangleContactGen.obj
 0001:001b46e0       ?V3LengthSq@aos@shdfnd@physx@@YA?AT__m128@@T4@@Z 00000001801b56e0 f i GuPCMTriangleContactGen.obj
 0001:001b47a0       ?findRotationMatrixFromZAxis@Gu@physx@@YA?AUMat33V@aos@shdfnd@2@AEBT__m128@@@Z 00000001801b57a0 f   GuPersistentContactManifold.obj
 0001:001b5710       ?replaceManifoldPoint@PersistentContactManifold@Gu@physx@@QEAA_NAEBT__m128@@000@Z 00000001801b6710 f   GuPersistentContactManifold.obj
 0001:001b59f0       ?addManifoldPoint@PersistentContactManifold@Gu@physx@@QEAAIAEBT__m128@@000@Z 00000001801b69f0 f   GuPersistentContactManifold.obj
 0001:001b5b10       ?addManifoldPoint2@PersistentContactManifold@Gu@physx@@QEAAIAEBT__m128@@000@Z 00000001801b6b10 f   GuPersistentContactManifold.obj
 0001:001b5c80       ?addBatchManifoldContactsCluster@PersistentContactManifold@Gu@physx@@QEAAXPEBVPersistentContact@23@I@Z 00000001801b6c80 f   GuPersistentContactManifold.obj
 0001:001b5d80       ?addBatchManifoldContacts2@PersistentContactManifold@Gu@physx@@QEAAXPEBVPersistentContact@23@I@Z 00000001801b6d80 f   GuPersistentContactManifold.obj
 0001:001b5e80       ?addBatchManifoldContacts@PersistentContactManifold@Gu@physx@@QEAAXPEBVPersistentContact@23@IM@Z 00000001801b6e80 f   GuPersistentContactManifold.obj
 0001:001b5f90       ?reduceBatchContactsCluster@PersistentContactManifold@Gu@physx@@QEAAXPEBVPersistentContact@23@I@Z 00000001801b6f90 f   GuPersistentContactManifold.obj
 0001:001b6dc0       ?reduceBatchContacts2@PersistentContactManifold@Gu@physx@@QEAAXPEBVPersistentContact@23@I@Z 00000001801b7dc0 f   GuPersistentContactManifold.obj
 0001:001b74b0       ?reduceBatchContacts@PersistentContactManifold@Gu@physx@@QEAAXPEBVPersistentContact@23@IM@Z 00000001801b84b0 f   GuPersistentContactManifold.obj
 0001:001b83a0       ?reduceContactsForPCM@PersistentContactManifold@Gu@physx@@QEAAIAEBT__m128@@00@Z 00000001801b93a0 f   GuPersistentContactManifold.obj
 0001:001b8d30       ?reduceContactSegment@PersistentContactManifold@Gu@physx@@QEAAIAEBT__m128@@00@Z 00000001801b9d30 f   GuPersistentContactManifold.obj
 0001:001b8fd0       ?addManifoldContactsToContactBuffer@PersistentContactManifold@Gu@physx@@QEAAXAEAVContactBuffer@23@AEBT__m128@@AEBVPsMatTransformV@aos@shdfnd@3@@Z 00000001801b9fd0 f   GuPersistentContactManifold.obj
 0001:001b9300       ?addManifoldContactsToContactBuffer@PersistentContactManifold@Gu@physx@@QEAAXAEAVContactBuffer@23@AEBT__m128@@AEBVPsTransformV@aos@shdfnd@3@1@Z 00000001801ba300 f   GuPersistentContactManifold.obj
 0001:001b9660       ?addManifoldContactsToContactBuffer@PersistentContactManifold@Gu@physx@@QEAAXAEAVContactBuffer@23@AEBT__m128@@1AEBVPsTransformV@aos@shdfnd@3@11@Z 00000001801ba660 f   GuPersistentContactManifold.obj
 0001:001b9940       ?recordWarmStart@PersistentContactManifold@Gu@physx@@QEAAXPEAE0AEAE@Z 00000001801ba940 f   GuPersistentContactManifold.obj
 0001:001b99d0       ?setWarmStart@PersistentContactManifold@Gu@physx@@QEAAXPEBE0E@Z 00000001801ba9d0 f   GuPersistentContactManifold.obj
 0001:001b9a60       ?drawManifold@PersistentContactManifold@Gu@physx@@QEAAXAEAVRenderOutput@Cm@3@AEBVPsTransformV@aos@shdfnd@3@1@Z 00000001801baa60 f   GuPersistentContactManifold.obj
 0001:001b9b60       ?drawManifold@PersistentContactManifold@Gu@physx@@QEAAXAEAVRenderOutput@Cm@3@AEBVPsTransformV@aos@shdfnd@3@1AEBT__m128@@@Z 00000001801bab60 f   GuPersistentContactManifold.obj
 0001:001b9c60       ?drawManifold@PersistentContactManifold@Gu@physx@@QEAAXAEBVPersistentContact@23@AEAVRenderOutput@Cm@3@AEBVPsTransformV@aos@shdfnd@3@2@Z 00000001801bac60 f   GuPersistentContactManifold.obj
 0001:001b9cc0       ?drawPoint@PersistentContactManifold@Gu@physx@@SAXAEAVRenderOutput@Cm@3@AEBT__m128@@MI@Z 00000001801bacc0 f   GuPersistentContactManifold.obj
 0001:001b9f80       ?drawLine@PersistentContactManifold@Gu@physx@@SAXAEAVRenderOutput@Cm@3@AEBT__m128@@1I@Z 00000001801baf80 f   GuPersistentContactManifold.obj
 0001:001ba0a0       ?drawTriangle@PersistentContactManifold@Gu@physx@@SAXAEAVRenderOutput@Cm@3@AEBT__m128@@11I@Z 00000001801bb0a0 f   GuPersistentContactManifold.obj
 0001:001ba230       ?drawPolygon@PersistentContactManifold@Gu@physx@@SAXAEAVRenderOutput@Cm@3@AEBVPsTransformV@aos@shdfnd@3@PEAT__m128@@II@Z 00000001801bb230 f   GuPersistentContactManifold.obj
 0001:001ba330       ?drawPolygon@PersistentContactManifold@Gu@physx@@SAXAEAVRenderOutput@Cm@3@AEBVPsMatTransformV@aos@shdfnd@3@PEAT__m128@@II@Z 00000001801bb330 f   GuPersistentContactManifold.obj
 0001:001ba430       ?reduceBatchContactsConvex@SinglePersistentContactManifold@Gu@physx@@QEAA?AT__m128@@PEBVMeshPersistentContact@23@IAEAUPCMContactPatch@23@@Z 00000001801bb430 f   GuPersistentContactManifold.obj
 0001:001bb230       ?reduceBatchContactsSphere@SinglePersistentContactManifold@Gu@physx@@QEAA?AT__m128@@PEBVMeshPersistentContact@23@IAEAUPCMContactPatch@23@@Z 00000001801bc230 f   GuPersistentContactManifold.obj
 0001:001bb410       ?reduceBatchContactsCapsule@SinglePersistentContactManifold@Gu@physx@@QEAA?AT__m128@@PEBVMeshPersistentContact@23@IAEAUPCMContactPatch@23@@Z 00000001801bc410 f   GuPersistentContactManifold.obj
 0001:001bba50       ?addBatchManifoldContactsConvex@SinglePersistentContactManifold@Gu@physx@@QEAA?AT__m128@@PEBVMeshPersistentContact@23@IAEAUPCMContactPatch@23@AEBT4@@Z 00000001801bca50 f   GuPersistentContactManifold.obj
 0001:001bbba0       ?addBatchManifoldContactsSphere@SinglePersistentContactManifold@Gu@physx@@QEAA?AT__m128@@PEBVMeshPersistentContact@23@IAEAUPCMContactPatch@23@AEBT4@@Z 00000001801bcba0 f   GuPersistentContactManifold.obj
 0001:001bbc20       ?addBatchManifoldContactsCapsule@SinglePersistentContactManifold@Gu@physx@@QEAA?AT__m128@@PEBVMeshPersistentContact@23@IAEAUPCMContactPatch@23@AEBT4@@Z 00000001801bcc20 f   GuPersistentContactManifold.obj
 0001:001bbd70       ?reduceContacts@SinglePersistentContactManifold@Gu@physx@@SAIPEAVMeshPersistentContact@23@I@Z 00000001801bcd70 f   GuPersistentContactManifold.obj
 0001:001bc970       ?refreshContactPoints@SinglePersistentContactManifold@Gu@physx@@QEAA?AT__m128@@AEBVPsMatTransformV@aos@shdfnd@3@AEBT4@1@Z 00000001801bd970 f   GuPersistentContactManifold.obj
 0001:001bcd80       ?drawManifold@SinglePersistentContactManifold@Gu@physx@@QEAAXAEAVRenderOutput@Cm@3@AEBVPsTransformV@aos@shdfnd@3@1@Z 00000001801bdd80 f   GuPersistentContactManifold.obj
 0001:001bce80       ?addManifoldContactPoints@MultiplePersistentContactManifold@Gu@physx@@QEAAXPEAVMeshPersistentContact@23@IPEAPEAUPCMContactPatch@23@IAEBT__m128@@2E@Z 00000001801bde80 f   GuPersistentContactManifold.obj
 0001:001bd750       ?addManifoldContactsToContactBuffer@MultiplePersistentContactManifold@Gu@physx@@QEAA_NAEAVContactBuffer@23@AEBVPsTransformV@aos@shdfnd@3@@Z 00000001801be750 f   GuPersistentContactManifold.obj
 0001:001bdad0       ?addManifoldContactsToContactBuffer@MultiplePersistentContactManifold@Gu@physx@@QEAA_NAEAVContactBuffer@23@AEBVPsTransformV@aos@shdfnd@3@1AEBT__m128@@@Z 00000001801bead0 f   GuPersistentContactManifold.obj
 0001:001bdef0       ?drawManifold@MultiplePersistentContactManifold@Gu@physx@@QEAAXAEAVRenderOutput@Cm@3@AEBVPsTransformV@aos@shdfnd@3@1@Z 00000001801beef0 f   GuPersistentContactManifold.obj
 0001:001bdf70       ?fromBuffer@MultiplePersistentContactManifold@Gu@physx@@QEAAXPEIAE@Z 00000001801bef70 f   GuPersistentContactManifold.obj
 0001:001be3a0       ?drawLine@MultiplePersistentContactManifold@Gu@physx@@SAXAEAVRenderOutput@Cm@3@AEBT__m128@@1I@Z 00000001801bf3a0 f   GuPersistentContactManifold.obj
 0001:001be4c0       ?drawLine@MultiplePersistentContactManifold@Gu@physx@@SAXAEAVRenderOutput@Cm@3@VPxVec3@3@1I@Z 00000001801bf4c0 f   GuPersistentContactManifold.obj
 0001:001be590       ?drawPoint@MultiplePersistentContactManifold@Gu@physx@@SAXAEAVRenderOutput@Cm@3@AEBT__m128@@MI@Z 00000001801bf590 f   GuPersistentContactManifold.obj
 0001:001be850       ?drawPolygon@MultiplePersistentContactManifold@Gu@physx@@SAXAEAVRenderOutput@Cm@3@AEBVPsTransformV@aos@shdfnd@3@PEAT__m128@@II@Z 00000001801bf850 f   GuPersistentContactManifold.obj
 0001:001be950       ?addManifoldPoint@Gu@physx@@YAXPEAVPersistentContact@12@AEAVPersistentContactManifold@12@AEAUGjkOutput@12@AEBVPsMatTransformV@aos@shdfnd@2@T__m128@@@Z 00000001801bf950 f   GuPersistentContactManifold.obj
 0001:001c1950       ?BTFTT@aos@shdfnd@physx@@YA?AT__m128@@XZ 00000001801c2950 f i GuPersistentContactManifold.obj
 0001:001c1990       ?V3SetY@aos@shdfnd@physx@@YA?AT__m128@@T4@0@Z 00000001801c2990 f i GuPersistentContactManifold.obj
 0001:001c1ae0       ?getContactPoint@SinglePersistentContactManifold@Gu@physx@@QEAAAEAVMeshPersistentContact@23@I@Z 00000001801c2ae0 f i GuPersistentContactManifold.obj
 0001:001c1b60       ?getLocalNormal@SinglePersistentContactManifold@Gu@physx@@QEAA?AT__m128@@XZ 00000001801c2b60 f i GuPersistentContactManifold.obj
 0001:001c1c60       ?getNumContacts@SinglePersistentContactManifold@Gu@physx@@QEBAIXZ 00000001801c2c60 f i GuPersistentContactManifold.obj
 0001:001c1c80       ?getWorldNormal@SinglePersistentContactManifold@Gu@physx@@QEAA?AT__m128@@AEBVPsTransformV@aos@shdfnd@3@@Z 00000001801c2c80 f i GuPersistentContactManifold.obj
 0001:001c1db0       ?removeContactPoint@SinglePersistentContactManifold@Gu@physx@@QEAAXI@Z 00000001801c2db0 f i GuPersistentContactManifold.obj
 0001:001c1e90       ?sweepBoxBox@Gu@physx@@YA_NAEBVBox@12@0AEBVPxVec3@2@MV?$PxFlags@W4Enum@PxHitFlag@physx@@G@2@AEAUPxSweepHit@2@@Z 00000001801c2e90 f   GuSweepBoxBox.obj
 0001:001c2a10       ?sweepBoxSphere@Gu@physx@@YA_NAEBVBox@12@MAEBVPxVec3@2@1MAEAMAEAV42@V?$PxFlags@W4Enum@PxHitFlag@physx@@G@2@@Z 00000001801c3a10 f   GuSweepBoxSphere.obj
 0001:001c30f0       ?sweepBoxTriangle@Gu@physx@@YA_NAEBVPxTriangle@2@AEBVPxBounds3@2@AEBVPxVec3@2@2AEAV52@3AEAM_N@Z 00000001801c40f0 f   GuSweepBoxTriangle_FeatureBased.obj
 0001:001c4a50       ??0PxTriangle@physx@@QEAA@AEBV01@@Z 00000001801c5a50 f i GuSweepBoxTriangle_FeatureBased.obj
 0001:001c5640       ?triBoxSweepTestBoxSpace@Gu@physx@@YAHAEBVPxTriangle@2@AEBVPxVec3@2@11MAEAM_N@Z 00000001801c6640 f   GuSweepBoxTriangle_SAT.obj
 0001:001c56a0       ?sweepCapsuleBox@Gu@physx@@YA_NAEBVCapsule@12@AEBVPxTransform@2@AEBVPxVec3@2@2MAEAV52@AEAM3V?$PxFlags@W4Enum@PxHitFlag@physx@@G@2@@Z 00000001801c66a0 f   GuSweepCapsuleBox.obj
 0001:001c6850       ??0?$ScopedPointer@VPxTriangle@physx@@VTempAllocator@shdfnd@2@@shdfnd@physx@@QEAA@XZ 00000001801c7850 f i GuSweepCapsuleBox.obj
 0001:001c6870       ??1?$ScopedPointer@VPxTriangle@physx@@VTempAllocator@shdfnd@2@@shdfnd@physx@@QEAA@XZ 00000001801c7870 f i GuSweepCapsuleBox.obj
 0001:001c68a0       ??B?$ScopedPointer@VPxTriangle@physx@@VTempAllocator@shdfnd@2@@shdfnd@physx@@QEBAPEAVPxTriangle@2@XZ 00000001801c78a0 f i GuSweepCapsuleBox.obj
 0001:001c6930       ?sweepCapsuleCapsule@Gu@physx@@YA_NAEBVCapsule@12@0AEBVPxVec3@2@MAEAMAEAV42@3IAEAG@Z 00000001801c7930 f   GuSweepCapsuleCapsule.obj
 0001:001c7ab0       ??B?$PxFlags@W4Enum@PxHitFlag@physx@@G@physx@@QEBAGXZ 00000001801c8ab0 f i GuSweepCapsuleCapsule.obj
 0001:001c7b40       ?sweepCapsuleTriangles_Precise@Gu@physx@@YA_NIPEIBVPxTriangle@2@AEBVCapsule@12@AEBVPxVec3@2@MPEIBIAEAUPxSweepHit@2@AEAV52@V?$PxFlags@W4Enum@PxHitFlag@physx@@G@2@_NPEBVBoxPadded@12@@Z 00000001801c8b40 f   GuSweepCapsuleTriangle.obj
 0001:001c9840       ?computeSphereTriangleImpactData@Gu@physx@@YA_NAEAUPxSweepHit@2@AEAVPxVec3@2@IMAEBV42@22PEIBVPxTriangle@2@_N4@Z 00000001801ca840 f i GuSweepCapsuleTriangle.obj
 0001:001c99c0       ?getInitIndex@Gu@physx@@YAIPEIBII@Z 00000001801ca9c0 f i GuSweepCapsuleTriangle.obj
 0001:001c9ad0       ?sweepSphereCapsule@Gu@physx@@YA_NAEBVSphere@12@AEBVCapsule@12@AEBVPxVec3@2@MAEAMAEAV52@4V?$PxFlags@W4Enum@PxHitFlag@physx@@G@2@@Z 00000001801caad0 f   GuSweepSphereCapsule.obj
 0001:001c9ef0       ?sweepSphereSphere@Gu@physx@@YA_NAEBVPxVec3@2@M0M0AEAMAEAV32@@Z 00000001801caef0 f   GuSweepSphereSphere.obj
 0001:001ca3d0       ?sweepSphereVSTri@Gu@physx@@YA_NPEIBVPxVec3@2@AEBV32@1M1AEAMAEA_N_N@Z 00000001801cb3d0 f   GuSweepSphereTriangle.obj
 0001:001cab30       ?sweepSphereVSQuad@Gu@physx@@YA_NPEIBVPxVec3@2@AEBV32@1M1AEAM@Z 00000001801cbb30 f   GuSweepSphereTriangle.obj
 0001:001cb4c0       ?sweepSphereTriangles@Gu@physx@@YA_NIPEIBVPxTriangle@2@AEBVPxVec3@2@M1MPEIBIAEAUPxSweepHit@2@AEAV42@_N555@Z 00000001801cc4c0 f   GuSweepSphereTriangle.obj
 0001:001cbe60       ?computeSphereTriImpactData@Gu@physx@@YAXAEAVPxVec3@2@0AEBV32@1MAEBVPxTriangle@2@@Z 00000001801cce60 f   GuSweepTriangleUtils.obj
 0001:001cbfb0       ?computeBoxTriImpactData@Gu@physx@@YAXAEAVPxVec3@2@0AEBV32@1AEBVPxTriangle@2@M@Z 00000001801ccfb0 f   GuSweepTriangleUtils.obj
 0001:001cc2c0       ?computeEdgeEdgeNormal@Gu@physx@@YAXAEAVPxVec3@2@AEBV32@1111M@Z 00000001801cd2c0 f   GuSweepTriangleUtils.obj
 0001:001ccab0       ??$gjk@U?$LocalConvex@VTriangleV@Gu@physx@@@Gu@physx@@U?$LocalConvex@VBoxV@Gu@physx@@@23@@Gu@physx@@YA?AW4GjkStatus@01@AEBU?$LocalConvex@VTriangleV@Gu@physx@@@01@AEBU?$LocalConvex@VBoxV@Gu@physx@@@01@AEBT__m128@@2AEAT5@333@Z 00000001801cdab0 f i GuSweepTriangleUtils.obj
 0001:001cdbee       ?PxGetAssertHandler@physx@@YAAEAVPxAssertHandler@1@XZ 00000001801cebee f   PhysXFoundation_64:PhysXFoundation_64d.dll
 0001:001cdbf4       PxGetFoundation            00000001801cebf4 f   PhysXFoundation_64:PhysXFoundation_64d.dll
 0001:001cdbfa       ?getAllocator@shdfnd@physx@@YAAEAVPxAllocatorCallback@2@XZ 00000001801cebfa f   PhysXFoundation_64:PhysXFoundation_64d.dll
 0001:001cdc00       ?getInstance@Foundation@shdfnd@physx@@SAAEAV123@XZ 00000001801cec00 f   PhysXFoundation_64:PhysXFoundation_64d.dll
 0001:001cdc06       ?error@Foundation@shdfnd@physx@@QEAAXW4Enum@PxErrorCode@3@PEBDH1ZZ 00000001801cec06 f   PhysXFoundation_64:PhysXFoundation_64d.dll
 0001:001cdc0c       ?PxShortestRotation@physx@@YA?AVPxQuat@1@AEBVPxVec3@1@0@Z 00000001801cec0c f   PhysXFoundation_64:PhysXFoundation_64d.dll
 0001:001cdc12       ??0NamedAllocator@shdfnd@physx@@QEAA@PEBD@Z 00000001801cec12 f   PhysXFoundation_64:PhysXFoundation_64d.dll
 0001:001cdc18       ??1NamedAllocator@shdfnd@physx@@QEAA@XZ 00000001801cec18 f   PhysXFoundation_64:PhysXFoundation_64d.dll
 0001:001cdc1e       ?allocate@NamedAllocator@shdfnd@physx@@QEAAPEAX_KPEBDH@Z 00000001801cec1e f   PhysXFoundation_64:PhysXFoundation_64d.dll
 0001:001cdc24       ?deallocate@NamedAllocator@shdfnd@physx@@QEAAXPEAX@Z 00000001801cec24 f   PhysXFoundation_64:PhysXFoundation_64d.dll
 0001:001cdc2a       ?vsnprintf@shdfnd@physx@@YAHPEAD_KPEBD0@Z 00000001801cec2a f   PhysXFoundation_64:PhysXFoundation_64d.dll
 0001:001cdc30       ??0NamedAllocator@shdfnd@physx@@QEAA@AEBV012@@Z 00000001801cec30 f   PhysXFoundation_64:PhysXFoundation_64d.dll
 0001:001cdc36       ??0MutexImpl@shdfnd@physx@@QEAA@XZ 00000001801cec36 f   PhysXFoundation_64:PhysXFoundation_64d.dll
 0001:001cdc3c       ??1MutexImpl@shdfnd@physx@@QEAA@XZ 00000001801cec3c f   PhysXFoundation_64:PhysXFoundation_64d.dll
 0001:001cdc42       ?lock@MutexImpl@shdfnd@physx@@QEAAXXZ 00000001801cec42 f   PhysXFoundation_64:PhysXFoundation_64d.dll
 0001:001cdc48       ?unlock@MutexImpl@shdfnd@physx@@QEAAXXZ 00000001801cec48 f   PhysXFoundation_64:PhysXFoundation_64d.dll
 0001:001cdc4e       ?getSize@MutexImpl@shdfnd@physx@@SAIXZ 00000001801cec4e f   PhysXFoundation_64:PhysXFoundation_64d.dll
 0001:001cdc54       ?atomicDecrement@shdfnd@physx@@YAHPECH@Z 00000001801cec54 f   PhysXFoundation_64:PhysXFoundation_64d.dll
 0001:001cdc5a       ?optimizeBoundingBox@shdfnd@physx@@YA?AVPxVec3@2@AEAVPxMat33@2@@Z 00000001801cec5a f   PhysXFoundation_64:PhysXFoundation_64d.dll
 0001:001cdc60       ?allocate@TempAllocator@shdfnd@physx@@QEAAPEAX_KPEBDH@Z 00000001801cec60 f   PhysXFoundation_64:PhysXFoundation_64d.dll
 0001:001cdc66       ?deallocate@TempAllocator@shdfnd@physx@@QEAAXPEAX@Z 00000001801cec66 f   PhysXFoundation_64:PhysXFoundation_64d.dll
 0001:001cdc6c       ?atomicIncrement@shdfnd@physx@@YAHPECH@Z 00000001801cec6c f   PhysXFoundation_64:PhysXFoundation_64d.dll
 0001:001cdc72       PxGetProfilerCallback      00000001801cec72 f   PhysXFoundation_64:PhysXFoundation_64d.dll
 0001:001cdc78       FreeLibrary                00000001801cec78 f   kernel32:KERNEL32.dll
 0001:001cdc7e       GetProcAddress             00000001801cec7e f   kernel32:KERNEL32.dll
 0001:001cdc84       LoadLibraryA               00000001801cec84 f   kernel32:KERNEL32.dll
 0001:001cdc90       ??3@YAXPEAX_K@Z            00000001801cec90 f   MSVCRTD:delete_scalar_size.obj
 0001:001cdcb0       _CRT_RTC_INIT              00000001801cecb0 f   MSVCRTD:init.obj
 0001:001cdcc0       _CRT_RTC_INITW             00000001801cecc0 f   MSVCRTD:init.obj
 0001:001cdcd0       _RTC_InitBase              00000001801cecd0 f   MSVCRTD:init.obj
 0001:001cdd10       _RTC_Shutdown              00000001801ced10 f   MSVCRTD:init.obj
 0001:001cdd40       ??1type_info@@UEAA@XZ      00000001801ced40 f   MSVCRTD:std_type_info_static.obj
 0001:001cdd60       ??_Gtype_info@@UEAAPEAXI@Z 00000001801ced60 f i MSVCRTD:std_type_info_static.obj
 0001:001cdd60       ??_Etype_info@@UEAAPEAXI@Z 00000001801ced60 f i MSVCRTD:std_type_info_static.obj
 0001:001cdda0       ?__scrt_initialize_type_info@@YAXXZ 00000001801ceda0 f   MSVCRTD:tncleanup.obj
 0001:001cddc0       ?__scrt_uninitialize_type_info@@YAXXZ 00000001801cedc0 f   MSVCRTD:tncleanup.obj
 0001:001cdde0       ??_V@YAXPEAX_K@Z           00000001801cede0 f   MSVCRTD:delete_array_size.obj
 0001:001cde10       _alloca_probe              00000001801cee10 f   MSVCRTD:chkstk.obj
 0001:001cde10       __chkstk                   00000001801cee10 f   MSVCRTD:chkstk.obj
 0001:001cde70       ??3@YAXPEAX@Z              00000001801cee70 f   MSVCRTD:delete_scalar.obj
 0001:001cde90       ??_V@YAXPEAX@Z             00000001801cee90 f   MSVCRTD:delete_array.obj
 0001:001ce2c0       _CRT_INIT                  00000001801cf2c0 f   MSVCRTD:dll_dllmain.obj
 0001:001ce2f0       _DllMainCRTStartup         00000001801cf2f0 f   MSVCRTD:dll_dllmain.obj
 0001:001ce330       ?_RTC_GetErrorFunc@@YAP6AHHPEBDH00ZZPEBX@Z 00000001801cf330 f   MSVCRTD:userapi.obj
 0001:001ce340       ?_RTC_GetErrorFuncW@@YAP6AHHPEB_WH00ZZPEBX@Z 00000001801cf340 f   MSVCRTD:userapi.obj
 0001:001ce350       _RTC_GetErrDesc            00000001801cf350 f   MSVCRTD:userapi.obj
 0001:001ce370       _RTC_NumErrors             00000001801cf370 f   MSVCRTD:userapi.obj
 0001:001ce380       _RTC_SetErrorFunc          00000001801cf380 f   MSVCRTD:userapi.obj
 0001:001ce3a0       _RTC_SetErrorFuncW         00000001801cf3a0 f   MSVCRTD:userapi.obj
 0001:001ce3c0       _RTC_SetErrorType          00000001801cf3c0 f   MSVCRTD:userapi.obj
 0001:001ce4a0       __security_init_cookie     00000001801cf4a0 f   MSVCRTD:gs_support.obj
 0001:001ce520       DllMain                    00000001801cf520 f   MSVCRTD:dll_dllmain_stub.obj
 0001:001ce560       __local_stdio_printf_options 00000001801cf560 f i MSVCRTD:default_local_stdio_options.obj
 0001:001ce570       __local_stdio_scanf_options 00000001801cf570 f i MSVCRTD:default_local_stdio_options.obj
 0001:001ce580       __scrt_initialize_default_local_stdio_options 00000001801cf580 f   MSVCRTD:default_local_stdio_options.obj
 0001:001ce5d0       ?configure_argv@__scrt_narrow_argv_policy@@SAHXZ 00000001801cf5d0 f i MSVCRTD:utility.obj
 0001:001ce6c0       ?initialize_environment@__scrt_narrow_environment_policy@@SAHXZ 00000001801cf6c0 f i MSVCRTD:utility.obj
 0001:001ce760       NtCurrentTeb               00000001801cf760 f i MSVCRTD:utility.obj
 0001:001ce770       __scrt_acquire_startup_lock 00000001801cf770 f   MSVCRTD:utility.obj
 0001:001ce7e0       __scrt_dllmain_after_initialize_c 00000001801cf7e0 f   MSVCRTD:utility.obj
 0001:001ce810       __scrt_dllmain_before_initialize_c 00000001801cf810 f   MSVCRTD:utility.obj
 0001:001ce830       __scrt_dllmain_crt_thread_attach 00000001801cf830 f   MSVCRTD:utility.obj
 0001:001ce860       __scrt_dllmain_crt_thread_detach 00000001801cf860 f   MSVCRTD:utility.obj
 0001:001ce880       __scrt_dllmain_exception_filter 00000001801cf880 f   MSVCRTD:utility.obj
 0001:001ce8f0       __scrt_dllmain_uninitialize_c 00000001801cf8f0 f   MSVCRTD:utility.obj
 0001:001ce920       __scrt_dllmain_uninitialize_critical 00000001801cf920 f   MSVCRTD:utility.obj
 0001:001ce940       __scrt_initialize_crt      00000001801cf940 f   MSVCRTD:utility.obj
 0001:001ce990       __scrt_initialize_onexit_tables 00000001801cf990 f   MSVCRTD:utility.obj
 0001:001ceaa0       __scrt_is_nonwritable_in_current_image 00000001801cfaa0 f   MSVCRTD:utility.obj
 0001:001ceb30       __scrt_release_startup_lock 00000001801cfb30 f   MSVCRTD:utility.obj
 0001:001ceb60       __scrt_uninitialize_crt    00000001801cfb60 f   MSVCRTD:utility.obj
 0001:001ceba0       _onexit                    00000001801cfba0 f   MSVCRTD:utility.obj
 0001:001cec20       at_quick_exit              00000001801cfc20 f   MSVCRTD:utility.obj
 0001:001cec70       atexit                     00000001801cfc70 f   MSVCRTD:utility.obj
 0001:001cecb0       __scrt_get_dyn_tls_init_callback 00000001801cfcb0 f   MSVCRTD:dyn_tls_init.obj
 0001:001cecc0       __crt_debugger_hook        00000001801cfcc0 f   MSVCRTD:utility_desktop.obj
 0001:001cecd0       __scrt_fastfail            00000001801cfcd0 f   MSVCRTD:utility_desktop.obj
 0001:001cee70       __scrt_get_show_window_mode 00000001801cfe70 f   MSVCRTD:utility_desktop.obj
 0001:001ceed0       __scrt_initialize_mta      00000001801cfed0 f   MSVCRTD:utility_desktop.obj
 0001:001ceee0       __scrt_initialize_winrt    00000001801cfee0 f   MSVCRTD:utility_desktop.obj
 0001:001ceef0       __scrt_is_managed_app      00000001801cfef0 f   MSVCRTD:utility_desktop.obj
 0001:001cefa0       __scrt_set_unhandled_exception_filter 00000001801cffa0 f   MSVCRTD:utility_desktop.obj
 0001:001cefc0       __scrt_exe_initialize_mta  00000001801cffc0 f   MSVCRTD:utility_desktop.obj
 0001:001cefc0       __scrt_stub_for_initialize_mta 00000001801cffc0 f   MSVCRTD:utility_desktop.obj
 0001:001cefd0       __scrt_unhandled_exception_filter 00000001801cffd0 f   MSVCRTD:utility_desktop.obj
 0001:001cf070       _RTC_Initialize            00000001801d0070 f   MSVCRTD:initsect.obj
 0001:001cf0c0       _RTC_Terminate             00000001801d00c0 f   MSVCRTD:initsect.obj
 0001:001cf110       _guard_check_icall_nop     00000001801d0110 f i MSVCRTD:guard_support.obj
 0001:001cf120       ReadNoFence64              00000001801d0120 f i MSVCRTD:guard_support.obj
 0001:001cf140       ReadPointerNoFence         00000001801d0140 f i MSVCRTD:guard_support.obj
 0001:001cf160       __castguard_check_failure_debugbreak 00000001801d0160 f i MSVCRTD:guard_support.obj
 0001:001cf180       __castguard_check_failure_fastfail 00000001801d0180 f i MSVCRTD:guard_support.obj
 0001:001cf1b0       __castguard_check_failure_nop 00000001801d01b0 f i MSVCRTD:guard_support.obj
 0001:001cf1c0       __castguard_check_failure_os_handled 00000001801d01c0 f i MSVCRTD:guard_support.obj
 0001:001cf280       __castguard_slow_path_check_debugbreak 00000001801d0280 f i MSVCRTD:guard_support.obj
 0001:001cf2c0       __castguard_slow_path_check_fastfail 00000001801d02c0 f i MSVCRTD:guard_support.obj
 0001:001cf310       __castguard_slow_path_check_nop 00000001801d0310 f i MSVCRTD:guard_support.obj
 0001:001cf320       __castguard_slow_path_check_os_handled 00000001801d0320 f i MSVCRTD:guard_support.obj
 0001:001cf400       _guard_icall_checks_enforced 00000001801d0400 f i MSVCRTD:guard_support.obj
 0001:001cf440       _guard_rf_checks_enforced  00000001801d0440 f i MSVCRTD:guard_support.obj
 0001:001cf4e0       ?_RTC_AllocaFailure@@YAXPEAXPEAU_RTC_ALLOCA_NODE@@H@Z 00000001801d04e0 f   MSVCRTD:error.obj
 0001:001cf640       ?_RTC_Failure@@YAXPEAXH@Z  00000001801d0640 f   MSVCRTD:error.obj
 0001:001cf690       ?_RTC_StackFailure@@YAXPEAXPEBD@Z 00000001801d0690 f   MSVCRTD:error.obj
 0001:001cfac0       _RTC_UninitUse             00000001801d0ac0 f   MSVCRTD:error.obj
 0001:001cfb90       _vsprintf_s_l              00000001801d0b90 f i MSVCRTD:error.obj
 0001:001cfc00       sprintf_s                  00000001801d0c00 f i MSVCRTD:error.obj
 0001:001cfc30       __isa_available_init       00000001801d0c30 f   MSVCRTD:cpu_disp.obj
 0001:001cffd0       _get_startup_argv_mode     00000001801d0fd0 f   MSVCRTD:argv_mode.obj
 0001:001cffe0       __scrt_is_ucrt_dll_in_use  00000001801d0fe0 f   MSVCRTD:ucrt_detection.obj
 0001:001d0520       ?_RTC_GetSrcLine@@YAHPEAEPEA_WKPEAH1K@Z 00000001801d1520 f   MSVCRTD:pdblkup.obj
 0001:001d08f0       __GSHandlerCheck           00000001801d18f0 f   MSVCRTD:gshandler.obj
 0001:001d0930       __GSHandlerCheckCommon     00000001801d1930 f   MSVCRTD:gshandler.obj
 0001:001d0a40       __security_check_cookie    00000001801d1a40 f   MSVCRTD:amdsecgs.obj
 0001:001d0a70       __raise_securityfailure    00000001801d1a70 f   MSVCRTD:gs_report.obj
 0001:001d0ab0       __report_gsfailure         00000001801d1ab0 f   MSVCRTD:gs_report.obj
 0001:001d0b90       __report_rangecheckfailure 00000001801d1b90 f   MSVCRTD:gs_report.obj
 0001:001d0bb0       __report_securityfailure   00000001801d1bb0 f   MSVCRTD:gs_report.obj
 0001:001d0c50       __report_securityfailureEx 00000001801d1c50 f   MSVCRTD:gs_report.obj
 0001:001d0eb2       _purecall                  00000001801d1eb2 f   vcruntimed:VCRUNTIME140D.dll
 0001:001d0eb8       __std_type_info_name       00000001801d1eb8 f   vcruntimed:VCRUNTIME140D.dll
 0001:001d0ebe       memcpy                     00000001801d1ebe f   vcruntimed:VCRUNTIME140D.dll
 0001:001d0ec4       memset                     00000001801d1ec4 f   vcruntimed:VCRUNTIME140D.dll
 0001:001d0eca       strstr                     00000001801d1eca f   vcruntimed:VCRUNTIME140D.dll
 0001:001d0ed0       __std_type_info_destroy_list 00000001801d1ed0 f   vcruntimed:VCRUNTIME140D.dll
 0001:001d0ed6       __C_specific_handler       00000001801d1ed6 f   vcruntimed:VCRUNTIME140D.dll
 0001:001d0edc       __current_exception        00000001801d1edc f   vcruntimed:VCRUNTIME140D.dll
 0001:001d0ee2       __current_exception_context 00000001801d1ee2 f   vcruntimed:VCRUNTIME140D.dll
 0001:001d0ee8       __C_specific_handler_noexcept 00000001801d1ee8 f   vcruntimed:VCRUNTIME140D.dll
 0001:001d0eee       __vcrt_GetModuleFileNameW  00000001801d1eee f   vcruntimed:VCRUNTIME140D.dll
 0001:001d0ef4       __vcrt_GetModuleHandleW    00000001801d1ef4 f   vcruntimed:VCRUNTIME140D.dll
 0001:001d0efa       __vcrt_LoadLibraryExW      00000001801d1efa f   vcruntimed:VCRUNTIME140D.dll
 0001:001d0f00       fabs                       00000001801d1f00 f   ucrtd:ucrtbased.dll
 0001:001d0f06       sqrtf                      00000001801d1f06 f   ucrtd:ucrtbased.dll
 0001:001d0f0c       _fpclass                   00000001801d1f0c f   ucrtd:ucrtbased.dll
 0001:001d0f12       _wassert                   00000001801d1f12 f   ucrtd:ucrtbased.dll
 0001:001d0f18       cosf                       00000001801d1f18 f   ucrtd:ucrtbased.dll
 0001:001d0f1e       sinf                       00000001801d1f1e f   ucrtd:ucrtbased.dll
 0001:001d0f24       strlen                     00000001801d1f24 f   ucrtd:ucrtbased.dll
 0001:001d0f2a       tanf                       00000001801d1f2a f   ucrtd:ucrtbased.dll
 0001:001d0f30       strcmp                     00000001801d1f30 f   ucrtd:ucrtbased.dll
 0001:001d0f36       ceilf                      00000001801d1f36 f   ucrtd:ucrtbased.dll
 0001:001d0f3c       floorf                     00000001801d1f3c f   ucrtd:ucrtbased.dll
 0001:001d0f42       acosf                      00000001801d1f42 f   ucrtd:ucrtbased.dll
 0001:001d0f48       _CrtDbgReport              00000001801d1f48 f   ucrtd:ucrtbased.dll
 0001:001d0f4e       _CrtDbgReportW             00000001801d1f4e f   ucrtd:ucrtbased.dll
 0001:001d0f54       _free_dbg                  00000001801d1f54 f   ucrtd:ucrtbased.dll
 0001:001d0f5a       _initterm                  00000001801d1f5a f   ucrtd:ucrtbased.dll
 0001:001d0f60       _initterm_e                00000001801d1f60 f   ucrtd:ucrtbased.dll
 0001:001d0f66       _seh_filter_dll            00000001801d1f66 f   ucrtd:ucrtbased.dll
 0001:001d0f6c       _configure_narrow_argv     00000001801d1f6c f   ucrtd:ucrtbased.dll
 0001:001d0f72       _initialize_narrow_environment 00000001801d1f72 f   ucrtd:ucrtbased.dll
 0001:001d0f78       _initialize_onexit_table   00000001801d1f78 f   ucrtd:ucrtbased.dll
 0001:001d0f7e       _register_onexit_function  00000001801d1f7e f   ucrtd:ucrtbased.dll
 0001:001d0f84       _execute_onexit_table      00000001801d1f84 f   ucrtd:ucrtbased.dll
 0001:001d0f8a       _crt_atexit                00000001801d1f8a f   ucrtd:ucrtbased.dll
 0001:001d0f90       _crt_at_quick_exit         00000001801d1f90 f   ucrtd:ucrtbased.dll
 0001:001d0f96       _cexit                     00000001801d1f96 f   ucrtd:ucrtbased.dll
 0001:001d0f9c       terminate                  00000001801d1f9c f   ucrtd:ucrtbased.dll
 0001:001d0fa2       strcpy_s                   00000001801d1fa2 f   ucrtd:ucrtbased.dll
 0001:001d0fa8       strcat_s                   00000001801d1fa8 f   ucrtd:ucrtbased.dll
 0001:001d0fae       __stdio_common_vsprintf_s  00000001801d1fae f   ucrtd:ucrtbased.dll
 0001:001d0fb4       _wmakepath_s               00000001801d1fb4 f   ucrtd:ucrtbased.dll
 0001:001d0fba       _wsplitpath_s              00000001801d1fba f   ucrtd:ucrtbased.dll
 0001:001d0fc0       wcscpy_s                   00000001801d1fc0 f   ucrtd:ucrtbased.dll
 0001:001d0fc6       InitializeSListHead        00000001801d1fc6 f   kernel32:KERNEL32.dll
 0001:001d0fcc       QueryPerformanceCounter    00000001801d1fcc f   kernel32:KERNEL32.dll
 0001:001d0fd2       GetCurrentProcessId        00000001801d1fd2 f   kernel32:KERNEL32.dll
 0001:001d0fd8       GetCurrentThreadId         00000001801d1fd8 f   kernel32:KERNEL32.dll
 0001:001d0fde       GetSystemTimeAsFileTime    00000001801d1fde f   kernel32:KERNEL32.dll
 0001:001d0fe4       DisableThreadLibraryCalls  00000001801d1fe4 f   kernel32:KERNEL32.dll
 0001:001d0fea       RtlCaptureContext          00000001801d1fea f   kernel32:KERNEL32.dll
 0001:001d0ff0       RtlLookupFunctionEntry     00000001801d1ff0 f   kernel32:KERNEL32.dll
 0001:001d0ff6       RtlVirtualUnwind           00000001801d1ff6 f   kernel32:KERNEL32.dll
 0001:001d0ffc       IsDebuggerPresent          00000001801d1ffc f   kernel32:KERNEL32.dll
 0001:001d1002       UnhandledExceptionFilter   00000001801d2002 f   kernel32:KERNEL32.dll
 0001:001d1008       SetUnhandledExceptionFilter 00000001801d2008 f   kernel32:KERNEL32.dll
 0001:001d100e       GetStartupInfoW            00000001801d200e f   kernel32:KERNEL32.dll
 0001:001d1014       IsProcessorFeaturePresent  00000001801d2014 f   kernel32:KERNEL32.dll
 0001:001d101a       GetModuleHandleW           00000001801d201a f   kernel32:KERNEL32.dll
 0001:001d1020       RaiseException             00000001801d2020 f   kernel32:KERNEL32.dll
 0001:001d1026       MultiByteToWideChar        00000001801d2026 f   kernel32:KERNEL32.dll
 0001:001d102c       WideCharToMultiByte        00000001801d202c f   kernel32:KERNEL32.dll
 0001:001d1032       GetLastError               00000001801d2032 f   kernel32:KERNEL32.dll
 0001:001d1038       HeapAlloc                  00000001801d2038 f   kernel32:KERNEL32.dll
 0001:001d103e       HeapFree                   00000001801d203e f   kernel32:KERNEL32.dll
 0001:001d1044       GetProcessHeap             00000001801d2044 f   kernel32:KERNEL32.dll
 0001:001d104a       VirtualQuery               00000001801d204a f   kernel32:KERNEL32.dll
 0001:001d1050       GetCurrentProcess          00000001801d2050 f   kernel32:KERNEL32.dll
 0001:001d1056       TerminateProcess           00000001801d2056 f   kernel32:KERNEL32.dll
 0001:001d1060       __scrt_stub_for_acrt_initialize 00000001801d2060 f   MSVCRTD:ucrt_stubs.obj
 0001:001d1060       __vcrt_initialize          00000001801d2060 f   MSVCRTD:ucrt_stubs.obj
 0001:001d1060       __acrt_initialize          00000001801d2060 f   MSVCRTD:ucrt_stubs.obj
 0001:001d1070       __vcrt_thread_attach       00000001801d2070 f   MSVCRTD:ucrt_stubs.obj
 0001:001d1070       __acrt_thread_attach       00000001801d2070 f   MSVCRTD:ucrt_stubs.obj
 0001:001d1070       __scrt_stub_for_acrt_thread_attach 00000001801d2070 f   MSVCRTD:ucrt_stubs.obj
 0001:001d1080       __scrt_stub_for_acrt_thread_detach 00000001801d2080 f   MSVCRTD:ucrt_stubs.obj
 0001:001d1080       __vcrt_thread_detach       00000001801d2080 f   MSVCRTD:ucrt_stubs.obj
 0001:001d1080       __acrt_thread_detach       00000001801d2080 f   MSVCRTD:ucrt_stubs.obj
 0001:001d1090       __scrt_stub_for_acrt_uninitialize 00000001801d2090 f   MSVCRTD:ucrt_stubs.obj
 0001:001d1090       __acrt_uninitialize        00000001801d2090 f   MSVCRTD:ucrt_stubs.obj
 0001:001d1090       __vcrt_uninitialize        00000001801d2090 f   MSVCRTD:ucrt_stubs.obj
 0001:001d10a0       __vcrt_uninitialize_critical 00000001801d20a0 f   MSVCRTD:ucrt_stubs.obj
 0001:001d10a0       __acrt_uninitialize_critical 00000001801d20a0 f   MSVCRTD:ucrt_stubs.obj
 0001:001d10a0       __scrt_stub_for_acrt_uninitialize_critical 00000001801d20a0 f   MSVCRTD:ucrt_stubs.obj
 0001:001d10b0       __scrt_stub_for_is_c_termination_complete 00000001801d20b0 f   MSVCRTD:ucrt_stubs.obj
 0001:001d10b0       _is_c_termination_complete 00000001801d20b0 f   MSVCRTD:ucrt_stubs.obj
 0001:001d10d0       _guard_dispatch_icall_nop  00000001801d20d0 f   MSVCRTD:guard_dispatch.obj
 0001:001d10f0       _guard_xfg_dispatch_icall_nop 00000001801d20f0 f   MSVCRTD:guard_xfg_dispatch.obj
 0002:00000000       __imp_TerminateProcess     00000001801d3000     kernel32:KERNEL32.dll
 0002:00000008       __imp_QueryPerformanceCounter 00000001801d3008     kernel32:KERNEL32.dll
 0002:00000010       __imp_GetCurrentProcessId  00000001801d3010     kernel32:KERNEL32.dll
 0002:00000018       __imp_GetCurrentThreadId   00000001801d3018     kernel32:KERNEL32.dll
 0002:00000020       __imp_GetSystemTimeAsFileTime 00000001801d3020     kernel32:KERNEL32.dll
 0002:00000028       __imp_DisableThreadLibraryCalls 00000001801d3028     kernel32:KERNEL32.dll
 0002:00000030       __imp_RtlCaptureContext    00000001801d3030     kernel32:KERNEL32.dll
 0002:00000038       __imp_RtlLookupFunctionEntry 00000001801d3038     kernel32:KERNEL32.dll
 0002:00000040       __imp_RtlVirtualUnwind     00000001801d3040     kernel32:KERNEL32.dll
 0002:00000048       __imp_IsDebuggerPresent    00000001801d3048     kernel32:KERNEL32.dll
 0002:00000050       __imp_UnhandledExceptionFilter 00000001801d3050     kernel32:KERNEL32.dll
 0002:00000058       __imp_SetUnhandledExceptionFilter 00000001801d3058     kernel32:KERNEL32.dll
 0002:00000060       __imp_GetStartupInfoW      00000001801d3060     kernel32:KERNEL32.dll
 0002:00000068       __imp_IsProcessorFeaturePresent 00000001801d3068     kernel32:KERNEL32.dll
