 PhysXCooking_64d

 Timestamp is 60824f49 (Fri Apr 23 13:38:33 2021)

 Preferred load address is 0000000180000000

 Start         Length     Name                   Class
 0001:00000000 00000ba0H .text$di                CODE
 0001:00000ba0 0004f2f0H .text$mn                CODE
 0001:0004fe90 00000040H .text$mn$00             CODE
 0001:0004fed0 00000100H .text$x                 CODE
 0002:00000000 00000430H .idata$5                DATA
 0002:00000430 00000028H .00cfg                  DATA
 0002:00000458 00000008H .CRT$XCA                DATA
 0002:00000460 000001f0H .CRT$XCU                DATA
 0002:00000650 00000008H .CRT$XCZ                DATA
 0002:00000658 00000008H .CRT$XIA                DATA
 0002:00000660 00000008H .CRT$XIZ                DATA
 0002:00000668 00000008H .CRT$XPA                DATA
 0002:00000670 00000008H .CRT$XPZ                DATA
 0002:00000678 00000008H .CRT$XTA                DATA
 0002:00000680 00000010H .CRT$XTZ                DATA
 0002:00000688 00000000H .gehcont$y              DATA
 0002:00000688 00000000H .gfids$y                DATA
 0002:00000690 00004e70H .rdata                  DATA
 0002:00005500 00000008H .rdata$CastGuardVftablesA DATA
 0002:00005508 00000008H .rdata$CastGuardVftablesC DATA
 0002:00005510 00000074H .rdata$r                DATA
 0002:00005584 000003b4H .rdata$zzzdbg           DATA
 0002:00005938 00000008H .rtc$IAA                DATA
 0002:00005940 000000a0H .rtc$IMZ                DATA
 0002:000059e0 00000008H .rtc$IZZ                DATA
 0002:000059e8 00000008H .rtc$TAA                DATA
 0002:000059f0 000000a0H .rtc$TMZ                DATA
 0002:00005a90 00000008H .rtc$TZZ                DATA
 0002:00005a98 00002548H .xdata                  DATA
 0002:00007fe0 00001d34H .edata                  DATA
 0002:00009d14 00000064H .idata$2                DATA
 0002:00009d78 00000018H .idata$3                DATA
 0002:00009d90 00000430H .idata$4                DATA
 0002:0000a1c0 000010ccH .idata$6                DATA
 0003:00000000 00000068H .data                   DATA
 0003:00000068 00000308H .data$r                 DATA
 0003:00000370 00000020H .data$rs                DATA
 0003:00000390 00000bb8H .bss                    DATA
 0004:00000000 00003498H .pdata                  DATA
 0005:00000000 000000a0H .rsrc$01                DATA
 0005:000000a0 000004b0H .rsrc$02                DATA

  Address         Publics by Value              Rva+Base               Lib:Object

 0000:00000000       __guard_iat_count          0000000000000000     <absolute>
 0000:00000000       __guard_iat_table          0000000000000000     <absolute>
 0000:00000000       __guard_fids_table         0000000000000000     <absolute>
 0000:00000000       __hybrid_auxiliary_iat_copy 0000000000000000     <absolute>
 0000:00000000       __guard_eh_cont_table      0000000000000000     <absolute>
 0000:00000000       __x64_code_ranges_to_entry_points 0000000000000000     <absolute>
 0000:00000000       __x64_code_ranges_to_entry_points_count 0000000000000000     <absolute>
 0000:00000000       __guard_longjmp_table      0000000000000000     <absolute>
 0000:00000000       __guard_longjmp_count      0000000000000000     <absolute>
 0000:00000000       __enclave_config           0000000000000000     <absolute>
 0000:00000000       __arm64x_redirection_metadata_count 0000000000000000     <absolute>
 0000:00000000       ___safe_se_handler_table   0000000000000000     <absolute>
 0000:00000000       __guard_eh_cont_count      0000000000000000     <absolute>
 0000:00000000       __arm64x_redirection_metadata 0000000000000000     <absolute>
 0000:00000000       __arm64x_native_entrypoint 0000000000000000     <absolute>
 0000:00000000       __guard_fids_count         0000000000000000     <absolute>
 0000:00000000       __hybrid_code_map_count    0000000000000000     <absolute>
 0000:00000000       ___safe_se_handler_count   0000000000000000     <absolute>
 0000:00000000       __dynamic_value_reloc_table 0000000000000000     <absolute>
 0000:00000000       __hybrid_code_map          0000000000000000     <absolute>
 0000:00000000       __AbsoluteZero             0000000000000000     <absolute>
 0000:00000000       __guard_check_icall_a64n_fptr 0000000000000000     <absolute>
 0000:00000000       __hybrid_auxiliary_iat     0000000000000000     <absolute>
 0000:00000000       __volatile_metadata        0000000000000000     <absolute>
 0000:00000000       __arm64x_extra_rfe_table_size 0000000000000000     <absolute>
 0000:00000000       __arm64x_extra_rfe_table   0000000000000000     <absolute>
 0000:00000100       __guard_flags              0000000000000100     <absolute>
 0000:00000000       __ImageBase                0000000180000000     <linker-defined>
 0001:00000ba0       ?ComputeNbBoundaryEdges@AdjTriangle@physx@@QEBAIXZ 0000000180001ba0 f   Adjacencies.obj
 0001:00000c30       ?ComputeNbNeighbors@AdjTriangle@physx@@QEBAIXZ 0000000180001c30 f   Adjacencies.obj
 0001:00000cc0       ?HasNeighbor@AdjTriangle@physx@@QEBA_NIPEAI@Z 0000000180001cc0 f   Adjacencies.obj
 0001:00000dd0       ?Flip@AdjTriangle@physx@@QEAAXXZ 0000000180001dd0 f   Adjacencies.obj
 0001:00000e20       ??0Adjacencies@physx@@QEAA@XZ 0000000180001e20 f   Adjacencies.obj
 0001:00000e50       ??1Adjacencies@physx@@QEAA@XZ 0000000180001e50 f   Adjacencies.obj
 0001:00000eb0       ?Load@Adjacencies@physx@@QEAA_NAEAVPxInputStream@2@@Z 0000000180001eb0 f   Adjacencies.obj
 0001:00001040       ?ComputeNbBoundaryEdges@Adjacencies@physx@@QEBAIXZ 0000000180002040 f   Adjacencies.obj
 0001:000010c0       ?GetBoundaryVertices@Adjacencies@physx@@QEBA_NIPEA_NPEBU?$TriangleT@I@Gu@2@@Z 00000001800020c0 f   Adjacencies.obj
 0001:000013d0       ?MakeLastRef@Adjacencies@physx@@QEAA_NAEAVAdjTriangle@2@IPEAU?$TriangleT@I@Gu@2@@Z 00000001800023d0 f   Adjacencies.obj
 0001:00001730       ?AssignNewEdgeCode@Adjacencies@physx@@AEAAXIE@Z 0000000180002730 f   Adjacencies.obj
 0001:000017d0       ??0AdjacenciesBuilder@physx@@QEAA@XZ 00000001800027d0 f   Adjacencies.obj
 0001:00001800       ??1AdjacenciesBuilder@physx@@QEAA@XZ 0000000180002800 f   Adjacencies.obj
 0001:00001820       ?Init@AdjacenciesBuilder@physx@@QEAA_NAEBUADJACENCIESCREATE@2@@Z 0000000180002820 f   Adjacencies.obj
 0001:00002b10       ??$?_UI@@YAPEAX_KV?$ReflectionAllocator@I@shdfnd@physx@@PEBDH@Z 0000000180003b10 f i Adjacencies.obj
 0001:00002b50       ??$?_UV?$ReflectionAllocator@VAdjEdge@@@shdfnd@physx@@@UserAllocated@shdfnd@physx@@SAPEAX_KV?$ReflectionAllocator@VAdjEdge@@@12@PEBDH@Z 0000000180003b50 f i Adjacencies.obj
 0001:00002b90       ??$?_UV?$ReflectionAllocator@VAdjTriangle@physx@@@shdfnd@physx@@@UserAllocated@shdfnd@physx@@SAPEAX_KV?$ReflectionAllocator@VAdjTriangle@physx@@@12@PEBDH@Z 0000000180003b90 f i Adjacencies.obj
 0001:00002bd0       ??$swap@I@shdfnd@physx@@YAXAEAI0@Z 0000000180003bd0 f i Adjacencies.obj
 0001:00002c10       ??0?$ReflectionAllocator@I@shdfnd@physx@@QEAA@PEBD@Z 0000000180003c10 f i Adjacencies.obj
 0001:00002c20       ??0?$ReflectionAllocator@VAdjEdge@@@shdfnd@physx@@QEAA@PEBD@Z 0000000180003c20 f i Adjacencies.obj
 0001:00002c30       ??0?$ReflectionAllocator@VAdjTriangle@physx@@@shdfnd@physx@@QEAA@PEBD@Z 0000000180003c30 f i Adjacencies.obj
 0001:00002c40       ??0?$TriangleT@I@Gu@physx@@QEAA@XZ 0000000180003c40 f i Adjacencies.obj
 0001:00002c50       ??0AdjEdge@@QEAA@XZ        0000000180003c50 f i Adjacencies.obj
 0001:00002c60       ??0AdjTriangle@physx@@QEAA@XZ 0000000180003c60 f i Adjacencies.obj
 0001:00002c70       ??0Allocator@shdfnd@physx@@QEAA@PEBD@Z 0000000180003c70 f i Adjacencies.obj
 0001:00002c80       ??0EDGELISTCREATE@Gu@physx@@QEAA@XZ 0000000180003c80 f i Adjacencies.obj
 0001:00002cf0       ??0NonTrackingAllocator@shdfnd@physx@@QEAA@PEBD@Z 0000000180003cf0 f i Adjacencies.obj
 0001:00002d00       ??0PxFoundation@physx@@QEAA@AEBV01@@Z 0000000180003d00 f i Adjacencies.obj
 0001:00002d20       ??0PxFoundation@physx@@QEAA@XZ 0000000180003d20 f i Adjacencies.obj
 0001:00002d40       ??1AdjEdge@@QEAA@XZ        0000000180003d40 f i Adjacencies.obj
 0001:00002d50       ??1AdjTriangle@physx@@QEAA@XZ 0000000180003d50 f i Adjacencies.obj
 0001:00002d60       ??1PxFoundation@physx@@MEAA@XZ 0000000180003d60 f i Adjacencies.obj
 0001:00002d80       ??3UserAllocated@shdfnd@physx@@SAXPEAX@Z 0000000180003d80 f i Adjacencies.obj
 0001:00002db0       ??4Allocator@shdfnd@physx@@QEAAAEAV012@$$QEAV012@@Z 0000000180003db0 f i Adjacencies.obj
 0001:00002dc0       ??4Allocator@shdfnd@physx@@QEAAAEAV012@AEBV012@@Z 0000000180003dc0 f i Adjacencies.obj
 0001:00002dd0       ??4MutexImpl@shdfnd@physx@@QEAAAEAV012@AEBV012@@Z 0000000180003dd0 f i Adjacencies.obj
 0001:00002de0       ??4PxFoundation@physx@@QEAAAEAV01@AEBV01@@Z 0000000180003de0 f i Adjacencies.obj
 0001:00002df0       ??_EAdjEdge@@QEAAPEAXI@Z   0000000180003df0 f i Adjacencies.obj
 0001:00002ed0       ??_EAdjTriangle@physx@@QEAAPEAXI@Z 0000000180003ed0 f i Adjacencies.obj
 0001:00002fb0       ??_EPxFoundation@physx@@MEAAPEAXI@Z 0000000180003fb0 f i Adjacencies.obj
 0001:00003050       ??_FAllocator@shdfnd@physx@@QEAAXXZ 0000000180004050 f i Adjacencies.obj
 0001:00003070       ??_FNamedAllocator@shdfnd@physx@@QEAAXXZ 0000000180004070 f i Adjacencies.obj
 0001:00003090       ??_GPxFoundation@physx@@MEAAPEAXI@Z 0000000180004090 f i Adjacencies.obj
 0001:000030d0       ??_H@YAXPEAX_K1P6APEAX0@Z@Z 00000001800040d0 f i Adjacencies.obj
 0001:00003150       ??_I@YAXPEAX_K1P6AX0@Z@Z   0000000180004150 f i Adjacencies.obj
 0001:000031e0       ??_VUserAllocated@shdfnd@physx@@SAXPEAX@Z 00000001800041e0 f i Adjacencies.obj
 0001:00003210       ?GetNbHits@RadixSort@Cm@physx@@QEBAIXZ 0000000180004210 f i Adjacencies.obj
 0001:00003220       ?GetNbTotalCalls@RadixSort@Cm@physx@@QEBAIXZ 0000000180004220 f i Adjacencies.obj
 0001:00003230       ?GetRanks@RadixSort@Cm@physx@@QEBAPEBIXZ 0000000180004230 f i Adjacencies.obj
 0001:00003240       ?GetRecyclable@RadixSort@Cm@physx@@QEBAPEAIXZ 0000000180004240 f i Adjacencies.obj
 0001:00003250       ?HasActiveEdge01@AdjTriangle@physx@@QEBAHXZ 0000000180004250 f i Adjacencies.obj
 0001:00003270       ?HasActiveEdge01@EdgeTriangleAC@Gu@physx@@SAHAEBUEdgeTriangleData@23@@Z 0000000180004270 f i Adjacencies.obj
 0001:00003290       ?HasActiveEdge12@AdjTriangle@physx@@QEBAHXZ 0000000180004290 f i Adjacencies.obj
 0001:000032b0       ?HasActiveEdge12@EdgeTriangleAC@Gu@physx@@SAHAEBUEdgeTriangleData@23@@Z 00000001800042b0 f i Adjacencies.obj
 0001:000032d0       ?HasActiveEdge20@AdjTriangle@physx@@QEBAHXZ 00000001800042d0 f i Adjacencies.obj
 0001:000032f0       ?HasActiveEdge20@EdgeTriangleAC@Gu@physx@@SAHAEBUEdgeTriangleData@23@@Z 00000001800042f0 f i Adjacencies.obj
 0001:00003310       ?PxMemZero@physx@@YAPEAXPEAXI@Z 0000000180004310 f i Adjacencies.obj
 0001:00003330       ?__empty_global_delete@@YAXPEAX@Z 0000000180004330 f i Adjacencies.obj
 0001:00003340       ?__empty_global_delete@@YAXPEAX_K@Z 0000000180004340 f i Adjacencies.obj
 0001:00003350       ?allocate@?$ReflectionAllocator@I@shdfnd@physx@@QEAAPEAX_KPEBDH@Z 0000000180004350 f i Adjacencies.obj
 0001:000033d0       ?allocate@?$ReflectionAllocator@VAdjEdge@@@shdfnd@physx@@QEAAPEAX_KPEBDH@Z 00000001800043d0 f i Adjacencies.obj
 0001:00003450       ?allocate@?$ReflectionAllocator@VAdjTriangle@physx@@@shdfnd@physx@@QEAAPEAX_KPEBDH@Z 0000000180004450 f i Adjacencies.obj
 0001:000034d0       ?deallocate@NonTrackingAllocator@shdfnd@physx@@QEAAXPEAX@Z 00000001800044d0 f i Adjacencies.obj
 0001:00003510       ?findEdge@?$TriangleT@I@Gu@physx@@QEBAEII@Z 0000000180004510 f i Adjacencies.obj
 0001:00003670       ?getAllocator@Foundation@shdfnd@physx@@QEAAAEAVPxAllocatorCallback@3@XZ 0000000180004670 f i Adjacencies.obj
 0001:00003680       ?getAllocatorCallback@Foundation@shdfnd@physx@@UEAAAEAVPxAllocatorCallback@3@XZ 0000000180004680 f i Adjacencies.obj
 0001:00003690       ?getEdgeTriangle@EdgeList@Gu@physx@@QEBAAEBUEdgeTriangleData@23@I@Z 0000000180004690 f i Adjacencies.obj
 0001:000036b0       ?getErrorCallback@Foundation@shdfnd@physx@@UEAAAEAVPxErrorCallback@3@XZ 00000001800046b0 f i Adjacencies.obj
 0001:000036c0       ?getErrorLevel@Foundation@shdfnd@physx@@UEBA?AW4Enum@PxErrorCode@3@XZ 00000001800046c0 f i Adjacencies.obj
 0001:000036e0       ?getFoundation@shdfnd@physx@@YAAEAVFoundation@12@XZ 00000001800046e0 f i Adjacencies.obj
 0001:000036f0       ?getInternalErrorCallback@Foundation@shdfnd@physx@@QEAAAEAVPxErrorCallback@3@XZ 00000001800046f0 f i Adjacencies.obj
 0001:00003710       ?getName@?$ReflectionAllocator@I@shdfnd@physx@@CAPEBDXZ 0000000180004710 f i Adjacencies.obj
 0001:00003750       ?getName@?$ReflectionAllocator@VAdjEdge@@@shdfnd@physx@@CAPEBDXZ 0000000180004750 f i Adjacencies.obj
 0001:00003790       ?getName@?$ReflectionAllocator@VAdjTriangle@physx@@@shdfnd@physx@@CAPEBDXZ 0000000180004790 f i Adjacencies.obj
 0001:000037d0       ?getNamedAllocMap@Foundation@shdfnd@physx@@QEAAAEAV?$HashMap@PEBVNamedAllocator@shdfnd@physx@@PEBDU?$Hash@PEBVNamedAllocator@shdfnd@physx@@@23@VNonTrackingAllocator@23@@23@XZ 00000001800047d0 f i Adjacencies.obj
 0001:000037f0       ?getNamedAllocMutex@Foundation@shdfnd@physx@@QEAAAEAV?$MutexT@VAllocator@shdfnd@physx@@@23@XZ 00000001800047f0 f i Adjacencies.obj
 0001:00003810       ?getReportAllocationNames@Foundation@shdfnd@physx@@UEBA_NXZ 0000000180004810 f i Adjacencies.obj
 0001:00003830       ?getTempAllocFreeTable@Foundation@shdfnd@physx@@QEAAAEAV?$Array@PEATTempAllocatorChunk@shdfnd@physx@@VAllocator@23@@23@XZ 0000000180004830 f i Adjacencies.obj
 0001:00003850       ?getTempAllocMutex@Foundation@shdfnd@physx@@QEAAAEAV?$MutexT@VAllocator@shdfnd@physx@@@23@XZ 0000000180004850 f i Adjacencies.obj
 0001:00003870       ?invalidateRanks@RadixSort@Cm@physx@@QEAAXXZ 0000000180004870 f i Adjacencies.obj
 0001:00003890       ?memZero@intrinsics@physx@@YAPEAXPEAXI@Z 0000000180004890 f i Adjacencies.obj
 0001:000038c0       ?name@type_info@@QEBAPEBDXZ 00000001800048c0 f i Adjacencies.obj
 0001:000038f0       ?setErrorLevel@Foundation@shdfnd@physx@@UEAAXW4Enum@PxErrorCode@3@@Z 00000001800048f0 f i Adjacencies.obj
 0001:00003910       ?setReportAllocationNames@Foundation@shdfnd@physx@@UEAAX_N@Z 0000000180004910 f i Adjacencies.obj
 0001:00003930       PxCreateCooking            0000000180004930 f   Cooking.obj
 0001:00003a20       ?release@Cooking@physx@@UEAAXXZ 0000000180004a20 f   Cooking.obj
 0001:00003a70       ?setParams@Cooking@physx@@UEAAXAEBUPxCookingParams@2@@Z 0000000180004a70 f   Cooking.obj
 0001:00003aa0       ?getParams@Cooking@physx@@UEBAAEBUPxCookingParams@2@XZ 0000000180004aa0 f   Cooking.obj
 0001:00003ac0       ?platformMismatch@Cooking@physx@@UEBA_NXZ 0000000180004ac0 f   Cooking.obj
 0001:00003b10       ?cookTriangleMesh@Cooking@physx@@UEBA_NAEBVPxTriangleMeshDesc@2@AEAVPxOutputStream@2@PEAW4Enum@PxTriangleMeshCookingResult@2@@Z 0000000180004b10 f   Cooking.obj
 0001:00003c20       ?createTriangleMesh@Cooking@physx@@UEBAPEAVPxTriangleMesh@2@AEBVPxTriangleMeshDesc@2@AEAVPxPhysicsInsertionCallback@2@PEAW4Enum@PxTriangleMeshCookingResult@2@@Z 0000000180004c20 f   Cooking.obj
 0001:00003d30       ?validateTriangleMesh@Cooking@physx@@UEBA_NAEBVPxTriangleMeshDesc@2@@Z 0000000180004d30 f   Cooking.obj
 0001:00003e00       ?cookConvexMesh@Cooking@physx@@UEBA_NAEBVPxConvexMeshDesc@2@AEAVPxOutputStream@2@PEAW4Enum@PxConvexMeshCookingResult@2@@Z 0000000180004e00 f   Cooking.obj
 0001:00004130       ?createConvexMesh@Cooking@physx@@UEBAPEAVPxConvexMesh@2@AEBVPxConvexMeshDesc@2@AEAVPxPhysicsInsertionCallback@2@PEAW4Enum@PxConvexMeshCookingResult@2@@Z 0000000180005130 f   Cooking.obj
 0001:000044b0       ?validateConvexMesh@Cooking@physx@@UEBA_NAEBVPxConvexMeshDesc@2@@Z 00000001800054b0 f   Cooking.obj
 0001:00004530       ?computeHullPolygons@Cooking@physx@@UEBA_NAEBVPxSimpleTriangleMesh@2@AEAVPxAllocatorCallback@2@AEAIAEAPEAVPxVec3@2@2AEAPEAI2AEAPEAUPxHullPolygon@2@@Z 0000000180005530 f   Cooking.obj
 0001:00004800       ?cookHeightField@Cooking@physx@@UEBA_NAEBVPxHeightFieldDesc@2@AEAVPxOutputStream@2@@Z 0000000180005800 f   Cooking.obj
 0001:00004960       ?createHeightField@Cooking@physx@@UEBAPEAVPxHeightField@2@AEBVPxHeightFieldDesc@2@AEAVPxPhysicsInsertionCallback@2@@Z 0000000180005960 f   Cooking.obj
 0001:00004c50       ?cookBVHStructure@Cooking@physx@@UEBA_NAEBVPxBVHStructureDesc@2@AEAVPxOutputStream@2@@Z 0000000180005c50 f   Cooking.obj
 0001:00004d70       ?createBVHStructure@Cooking@physx@@UEBAPEAVPxBVHStructure@2@AEBVPxBVHStructureDesc@2@AEAVPxPhysicsInsertionCallback@2@@Z 0000000180005d70 f   Cooking.obj
 0001:00004ea0       ?cookConvexMeshInternal@Cooking@physx@@AEBA_NAEBVPxConvexMeshDesc@2@AEAVConvexMeshBuilder@2@PEAVConvexHullLib@2@PEAW4Enum@PxConvexMeshCookingResult@2@@Z 0000000180005ea0 f   Cooking.obj
 0001:000051c0       ?cookTriangleMesh@Cooking@physx@@AEBA_NAEAVTriangleMeshBuilder@2@AEBVPxTriangleMeshDesc@2@AEAVPxOutputStream@2@PEAW4Enum@PxTriangleMeshCookingResult@2@@Z 00000001800061c0 f   Cooking.obj
 0001:000052a0       ?createTriangleMesh@Cooking@physx@@AEBAPEAVPxTriangleMesh@2@AEAVTriangleMeshBuilder@2@AEBVPxTriangleMeshDesc@2@AEAVPxPhysicsInsertionCallback@2@PEAW4Enum@PxTriangleMeshCookingResult@2@@Z 00000001800062a0 f   Cooking.obj
 0001:00005470       ??$?2V?$ReflectionAllocator@VCooking@physx@@@shdfnd@physx@@@UserAllocated@shdfnd@physx@@SAPEAX_KV?$ReflectionAllocator@VCooking@physx@@@12@PEBDH@Z 0000000180006470 f i Cooking.obj
 0001:000054b0       ??$?2V?$ReflectionAllocator@VQuickHullConvexHullLib@physx@@@shdfnd@physx@@@UserAllocated@shdfnd@physx@@SAPEAX_KV?$ReflectionAllocator@VQuickHullConvexHullLib@physx@@@12@PEBDH@Z 00000001800064b0 f i Cooking.obj
 0001:000054f0       ??$PX_UNUSED@VPxFoundation@physx@@@@YAXAEBVPxFoundation@physx@@@Z 00000001800064f0 f i Cooking.obj
 0001:00005500       ??$PX_UNUSED@W4PxIDENTITY@physx@@@@YAXAEBW4PxIDENTITY@physx@@@Z 0000000180006500 f i Cooking.obj
 0001:00005510       ??$PxMax@I@physx@@YAIII@Z  0000000180006510 f i Cooking.obj
 0001:00005540       ??$PxMin@G@physx@@YAGGG@Z  0000000180006540 f i Cooking.obj
 0001:00005580       ??0?$PxBitAndDataT@G$0IAAA@@physx@@QEAA@XZ 0000000180006580 f i Cooking.obj
 0001:000055a0       ??0?$PxFlags@W4Enum@PxBaseFlag@physx@@G@physx@@QEAA@AEBV01@@Z 00000001800065a0 f i Cooking.obj
 0001:000055c0       ??0?$PxFlags@W4Enum@PxConvexFlag@physx@@G@physx@@QEAA@AEBV01@@Z 00000001800065c0 f i Cooking.obj
 0001:000055e0       ??0?$PxFlags@W4Enum@PxConvexFlag@physx@@G@physx@@QEAA@W4Enum@PxConvexFlag@1@@Z 00000001800065e0 f i Cooking.obj
 0001:00005600       ??0?$PxFlags@W4Enum@PxConvexFlag@physx@@G@physx@@QEAA@XZ 0000000180006600 f i Cooking.obj
 0001:00005620       ??0?$PxFlags@W4Enum@PxHeightFieldFlag@physx@@G@physx@@QEAA@AEBV01@@Z 0000000180006620 f i Cooking.obj
 0001:00005640       ??0?$PxFlags@W4Enum@PxHeightFieldFlag@physx@@G@physx@@QEAA@W4PxEMPTY@1@@Z 0000000180006640 f i Cooking.obj
 0001:00005650       ??0?$PxFlags@W4Enum@PxHeightFieldFlag@physx@@G@physx@@QEAA@XZ 0000000180006650 f i Cooking.obj
 0001:00005670       ??0?$PxFlags@W4Enum@PxMeshFlag@physx@@G@physx@@QEAA@AEBV01@@Z 0000000180006670 f i Cooking.obj
 0001:00005690       ??0?$PxFlags@W4Enum@PxMeshPreprocessingFlag@physx@@I@physx@@QEAA@AEBV01@@Z 0000000180006690 f i Cooking.obj
 0001:000056b0       ??0?$ReflectionAllocator@VCooking@physx@@@shdfnd@physx@@QEAA@PEBD@Z 00000001800066b0 f i Cooking.obj
 0001:000056c0       ??0?$ReflectionAllocator@VHeightField@Gu@physx@@@shdfnd@physx@@QEAA@PEBD@Z 00000001800066c0 f i Cooking.obj
 0001:000056d0       ??0?$ReflectionAllocator@VQuickHullConvexHullLib@physx@@@shdfnd@physx@@QEAA@PEBD@Z 00000001800066d0 f i Cooking.obj
 0001:000056e0       ??0CenterExtents@Gu@physx@@QEAA@AEBV012@@Z 00000001800066e0 f i Cooking.obj
 0001:00005730       ??0CenterExtents@Gu@physx@@QEAA@XZ 0000000180006730 f i Cooking.obj
 0001:00005770       ??0ConvexHullData@Gu@physx@@QEAA@XZ 0000000180006770 f i Cooking.obj
 0001:000057c0       ??0ConvexHullInitData@Gu@physx@@QEAA@XZ 00000001800067c0 f i Cooking.obj
 0001:00005800       ??0Cooking@physx@@QEAA@AEBUPxCookingParams@1@@Z 0000000180006800 f i Cooking.obj
 0001:00005850       ??0DebugText@Cm@physx@@QEAA@$$QEAU012@@Z 0000000180006850 f i Cooking.obj
 0001:000058c0       ??0DebugText@Cm@physx@@QEAA@AEBU012@@Z 00000001800068c0 f i Cooking.obj
 0001:00005930       ??0HeightFieldData@Gu@physx@@QEAA@$$QEAU012@@Z 0000000180006930 f i Cooking.obj
 0001:00005a10       ??0HeightFieldData@Gu@physx@@QEAA@AEBU012@@Z 0000000180006a10 f i Cooking.obj
 0001:00005af0       ??0HeightFieldData@Gu@physx@@QEAA@W4PxEMPTY@2@@Z 0000000180006af0 f i Cooking.obj
 0001:00005b30       ??0HeightFieldData@Gu@physx@@QEAA@XZ 0000000180006b30 f i Cooking.obj
 0001:00005b70       ??0PxConvexMeshDesc@physx@@QEAA@AEBV01@@Z 0000000180006b70 f i Cooking.obj
 0001:00005c10       ??0PxCooking@physx@@QEAA@XZ 0000000180006c10 f i Cooking.obj
 0001:00005c30       ??0PxCookingParams@physx@@QEAA@AEBU01@@Z 0000000180006c30 f i Cooking.obj
 0001:00005d20       ??0PxDebugLine@physx@@QEAA@AEBU01@@Z 0000000180006d20 f i Cooking.obj
 0001:00005d90       ??0PxMat33@physx@@QEAA@XZ  0000000180006d90 f i Cooking.obj
 0001:00005de0       ??0PxMat44@physx@@QEAA@AEBV01@@Z 0000000180006de0 f i Cooking.obj
 0001:00005e60       ??0PxMat44@physx@@QEAA@W4PxIDENTITY@1@@Z 0000000180006e60 f i Cooking.obj
 0001:00005f20       ??0PxVec3@physx@@QEAA@AEBV01@@Z 0000000180006f20 f i Cooking.obj
 0001:00005f70       ??0PxVec3@physx@@QEAA@M@Z  0000000180006f70 f i Cooking.obj
 0001:00005fb0       ??0PxVec3@physx@@QEAA@MMM@Z 0000000180006fb0 f i Cooking.obj
 0001:00006000       ??0PxVec3@physx@@QEAA@XZ   0000000180007000 f i Cooking.obj
 0001:00006010       ??0PxVec4@physx@@QEAA@AEBV01@@Z 0000000180007010 f i Cooking.obj
 0001:00006070       ??0PxVec4@physx@@QEAA@MMMM@Z 0000000180007070 f i Cooking.obj
 0001:000060d0       ??0RenderOutput@Cm@physx@@QEAA@AEAVRenderBuffer@12@@Z 00000001800070d0 f i Cooking.obj
 0001:00006160       ??0RenderOutput@Cm@physx@@QEAA@AEBV012@@Z 0000000180007160 f i Cooking.obj
 0001:00006210       ??1CenterExtents@Gu@physx@@QEAA@XZ 0000000180007210 f i Cooking.obj
 0001:00006220       ??1ConvexHullData@Gu@physx@@QEAA@XZ 0000000180007220 f i Cooking.obj
 0001:00006240       ??1ConvexHullInitData@Gu@physx@@QEAA@XZ 0000000180007240 f i Cooking.obj
 0001:00006260       ??1Cooking@physx@@UEAA@XZ  0000000180007260 f i Cooking.obj
 0001:00006280       ??1HeightFieldData@Gu@physx@@QEAA@XZ 0000000180007280 f i Cooking.obj
 0001:000062a0       ??1PxBase@physx@@MEAA@XZ   00000001800072a0 f i Cooking.obj
 0001:000062c0       ??1PxConvexMesh@physx@@MEAA@XZ 00000001800072c0 f i Cooking.obj
 0001:000062f0       ??1PxCooking@physx@@MEAA@XZ 00000001800072f0 f i Cooking.obj
 0001:00006310       ??1PxHeightField@physx@@MEAA@XZ 0000000180007310 f i Cooking.obj
 0001:00006340       ??2@YAPEAX_KPEAX@Z         0000000180007340 f i Cooking.obj
 0001:00006350       ??2UserAllocated@shdfnd@physx@@SAPEAX_KPEAX@Z 0000000180007350 f i Cooking.obj
 0001:00006360       ??4?$PxFlags@W4Enum@PxHeightFieldFlag@physx@@G@physx@@QEAAAEAV01@AEBV01@@Z 0000000180007360 f i Cooking.obj
 0001:00006380       ??4?$PxFlags@W4Enum@PxMeshPreprocessingFlag@physx@@I@physx@@QEAAAEAV01@AEBV01@@Z 0000000180007380 f i Cooking.obj
 0001:000063a0       ??4CenterExtents@Gu@physx@@QEAAAEAV012@AEBV012@@Z 00000001800073a0 f i Cooking.obj
 0001:000063f0       ??4DebugText@Cm@physx@@QEAAAEAU012@$$QEAU012@@Z 00000001800073f0 f i Cooking.obj
 0001:00006490       ??4DebugText@Cm@physx@@QEAAAEAU012@AEBU012@@Z 0000000180007490 f i Cooking.obj
 0001:00006530       ??4FPUGuard@shdfnd@physx@@QEAAAEAV012@AEBV012@@Z 0000000180007530 f i Cooking.obj
 0001:00006560       ??4HeightFieldData@Gu@physx@@QEAAAEAU012@$$QEAU012@@Z 0000000180007560 f i Cooking.obj
 0001:00006640       ??4HeightFieldData@Gu@physx@@QEAAAEAU012@AEBU012@@Z 0000000180007640 f i Cooking.obj
 0001:00006720       ??4PxCookingParams@physx@@QEAAAEAU01@AEBU01@@Z 0000000180007720 f i Cooking.obj
 0001:00006810       ??4PxVec3@physx@@QEAAAEAV01@AEBV01@@Z 0000000180007810 f i Cooking.obj
 0001:00006860       ??9?$PxFlags@W4Enum@PxHeightFieldFlag@physx@@G@physx@@QEBA_NAEBV01@@Z 0000000180007860 f i Cooking.obj
 0001:000068a0       ??B?$PxBitAndDataT@E$0IA@@physx@@QEBAEXZ 00000001800078a0 f i Cooking.obj
 0001:000068c0       ??B?$PxBitAndDataT@G$0IAAA@@physx@@QEBAGXZ 00000001800078c0 f i Cooking.obj
 0001:000068e0       ??B?$PxFlags@W4Enum@PxBaseFlag@physx@@G@physx@@QEBA_NXZ 00000001800078e0 f i Cooking.obj
 0001:00006910       ??B?$PxFlags@W4Enum@PxConvexFlag@physx@@G@physx@@QEBA_NXZ 0000000180007910 f i Cooking.obj
 0001:00006940       ??B?$PxFlags@W4Enum@PxMeshFlag@physx@@G@physx@@QEBA_NXZ 0000000180007940 f i Cooking.obj
 0001:00006970       ??B?$PxFlags@W4Enum@PxMeshPreprocessingFlag@physx@@I@physx@@QEBA_NXZ 0000000180007970 f i Cooking.obj
 0001:000069a0       ??I?$PxFlags@W4Enum@PxBaseFlag@physx@@G@physx@@QEBA?AV01@W4Enum@PxBaseFlag@1@@Z 00000001800079a0 f i Cooking.obj
 0001:000069f0       ??I?$PxFlags@W4Enum@PxConvexFlag@physx@@G@physx@@QEBA?AV01@W4Enum@PxConvexFlag@1@@Z 00000001800079f0 f i Cooking.obj
 0001:00006a40       ??I?$PxFlags@W4Enum@PxHeightFieldFlag@physx@@G@physx@@QEBA?AV01@W4Enum@PxHeightFieldFlag@1@@Z 0000000180007a40 f i Cooking.obj
 0001:00006a90       ??I?$PxFlags@W4Enum@PxMeshFlag@physx@@G@physx@@QEBA?AV01@W4Enum@PxMeshFlag@1@@Z 0000000180007a90 f i Cooking.obj
 0001:00006ae0       ??I?$PxFlags@W4Enum@PxMeshPreprocessingFlag@physx@@I@physx@@QEBA?AV01@W4Enum@PxMeshPreprocessingFlag@1@@Z 0000000180007ae0 f i Cooking.obj
 0001:00006b30       ??S?$PxFlags@W4Enum@PxConvexFlag@physx@@G@physx@@QEBA?AV01@XZ 0000000180007b30 f i Cooking.obj
 0001:00006b70       ??Sphysx@@YA?AV?$PxFlags@W4Enum@PxConvexFlag@physx@@G@0@W4Enum@PxConvexFlag@0@@Z 0000000180007b70 f i Cooking.obj
 0001:00006bb0       ??_4?$PxFlags@W4Enum@PxConvexFlag@physx@@G@physx@@QEAAAEAV01@AEBV01@@Z 0000000180007bb0 f i Cooking.obj
 0001:00006be0       ??_EPxConvexMesh@physx@@MEAAPEAXI@Z 0000000180007be0 f i Cooking.obj
 0001:00006c80       ??_EPxHeightField@physx@@MEAAPEAXI@Z 0000000180007c80 f i Cooking.obj
 0001:00006d20       ??_GCooking@physx@@UEAAPEAXI@Z 0000000180007d20 f i Cooking.obj
 0001:00006d20       ??_ECooking@physx@@UEAAPEAXI@Z 0000000180007d20 f i Cooking.obj
 0001:00006d80       ??_EPxBase@physx@@MEAAPEAXI@Z 0000000180007d80 f i Cooking.obj
 0001:00006d80       ??_GPxBase@physx@@MEAAPEAXI@Z 0000000180007d80 f i Cooking.obj
 0001:00006dc0       ??_GPxCooking@physx@@MEAAPEAXI@Z 0000000180007dc0 f i Cooking.obj
 0001:00006dc0       ??_EPxCooking@physx@@MEAAPEAXI@Z 0000000180007dc0 f i Cooking.obj
 0001:00006e00       ?FLoad@aos@shdfnd@physx@@YA?AT__m128@@M@Z 0000000180007e00 f i Cooking.obj
 0001:00006e30       ?PxMemCopy@physx@@YAPEAXPEAXPEBXI@Z 0000000180007e30 f i Cooking.obj
 0001:00006e60       ?V3Load@aos@shdfnd@physx@@YA?AT__m128@@M@Z 0000000180007e60 f i Cooking.obj
 0001:00006ea0       ?V4Load@aos@shdfnd@physx@@YA?AT__m128@@M@Z 0000000180007ea0 f i Cooking.obj
 0001:00006ed0       ?allocate@?$Array@UPxDebugLine@physx@@VNamedAllocator@shdfnd@2@@shdfnd@physx@@IEAAPEAUPxDebugLine@3@I@Z 0000000180007ed0 f i Cooking.obj
 0001:00006f60       ?allocate@?$ReflectionAllocator@VCooking@physx@@@shdfnd@physx@@QEAAPEAX_KPEBDH@Z 0000000180007f60 f i Cooking.obj
 0001:00006fe0       ?allocate@?$ReflectionAllocator@VHeightField@Gu@physx@@@shdfnd@physx@@QEAAPEAX_KPEBDH@Z 0000000180007fe0 f i Cooking.obj
 0001:00007060       ?allocate@?$ReflectionAllocator@VQuickHullConvexHullLib@physx@@@shdfnd@physx@@QEAAPEAX_KPEBDH@Z 0000000180008060 f i Cooking.obj
 0001:000070e0       ?capacity@?$Array@UPxDebugLine@physx@@VNamedAllocator@shdfnd@2@@shdfnd@physx@@QEBAIXZ 00000001800080e0 f i Cooking.obj
 0001:00007100       ?copy@?$Array@UPxDebugLine@physx@@VNamedAllocator@shdfnd@2@@shdfnd@physx@@KAXPEAUPxDebugLine@3@0PEBU43@@Z 0000000180008100 f i Cooking.obj
 0001:00007180       ?deallocate@?$Array@UPxDebugLine@physx@@VNamedAllocator@shdfnd@2@@shdfnd@physx@@IEAAXPEAX@Z 0000000180008180 f i Cooking.obj
 0001:000071b0       ?destroy@?$Array@UPxDebugLine@physx@@VNamedAllocator@shdfnd@2@@shdfnd@physx@@KAXPEAUPxDebugLine@3@0@Z 00000001800081b0 f i Cooking.obj
 0001:000071e0       ?end@?$Array@UPxDebugLine@physx@@VNamedAllocator@shdfnd@2@@shdfnd@physx@@QEAAPEAUPxDebugLine@3@XZ 00000001800081e0 f i Cooking.obj
 0001:00007200       ?forceSize_Unsafe@?$Array@UPxDebugLine@physx@@VNamedAllocator@shdfnd@2@@shdfnd@physx@@QEAAXI@Z 0000000180008200 f i Cooking.obj
 0001:00007280       ?fsel@intrinsics@physx@@YAMMMM@Z 0000000180008280 f i Cooking.obj
 0001:000072d0       ?gatherStrided@Cooking@physx@@SAXPEBXPEAXIII@Z 00000001800082d0 f i Cooking.obj
 0001:00007360       ?getConcreteTypeName@PxConvexMesh@physx@@UEBAPEBDXZ 0000000180008360 f i Cooking.obj
 0001:00007370       ?getConcreteTypeName@PxHeightField@physx@@UEBAPEBDXZ 0000000180008370 f i Cooking.obj
 0001:00007380       ?getConvexEdgeThreshold@HeightField@Gu@physx@@UEBAMXZ 0000000180008380 f i Cooking.obj
 0001:00007390       ?getFlags@HeightField@Gu@physx@@UEBA?AV?$PxFlags@W4Enum@PxHeightFieldFlag@physx@@G@3@XZ 0000000180008390 f i Cooking.obj
 0001:000073c0       ?getFormat@HeightField@Gu@physx@@UEBA?AW4Enum@PxHeightFieldFormat@3@XZ 00000001800083c0 f i Cooking.obj
 0001:000073d0       ?getHeight@HeightField@Gu@physx@@QEBAMI@Z 00000001800083d0 f i Cooking.obj
 0001:00007400       ?getHeight@HeightField@Gu@physx@@UEBAMMM@Z 0000000180008400 f i Cooking.obj
 0001:00007430       ?getHeightInternal2@HeightField@Gu@physx@@QEBAMIMM@Z 0000000180008430 f i Cooking.obj
 0001:000076a0       ?getHeightInternal@HeightField@Gu@physx@@QEBAMMM@Z 00000001800086a0 f i Cooking.obj
 0001:00007700       ?getHullVertices@ConvexHullData@Gu@physx@@QEBAPEBVPxVec3@3@XZ 0000000180008700 f i Cooking.obj
 0001:00007740       ?getIndexBuffer@ConvexMesh@Gu@physx@@UEBAPEBEXZ 0000000180008740 f i Cooking.obj
 0001:00007760       ?getMaterialIndex0@HeightField@Gu@physx@@QEBAGI@Z 0000000180008760 f i Cooking.obj
 0001:00007790       ?getMaterialIndex1@HeightField@Gu@physx@@QEBAGI@Z 0000000180008790 f i Cooking.obj
 0001:000077c0       ?getMeshData@TriangleMeshBuilder@physx@@QEAAAEAVTriangleMeshData@Gu@2@XZ 00000001800087c0 f i Cooking.obj
 0001:000077d0       ?getName@?$ReflectionAllocator@VCooking@physx@@@shdfnd@physx@@CAPEBDXZ 00000001800087d0 f i Cooking.obj
 0001:00007810       ?getName@?$ReflectionAllocator@VHeightField@Gu@physx@@@shdfnd@physx@@CAPEBDXZ 0000000180008810 f i Cooking.obj
 0001:00007850       ?getName@?$ReflectionAllocator@VQuickHullConvexHullLib@physx@@@shdfnd@physx@@CAPEBDXZ 0000000180008850 f i Cooking.obj
 0001:00007890       ?getNbColumns@HeightField@Gu@physx@@UEBAIXZ 0000000180008890 f i Cooking.obj
 0001:000078a0       ?getNbColumnsFast@HeightField@Gu@physx@@QEBAIXZ 00000001800088a0 f i Cooking.obj
 0001:000078b0       ?getNbPolygons@ConvexMesh@Gu@physx@@UEBAIXZ 00000001800088b0 f i Cooking.obj
 0001:000078c0       ?getNbRows@HeightField@Gu@physx@@UEBAIXZ 00000001800088c0 f i Cooking.obj
 0001:000078d0       ?getNbVertices@ConvexMesh@Gu@physx@@UEBAIXZ 00000001800088d0 f i Cooking.obj
 0001:000078e0       ?getPaddedBounds@HeightFieldData@Gu@physx@@QEBAAEBVCenterExtentsPadded@23@XZ 00000001800088e0 f i Cooking.obj
 0001:000078f0       ?getSample@HeightField@Gu@physx@@QEBAAEBUPxHeightFieldSample@3@I@Z 00000001800088f0 f i Cooking.obj
 0001:00007970       ?getSample@HeightField@Gu@physx@@UEBAAEBUPxHeightFieldSample@3@II@Z 0000000180008970 f i Cooking.obj
 0001:000079b0       ?getSampleStride@HeightField@Gu@physx@@UEBAIXZ 00000001800089b0 f i Cooking.obj
 0001:000079c0       ?getTimestamp@HeightField@Gu@physx@@UEBAIXZ 00000001800089c0 f i Cooking.obj
 0001:000079d0       ?getTriangleMaterial@HeightField@Gu@physx@@QEBAGI@Z 00000001800089d0 f i Cooking.obj
 0001:00007a30       ?getTriangleMaterialIndex@HeightField@Gu@physx@@UEBAGI@Z 0000000180008a30 f i Cooking.obj
 0001:00007a50       ?getTriangleNormal@HeightField@Gu@physx@@UEBA?AVPxVec3@3@I@Z 0000000180008a50 f i Cooking.obj
 0001:00007a90       ?getTriangleNormalInternal@HeightField@Gu@physx@@QEBA?AVPxVec3@3@I@Z 0000000180008a90 f i Cooking.obj
 0001:00007cf0       ?getTriangleVertexIndices@HeightField@Gu@physx@@QEBAXIAEAI00@Z 0000000180008cf0 f i Cooking.obj
 0001:00007e40       ?getType@PxMidphaseDesc@physx@@QEBA?AW4Enum@PxMeshMidPhase@2@XZ 0000000180008e40 f i Cooking.obj
 0001:00007e50       ?getVertexData8@ConvexHullData@Gu@physx@@QEBAPEBEXZ 0000000180008e50 f i Cooking.obj
 0001:00007f30       ?getVertices@ConvexMesh@Gu@physx@@UEBAPEBVPxVec3@3@XZ 0000000180008f30 f i Cooking.obj
 0001:00007f50       ?grow@?$Array@UPxDebugLine@physx@@VNamedAllocator@shdfnd@2@@shdfnd@physx@@IEAAXI@Z 0000000180008f50 f i Cooking.obj
 0001:00007fd0       ?isBitSet@?$PxBitAndDataT@E$0IA@@physx@@QEBAEXZ 0000000180008fd0 f i Cooking.obj
 0001:00007ff0       ?isBitSet@?$PxBitAndDataT@G$0IAAA@@physx@@QEBAGXZ 0000000180008ff0 f i Cooking.obj
 0001:00008010       ?isFirstTriangle@HeightField@Gu@physx@@QEBA_NI@Z 0000000180009010 f i Cooking.obj
 0001:00008050       ?isInUserMemory@?$Array@UPxDebugLine@physx@@VNamedAllocator@shdfnd@2@@shdfnd@physx@@QEBAIXZ 0000000180009050 f i Cooking.obj
 0001:00008070       ?isKindOf@PxBase@physx@@MEBA_NPEBD@Z 0000000180009070 f i Cooking.obj
 0001:000080b0       ?isKindOf@PxConvexMesh@physx@@MEBA_NPEBD@Z 00000001800090b0 f i Cooking.obj
 0001:00008110       ?isKindOf@PxHeightField@physx@@MEBA_NPEBD@Z 0000000180009110 f i Cooking.obj
 0001:00008170       ?isReleasable@PxBase@physx@@UEBA_NXZ 0000000180009170 f i Cooking.obj
 0001:000081b0       ?isValid@PxBVHStructureDesc@physx@@QEBA_NXZ 00000001800091b0 f i Cooking.obj
 0001:000081f0       ?isValid@PxConvexMeshDesc@physx@@QEBA_NXZ 00000001800091f0 f i Cooking.obj
 0001:00008400       ?isValid@PxHeightFieldDesc@physx@@QEBA_NXZ 0000000180009400 f i Cooking.obj
 0001:000084b0       ?isValid@PxSimpleTriangleMesh@physx@@QEBA_NXZ 00000001800094b0 f i Cooking.obj
 0001:00008590       ?isValid@PxTriangleMeshDesc@physx@@QEBA_NXZ 0000000180009590 f i Cooking.obj
 0001:00008600       ?isValidVertex@HeightField@Gu@physx@@QEBA_NI@Z 0000000180009600 f i Cooking.obj
 0001:00008640       ?isZerothVertexShared@HeightField@Gu@physx@@QEBA_NI@Z 0000000180009640 f i Cooking.obj
 0001:00008690       ?littleEndian@shdfnd@physx@@YADXZ 0000000180009690 f i Cooking.obj
 0001:000086b0       ?markSerializedMem@Cm@physx@@YAXPEAXI@Z 00000001800096b0 f i Cooking.obj
 0001:000086f0       ?memCopy@intrinsics@physx@@YAPEAXPEAXPEBXI@Z 00000001800096f0 f i Cooking.obj
 0001:00008720       ?outputSegment@RenderOutput@Cm@physx@@QEAAXAEBVPxVec3@3@0@Z 0000000180009720 f i Cooking.obj
 0001:000087a0       ?preExportDataReset@ConvexMesh@Gu@physx@@QEAAXXZ 00000001800097a0 f i Cooking.obj
 0001:000087c0       ?preExportDataReset@HeightField@Gu@physx@@QEAAXXZ 00000001800097c0 f i Cooking.obj
 0001:000087e0       ?preExportDataReset@RefCountable@Cm@physx@@QEAAXXZ 00000001800097e0 f i Cooking.obj
 0001:00008800       ?recreate@?$Array@UPxDebugLine@physx@@VNamedAllocator@shdfnd@2@@shdfnd@physx@@IEAAXI@Z 0000000180009800 f i Cooking.obj
 0001:00008920       ?reserve@?$Array@UPxDebugLine@physx@@VNamedAllocator@shdfnd@2@@shdfnd@physx@@QEAAXI@Z 0000000180009920 f i Cooking.obj
 0001:00008950       ?reserveSegments@RenderOutput@Cm@physx@@QEAAPEAUPxDebugLine@3@I@Z 0000000180009950 f i Cooking.obj
 0001:00008980       ?size@?$Array@UPxDebugLine@physx@@VNamedAllocator@shdfnd@2@@shdfnd@physx@@QEBAIXZ 0000000180009980 f i Cooking.obj
 0001:00008990       ?tessFlag@PxHeightFieldSample@physx@@QEBAEXZ 0000000180009990 f i Cooking.obj
 0001:000089d0       ??0ReducedVertexCloud@physx@@QEAA@PEBVPxVec3@1@I@Z 00000001800099d0 f   CookingUtils.obj
 0001:00008a30       ??1ReducedVertexCloud@physx@@QEAA@XZ 0000000180009a30 f   CookingUtils.obj
 0001:00008a50       ?Clean@ReducedVertexCloud@physx@@QEAAAEAV12@XZ 0000000180009a50 f   CookingUtils.obj
 0001:00008ac0       ?Reduce@ReducedVertexCloud@physx@@QEAA_NPEAUREDUCEDCLOUD@2@@Z 0000000180009ac0 f   CookingUtils.obj
 0001:00008fc0       ??$?_UM@@YAPEAX_KV?$ReflectionAllocator@M@shdfnd@physx@@PEBDH@Z 0000000180009fc0 f i CookingUtils.obj
 0001:00009000       ??0?$ReflectionAllocator@M@shdfnd@physx@@QEAA@PEBD@Z 000000018000a000 f i CookingUtils.obj
 0001:00009010       ?allocate@?$ReflectionAllocator@M@shdfnd@physx@@QEAAPEAX_KPEBDH@Z 000000018000a010 f i CookingUtils.obj
 0001:00009090       ?getName@?$ReflectionAllocator@M@shdfnd@physx@@CAPEBDXZ 000000018000a090 f i CookingUtils.obj
 0001:000090d0       ??0EdgeList@Gu@physx@@QEAA@XZ 000000018000a0d0 f   EdgeList.obj
 0001:00009120       ??1EdgeList@Gu@physx@@QEAA@XZ 000000018000a120 f   EdgeList.obj
 0001:000091e0       ?load@EdgeList@Gu@physx@@QEAA_NAEAVPxInputStream@3@@Z 000000018000a1e0 f   EdgeList.obj
 0001:00009510       ??0EdgeListBuilder@Gu@physx@@QEAA@XZ 000000018000a510 f   EdgeList.obj
 0001:00009540       ??1EdgeListBuilder@Gu@physx@@QEAA@XZ 000000018000a540 f   EdgeList.obj
 0001:00009560       ?init@EdgeListBuilder@Gu@physx@@QEAA_NAEBUEDGELISTCREATE@23@@Z 000000018000a560 f   EdgeList.obj
 0001:00009740       ?createFacesToEdges@EdgeListBuilder@Gu@physx@@AEAA_NIPEBIPEBG@Z 000000018000a740 f   EdgeList.obj
 0001:00009f10       ?createEdgesToFaces@EdgeListBuilder@Gu@physx@@AEAA_NIPEBIPEBG@Z 000000018000af10 f   EdgeList.obj
 0001:0000a4b0       ?computeActiveEdges@EdgeListBuilder@Gu@physx@@AEAA_NIPEBIPEBGPEBVPxVec3@3@M@Z 000000018000b4b0 f   EdgeList.obj
 0001:0000bfa0       ??$?_UUEdgeData@Gu@physx@@@@YAPEAX_KV?$ReflectionAllocator@UEdgeData@Gu@physx@@@shdfnd@physx@@PEBDH@Z 000000018000cfa0 f i EdgeList.obj
 0001:0000bfe0       ??$?_UUEdgeTriangleData@Gu@physx@@@@YAPEAX_KV?$ReflectionAllocator@UEdgeTriangleData@Gu@physx@@@shdfnd@physx@@PEBDH@Z 000000018000cfe0 f i EdgeList.obj
 0001:0000c020       ??0?$ReflectionAllocator@UEdgeData@Gu@physx@@@shdfnd@physx@@QEAA@PEBD@Z 000000018000d020 f i EdgeList.obj
 0001:0000c030       ??0?$ReflectionAllocator@UEdgeTriangleData@Gu@physx@@@shdfnd@physx@@QEAA@PEBD@Z 000000018000d030 f i EdgeList.obj
 0001:0000c040       ??0PxPlane@physx@@QEAA@AEBVPxVec3@1@00@Z 000000018000d040 f i EdgeList.obj
 0001:0000c100       ??0PxTriangle@physx@@QEAA@AEBVPxVec3@1@00@Z 000000018000d100 f i EdgeList.obj
 0001:0000c1b0       ??1PxTriangle@physx@@QEAA@XZ 000000018000d1b0 f i EdgeList.obj
 0001:0000c1c0       ??DPxVec3@physx@@QEBA?AV01@M@Z 000000018000d1c0 f i EdgeList.obj
 0001:0000c230       ??GPxVec3@physx@@QEBA?AV01@AEBV01@@Z 000000018000d230 f i EdgeList.obj
 0001:0000c2b0       ??_0PxVec3@physx@@QEAAAEAV01@M@Z 000000018000d2b0 f i EdgeList.obj
 0001:0000c330       ?PxAtan2@physx@@YAMMM@Z    000000018000d330 f i EdgeList.obj
 0001:0000c360       ?PxRecipSqrt@physx@@YAMM@Z 000000018000d360 f i EdgeList.obj
 0001:0000c380       ?PxSqrt@physx@@YAMM@Z      000000018000d380 f i EdgeList.obj
 0001:0000c3a0       ?allocate@?$ReflectionAllocator@UEdgeData@Gu@physx@@@shdfnd@physx@@QEAAPEAX_KPEBDH@Z 000000018000d3a0 f i EdgeList.obj
 0001:0000c420       ?allocate@?$ReflectionAllocator@UEdgeTriangleData@Gu@physx@@@shdfnd@physx@@QEAAPEAX_KPEBDH@Z 000000018000d420 f i EdgeList.obj
 0001:0000c4a0       ?angle@shdfnd@physx@@YAMAEBVPxVec3@2@0@Z 000000018000d4a0 f i EdgeList.obj
 0001:0000c500       ?cross@PxVec3@physx@@QEBA?AV12@AEBV12@@Z 000000018000d500 f i EdgeList.obj
 0001:0000c5c0       ?distance@PxPlane@physx@@QEBAMAEBVPxVec3@2@@Z 000000018000d5c0 f i EdgeList.obj
 0001:0000c5f0       ?dot@PxVec3@physx@@QEBAMAEBV12@@Z 000000018000d5f0 f i EdgeList.obj
 0001:0000c640       ?getEdgeToTriangles@EdgeList@Gu@physx@@QEBAPEBUEdgeDescData@23@XZ 000000018000d640 f i EdgeList.obj
 0001:0000c650       ?getEdges@EdgeList@Gu@physx@@QEBAPEBUEdgeData@23@XZ 000000018000d650 f i EdgeList.obj
 0001:0000c660       ?getFacesByEdges@EdgeList@Gu@physx@@QEBAPEBIXZ 000000018000d660 f i EdgeList.obj
 0001:0000c670       ?getName@?$ReflectionAllocator@UEdgeData@Gu@physx@@@shdfnd@physx@@CAPEBDXZ 000000018000d670 f i EdgeList.obj
 0001:0000c6b0       ?getName@?$ReflectionAllocator@UEdgeTriangleData@Gu@physx@@@shdfnd@physx@@CAPEBDXZ 000000018000d6b0 f i EdgeList.obj
 0001:0000c6f0       ?getNbEdges@EdgeList@Gu@physx@@QEBAIXZ 000000018000d6f0 f i EdgeList.obj
 0001:0000c700       ?getNormalized@PxVec3@physx@@QEBA?AV12@XZ 000000018000d700 f i EdgeList.obj
 0001:0000c790       ?magnitude@PxVec3@physx@@QEBAMXZ 000000018000d790 f i EdgeList.obj
 0001:0000c7b0       ?magnitudeSquared@PxVec3@physx@@QEBAMXZ 000000018000d7b0 f i EdgeList.obj
 0001:0000c800       ?normal@PxTriangle@physx@@QEBAXAEAVPxVec3@2@@Z 000000018000d800 f i EdgeList.obj
 0001:0000c8c0       ?normalize@PxVec3@physx@@QEAAMXZ 000000018000d8c0 f i EdgeList.obj
 0001:0000c910       ?recipSqrt@intrinsics@physx@@YAMM@Z 000000018000d910 f i EdgeList.obj
 0001:0000c940       ?sqrt@intrinsics@physx@@YAMM@Z 000000018000d940 f i EdgeList.obj
 0001:0000c960       fabsf                      000000018000d960 f i EdgeList.obj
 0001:0000c980       ??0MeshCleaner@physx@@QEAA@IPEBVPxVec3@1@IPEBIM@Z 000000018000d980 f   MeshCleaner.obj
 0001:0000d650       ??1MeshCleaner@physx@@QEAA@XZ 000000018000e650 f   MeshCleaner.obj
 0001:0000d960       ??9Indices@@QEBA_NAEBU0@@Z 000000018000e960 f i MeshCleaner.obj
 0001:0000da00       ??9PxVec3@physx@@QEBA_NAEBV01@@Z 000000018000ea00 f i MeshCleaner.obj
 0001:0000da70       ?PxFloor@physx@@YAMM@Z     000000018000ea70 f i MeshCleaner.obj
 0001:0000da90       ?nextPowerOfTwo@shdfnd@physx@@YAII@Z 000000018000ea90 f i MeshCleaner.obj
 0001:0000db00       ?createQuantizer@physx@@YAPEAVQuantizer@1@XZ 000000018000eb00 f   Quantizer.obj
 0001:0000db80       ?kmeans_cluster3d@@YAIPEBVPxVec3@physx@@IIPEAV12@PEAIMM@Z 000000018000eb80 f   Quantizer.obj
 0001:0000dbe0       ??$?2V?$ReflectionAllocator@VQuantizerImpl@@@shdfnd@physx@@@UserAllocated@shdfnd@physx@@SAPEAX_KV?$ReflectionAllocator@VQuantizerImpl@@@12@PEBDH@Z 000000018000ebe0 f i Quantizer.obj
 0001:0000dc20       ??$PX_UNUSED@W4PxZERO@physx@@@@YAXAEBW4PxZERO@physx@@@Z 000000018000ec20 f i Quantizer.obj
 0001:0000dc30       ??$PxMax@M@physx@@YAMMM@Z  000000018000ec30 f i Quantizer.obj
 0001:0000dc60       ??$PxMin@M@physx@@YAMMM@Z  000000018000ec60 f i Quantizer.obj
 0001:0000dc90       ??$kmeans_cluster@VPxVec3@physx@@M@@YAIPEBVPxVec3@physx@@IIPEAV01@PEAIMM@Z 000000018000ec90 f i Quantizer.obj
 0001:0000e3f0       ??0?$Array@VPxVec3@physx@@VNamedAllocator@shdfnd@2@@shdfnd@physx@@QEAA@AEBVNamedAllocator@12@@Z 000000018000f3f0 f i Quantizer.obj
 0001:0000e440       ??0?$ReflectionAllocator@VQuantizerImpl@@@shdfnd@physx@@QEAA@PEBD@Z 000000018000f440 f i Quantizer.obj
 0001:0000e450       ??0PxBounds3@physx@@QEAA@XZ 000000018000f450 f i Quantizer.obj
 0001:0000e490       ??0PxVec3@physx@@QEAA@W4PxZERO@1@@Z 000000018000f490 f i Quantizer.obj
 0001:0000e4e0       ??0Quantizer@physx@@QEAA@XZ 000000018000f4e0 f i Quantizer.obj
 0001:0000e500       ??0QuantizerImpl@@QEAA@XZ  000000018000f500 f i Quantizer.obj
 0001:0000e600       ??1?$Array@VPxVec3@physx@@VNamedAllocator@shdfnd@2@@shdfnd@physx@@QEAA@XZ 000000018000f600 f i Quantizer.obj
 0001:0000e670       ??1Quantizer@physx@@MEAA@XZ 000000018000f670 f i Quantizer.obj
 0001:0000e690       ??1QuantizerImpl@@EEAA@XZ  000000018000f690 f i Quantizer.obj
 0001:0000e6e0       ??A?$Array@VPxVec3@physx@@VNamedAllocator@shdfnd@2@@shdfnd@physx@@QEAAAEAVPxVec3@2@I@Z 000000018000f6e0 f i Quantizer.obj
 0001:0000e760       ??APxVec3@physx@@QEAAAEAMI@Z 000000018000f760 f i Quantizer.obj
 0001:0000e7b0       ??HPxVec3@physx@@QEBA?AV01@AEBV01@@Z 000000018000f7b0 f i Quantizer.obj
 0001:0000e830       ??XPxVec3@physx@@QEAAAEAV01@M@Z 000000018000f830 f i Quantizer.obj
 0001:0000e890       ??YPxVec3@physx@@QEAAAEAV01@AEBV01@@Z 000000018000f890 f i Quantizer.obj
 0001:0000e900       ??_EQuantizer@physx@@MEAAPEAXI@Z 000000018000f900 f i Quantizer.obj
 0001:0000e900       ??_GQuantizer@physx@@MEAAPEAXI@Z 000000018000f900 f i Quantizer.obj
 0001:0000e940       ??_EQuantizerImpl@@EEAAPEAXI@Z 000000018000f940 f i Quantizer.obj
 0001:0000e940       ??_GQuantizerImpl@@EEAAPEAXI@Z 000000018000f940 f i Quantizer.obj
 0001:0000e9a0       ?PxAbs@physx@@YAMM@Z       000000018000f9a0 f i Quantizer.obj
 0001:0000e9c0       ?PxIsFinite@physx@@YA_NM@Z 000000018000f9c0 f i Quantizer.obj
 0001:0000e9e0       ?abs@intrinsics@physx@@YAMM@Z 000000018000f9e0 f i Quantizer.obj
 0001:0000ea00       ?allocate@?$Array@VPxVec3@physx@@VNamedAllocator@shdfnd@2@@shdfnd@physx@@IEAAPEAVPxVec3@3@I@Z 000000018000fa00 f i Quantizer.obj
 0001:0000ea90       ?allocate@?$ReflectionAllocator@VQuantizerImpl@@@shdfnd@physx@@QEAAPEAX_KPEBDH@Z 000000018000fa90 f i Quantizer.obj
 0001:0000eb10       ?capacity@?$Array@VPxVec3@physx@@VNamedAllocator@shdfnd@2@@shdfnd@physx@@QEBAIXZ 000000018000fb10 f i Quantizer.obj
 0001:0000eb30       ?capacityIncrement@?$Array@VPxVec3@physx@@VNamedAllocator@shdfnd@2@@shdfnd@physx@@IEBAIXZ 000000018000fb30 f i Quantizer.obj
 0001:0000eb70       ?clear@?$Array@VPxVec3@physx@@VNamedAllocator@shdfnd@2@@shdfnd@physx@@QEAAXXZ 000000018000fb70 f i Quantizer.obj
 0001:0000ebb0       ?copy@?$Array@VPxVec3@physx@@VNamedAllocator@shdfnd@2@@shdfnd@physx@@KAXPEAVPxVec3@3@0PEBV43@@Z 000000018000fbb0 f i Quantizer.obj
 0001:0000ec30       ?deallocate@?$Array@VPxVec3@physx@@VNamedAllocator@shdfnd@2@@shdfnd@physx@@IEAAXPEAX@Z 000000018000fc30 f i Quantizer.obj
 0001:0000ec60       ?destroy@?$Array@VPxVec3@physx@@VNamedAllocator@shdfnd@2@@shdfnd@physx@@KAXPEAVPxVec3@3@0@Z 000000018000fc60 f i Quantizer.obj
 0001:0000ec90       ?getCenter@PxBounds3@physx@@QEBA?AVPxVec3@2@XZ 000000018000fc90 f i Quantizer.obj
 0001:0000ed10       ?getDenormalizeCenter@QuantizerImpl@@UEBAAEBVPxVec3@physx@@XZ 000000018000fd10 f i Quantizer.obj
 0001:0000ed20       ?getDenormalizeScale@QuantizerImpl@@UEBAAEBVPxVec3@physx@@XZ 000000018000fd20 f i Quantizer.obj
 0001:0000ed30       ?getDimensions@PxBounds3@physx@@QEBA?AVPxVec3@2@XZ 000000018000fd30 f i Quantizer.obj
 0001:0000ed90       ?getName@?$ReflectionAllocator@VQuantizerImpl@@@shdfnd@physx@@CAPEBDXZ 000000018000fd90 f i Quantizer.obj
 0001:0000edd0       ?growAndPushBack@?$Array@VPxVec3@physx@@VNamedAllocator@shdfnd@2@@shdfnd@physx@@IEAAAEAVPxVec3@3@AEBV43@@Z 000000018000fdd0 f i Quantizer.obj
 0001:0000ef60       ?include@PxBounds3@physx@@QEAAXAEBVPxVec3@2@@Z 000000018000ff60 f i Quantizer.obj
 0001:0000eff0       ?isFinite@PxBounds3@physx@@QEBA_NXZ 000000018000fff0 f i Quantizer.obj
 0001:0000f050       ?isFinite@PxVec3@physx@@QEBA_NXZ 0000000180010050 f i Quantizer.obj
 0001:0000f0c0       ?isFinite@intrinsics@physx@@YA_NM@Z 00000001800100c0 f i Quantizer.obj
 0001:0000f100       ?isInUserMemory@?$Array@VPxVec3@physx@@VNamedAllocator@shdfnd@2@@shdfnd@physx@@QEBAIXZ 0000000180010100 f i Quantizer.obj
 0001:0000f120       ?isValid@PxBounds3@physx@@QEBA_NXZ 0000000180010120 f i Quantizer.obj
 0001:0000f210       ?kmeansQuantize3D@QuantizerImpl@@UEAAPEBVPxVec3@physx@@IPEBV23@I_NIAEAI@Z 0000000180010210 f i Quantizer.obj
 0001:0000f540       ?maximum@PxVec3@physx@@QEBA?AV12@AEBV12@@Z 0000000180010540 f i Quantizer.obj
 0001:0000f5e0       ?minimum@PxVec3@physx@@QEBA?AV12@AEBV12@@Z 00000001800105e0 f i Quantizer.obj
 0001:0000f680       ?multiply@PxVec3@physx@@QEBA?AV12@AEBV12@@Z 0000000180010680 f i Quantizer.obj
 0001:0000f700       ?normalizeInput@QuantizerImpl@@AEAAXIPEBVPxVec3@physx@@I@Z 0000000180010700 f i Quantizer.obj
 0001:0000f9a0       ?pushBack@?$Array@VPxVec3@physx@@VNamedAllocator@shdfnd@2@@shdfnd@physx@@QEAAAEAVPxVec3@3@AEBV43@@Z 00000001800109a0 f i Quantizer.obj
 0001:0000fa40       ?release@QuantizerImpl@@UEAAXXZ 0000000180010a40 f i Quantizer.obj
 0001:0000fa90       ?selectMax@intrinsics@physx@@YAMMM@Z 0000000180010a90 f i Quantizer.obj
 0001:0000fad0       ?selectMin@intrinsics@physx@@YAMMM@Z 0000000180010ad0 f i Quantizer.obj
 0001:0000fb10       ?setEmpty@PxBounds3@physx@@QEAAXXZ 0000000180010b10 f i Quantizer.obj
 0001:0000fb60       ??0BVHStructureBuilder@physx@@QEAA@XZ 0000000180010b60 f   BVHStructureBuilder.obj
 0001:0000fbb0       ??1BVHStructureBuilder@physx@@QEAA@XZ 0000000180010bb0 f   BVHStructureBuilder.obj
 0001:0000fc40       ?loadFromDesc@BVHStructureBuilder@physx@@QEAA_NAEBVPxBVHStructureDesc@2@@Z 0000000180010c40 f   BVHStructureBuilder.obj
 0001:0000ff80       ?save@BVHStructureBuilder@physx@@QEBA_NAEAVPxOutputStream@2@_N@Z 0000000180010f80 f   BVHStructureBuilder.obj
 0001:00010180       ?moveData@BVHStructureBuilder@physx@@QEAAXAEAUBVHStructureData@Gu@2@@Z 0000000180011180 f   BVHStructureBuilder.obj
 0001:00010230       ?flatten@@YAXAEBVNodeAllocator@Gu@physx@@PEAUBVHNode@23@@Z 0000000180011230 f   BVHStructureBuilder.obj
 0001:000105d0       ??$?4VNamedAllocator@shdfnd@physx@@@?$Array@USlab@NodeAllocator@Gu@physx@@VNamedAllocator@shdfnd@4@@shdfnd@physx@@QEAAAEAV012@AEBV012@@Z 00000001800115d0 f i BVHStructureBuilder.obj
 0001:00010660       ??$PX_UNUSED@_N@@YAXAEB_N@Z 0000000180011660 f i BVHStructureBuilder.obj
 0001:00010670       ??$copy@VNamedAllocator@shdfnd@physx@@@?$Array@USlab@NodeAllocator@Gu@physx@@VNamedAllocator@shdfnd@4@@shdfnd@physx@@IEAAXAEBV012@@Z 0000000180011670 f i BVHStructureBuilder.obj
 0001:00010730       ??0?$Array@USlab@NodeAllocator@Gu@physx@@VNamedAllocator@shdfnd@4@@shdfnd@physx@@QEAA@AEBV012@AEBVNamedAllocator@12@@Z 0000000180011730 f i BVHStructureBuilder.obj
 0001:00010770       ??0AABBTreeBuildNode@Gu@physx@@QEAA@AEBV012@@Z 0000000180011770 f i BVHStructureBuilder.obj
 0001:000107d0       ??0AABBTreeBuildNode@Gu@physx@@QEAA@XZ 00000001800117d0 f i BVHStructureBuilder.obj
 0001:000107f0       ??0AABBTreeBuildParams@Gu@physx@@QEAA@IIPEBVPxBounds3@2@@Z 00000001800117f0 f i BVHStructureBuilder.obj
 0001:00010840       ??0BuildStats@Gu@physx@@QEAA@XZ 0000000180011840 f i BVHStructureBuilder.obj
 0001:00010870       ??0NodeAllocator@Gu@physx@@QEAA@AEBV012@@Z 0000000180011870 f i BVHStructureBuilder.obj
 0001:00010900       ??0PxBounds3@physx@@QEAA@AEBV01@@Z 0000000180011900 f i BVHStructureBuilder.obj
 0001:00010950       ??0PxVec4@physx@@QEAA@XZ   0000000180011950 f i BVHStructureBuilder.obj
 0001:00010960       ??1AABBTreeBuildNode@Gu@physx@@QEAA@XZ 0000000180011960 f i BVHStructureBuilder.obj
 0001:00010970       ??1AABBTreeBuildParams@Gu@physx@@QEAA@XZ 0000000180011970 f i BVHStructureBuilder.obj
 0001:00010990       ??4?$Array@USlab@NodeAllocator@Gu@physx@@VNamedAllocator@shdfnd@4@@shdfnd@physx@@QEAAAEAV012@AEBV012@@Z 0000000180011990 f i BVHStructureBuilder.obj
 0001:000109c0       ??4AABBTreeBuildNode@Gu@physx@@QEAAAEAV012@AEBV012@@Z 00000001800119c0 f i BVHStructureBuilder.obj
 0001:00010a20       ??4AABBTreeBuildParams@Gu@physx@@QEAAAEAV012@AEBV012@@Z 0000000180011a20 f i BVHStructureBuilder.obj
 0001:00010a50       ??4BuildStats@Gu@physx@@QEAAAEAU012@$$QEAU012@@Z 0000000180011a50 f i BVHStructureBuilder.obj
 0001:00010a80       ??4BuildStats@Gu@physx@@QEAAAEAU012@AEBU012@@Z 0000000180011a80 f i BVHStructureBuilder.obj
 0001:00010aa0       ??4NodeAllocator@Gu@physx@@QEAAAEAV012@AEBV012@@Z 0000000180011aa0 f i BVHStructureBuilder.obj
 0001:00010b10       ??4PxBounds3@physx@@QEAAAEAV01@AEBV01@@Z 0000000180011b10 f i BVHStructureBuilder.obj
 0001:00010b60       ??A?$Array@USlab@NodeAllocator@Gu@physx@@VNamedAllocator@shdfnd@4@@shdfnd@physx@@QEBAAEBUSlab@NodeAllocator@Gu@2@I@Z 0000000180011b60 f i BVHStructureBuilder.obj
 0001:00010be0       ??_FAABBTreeBuildParams@Gu@physx@@QEAAXXZ 0000000180011be0 f i BVHStructureBuilder.obj
 0001:00010c10       ?V4Add@aos@shdfnd@physx@@YA?AT__m128@@T4@0@Z 0000000180011c10 f i BVHStructureBuilder.obj
 0001:00010c40       ?V4LoadU@aos@shdfnd@physx@@YA?AT__m128@@QEBM@Z 0000000180011c40 f i BVHStructureBuilder.obj
 0001:00010c60       ?V4Scale@aos@shdfnd@physx@@YA?AT__m128@@T4@0@Z 0000000180011c60 f i BVHStructureBuilder.obj
 0001:00010c90       ?V4StoreA@aos@shdfnd@physx@@YAXT__m128@@PEAM@Z 0000000180011c90 f i BVHStructureBuilder.obj
 0001:00010d10       ?V4StoreU@aos@shdfnd@physx@@YAXT__m128@@PEAM@Z 0000000180011d10 f i BVHStructureBuilder.obj
 0001:00010d30       ?V4Sub@aos@shdfnd@physx@@YA?AT__m128@@T4@0@Z 0000000180011d30 f i BVHStructureBuilder.obj
 0001:00010d60       ?__global_array_delete@@YAXPEAX@Z 0000000180011d60 f i BVHStructureBuilder.obj
 0001:00010d80       ?__global_array_delete@@YAXPEAX_K@Z 0000000180011d80 f i BVHStructureBuilder.obj
 0001:00010db0       ?__global_delete@@YAXPEAX@Z 0000000180011db0 f i BVHStructureBuilder.obj
 0001:00010dd0       ?__global_delete@@YAXPEAX_K@Z 0000000180011dd0 f i BVHStructureBuilder.obj
 0001:00010e00       ?allocate@?$Array@USlab@NodeAllocator@Gu@physx@@VNamedAllocator@shdfnd@4@@shdfnd@physx@@IEAAPEAUSlab@NodeAllocator@Gu@3@I@Z 0000000180011e00 f i BVHStructureBuilder.obj
 0001:00010e90       ?begin@?$Array@USlab@NodeAllocator@Gu@physx@@VNamedAllocator@shdfnd@4@@shdfnd@physx@@QEBAPEBUSlab@NodeAllocator@Gu@3@XZ 0000000180011e90 f i BVHStructureBuilder.obj
 0001:00010ea0       ?capacity@?$Array@USlab@NodeAllocator@Gu@physx@@VNamedAllocator@shdfnd@4@@shdfnd@physx@@QEBAIXZ 0000000180011ea0 f i BVHStructureBuilder.obj
 0001:00010ec0       ?clear@?$Array@USlab@NodeAllocator@Gu@physx@@VNamedAllocator@shdfnd@4@@shdfnd@physx@@QEAAXXZ 0000000180011ec0 f i BVHStructureBuilder.obj
 0001:00010f00       ?copy@?$Array@USlab@NodeAllocator@Gu@physx@@VNamedAllocator@shdfnd@4@@shdfnd@physx@@KAXPEAUSlab@NodeAllocator@Gu@3@0PEBU4563@@Z 0000000180011f00 f i BVHStructureBuilder.obj
 0001:00010f80       ?deallocate@?$Array@USlab@NodeAllocator@Gu@physx@@VNamedAllocator@shdfnd@4@@shdfnd@physx@@IEAAXPEAX@Z 0000000180011f80 f i BVHStructureBuilder.obj
 0001:00010fb0       ?destroy@?$Array@USlab@NodeAllocator@Gu@physx@@VNamedAllocator@shdfnd@4@@shdfnd@physx@@KAXPEAUSlab@NodeAllocator@Gu@3@0@Z 0000000180011fb0 f i BVHStructureBuilder.obj
 0001:00010fe0       ?empty@?$Array@USlab@NodeAllocator@Gu@physx@@VNamedAllocator@shdfnd@4@@shdfnd@physx@@QEBA_NXZ 0000000180011fe0 f i BVHStructureBuilder.obj
 0001:00011010       ?getAABB@AABBTreeBuildNode@Gu@physx@@QEBAAEBVPxBounds3@3@XZ 0000000180012010 f i BVHStructureBuilder.obj
 0001:00011020       ?getCount@BuildStats@Gu@physx@@QEBAIXZ 0000000180012020 f i BVHStructureBuilder.obj
 0001:00011030       ?getNbPrimitives@AABBTreeBuildNode@Gu@physx@@QEBAIXZ 0000000180012030 f i BVHStructureBuilder.obj
 0001:00011040       ?getNbRuntimePrimitives@AABBTreeBuildNode@Gu@physx@@QEBAIXZ 0000000180012040 f i BVHStructureBuilder.obj
 0001:00011050       ?getNeg@AABBTreeBuildNode@Gu@physx@@QEBAPEBV123@XZ 0000000180012050 f i BVHStructureBuilder.obj
 0001:00011090       ?getPos@AABBTreeBuildNode@Gu@physx@@QEBAPEBV123@XZ 0000000180012090 f i BVHStructureBuilder.obj
 0001:000110a0       ?getPrimitives@AABBTreeBuildNode@Gu@physx@@QEAAPEAIPEAI@Z 00000001800120a0 f i BVHStructureBuilder.obj
 0001:000110c0       ?getPrimitives@AABBTreeBuildNode@Gu@physx@@QEBAPEBIPEBI@Z 00000001800120c0 f i BVHStructureBuilder.obj
 0001:000110e0       ?grow@?$Array@USlab@NodeAllocator@Gu@physx@@VNamedAllocator@shdfnd@4@@shdfnd@physx@@IEAAXI@Z 00000001800120e0 f i BVHStructureBuilder.obj
 0001:00011160       ?increaseCount@BuildStats@Gu@physx@@QEAAXI@Z 0000000180012160 f i BVHStructureBuilder.obj
 0001:00011180       ?inflateBounds@@YAXAEAVPxBounds3@physx@@AEBV12@@Z 0000000180012180 f i BVHStructureBuilder.obj
 0001:00011370       ?isAligned16@aos@shdfnd@physx@@YA_NPEAX@Z 0000000180012370 f i BVHStructureBuilder.obj
 0001:000113a0       ?isInUserMemory@?$Array@USlab@NodeAllocator@Gu@physx@@VNamedAllocator@shdfnd@4@@shdfnd@physx@@QEBAIXZ 00000001800123a0 f i BVHStructureBuilder.obj
 0001:000113c0       ?isLeaf@AABBTreeBuildNode@Gu@physx@@QEBA_NXZ 00000001800123c0 f i BVHStructureBuilder.obj
 0001:00011400       ?recreate@?$Array@USlab@NodeAllocator@Gu@physx@@VNamedAllocator@shdfnd@4@@shdfnd@physx@@IEAAXI@Z 0000000180012400 f i BVHStructureBuilder.obj
 0001:00011520       ?reserve@?$Array@USlab@NodeAllocator@Gu@physx@@VNamedAllocator@shdfnd@4@@shdfnd@physx@@QEAAXI@Z 0000000180012520 f i BVHStructureBuilder.obj
 0001:00011550       ?reset@AABBTreeBuildParams@Gu@physx@@QEAAXXZ 0000000180012550 f i BVHStructureBuilder.obj
 0001:000115b0       ?reset@BuildStats@Gu@physx@@QEAAXXZ 00000001800125b0 f i BVHStructureBuilder.obj
 0001:000115d0       ?setCount@BuildStats@Gu@physx@@QEAAXI@Z 00000001800125d0 f i BVHStructureBuilder.obj
 0001:000115f0       ?setNbRunTimePrimitives@AABBTreeBuildNode@Gu@physx@@QEAAXI@Z 00000001800125f0 f i BVHStructureBuilder.obj
 0001:00011610       ?size@?$Array@USlab@NodeAllocator@Gu@physx@@VNamedAllocator@shdfnd@4@@shdfnd@physx@@QEBAIXZ 0000000180012610 f i BVHStructureBuilder.obj
 0001:00011620       ?saveHeightField@physx@@YA_NAEBVHeightField@Gu@1@AEAVPxOutputStream@1@_N@Z 0000000180012620 f   HeightFieldCooking.obj
 0001:000119d0       ??APxVec3@physx@@QEBAAEBMI@Z 00000001800129d0 f i HeightFieldCooking.obj
 0001:00011a20       ??B?$PxFlags@W4Enum@PxHeightFieldFlag@physx@@G@physx@@QEBAGXZ 0000000180012a20 f i HeightFieldCooking.obj
 0001:00011a30       ?getData@HeightField@Gu@physx@@QEBAAEBUHeightFieldData@23@XZ 0000000180012a30 f i HeightFieldCooking.obj
 0001:00011a40       ?getMax@CenterExtents@Gu@physx@@QEBAMI@Z 0000000180012a40 f i HeightFieldCooking.obj
 0001:00011a90       ?getMin@CenterExtents@Gu@physx@@QEBAMI@Z 0000000180012a90 f i HeightFieldCooking.obj
 0001:00011ae0       ?buildFromTriangles@RTreeCooker@physx@@SAXAEAURTree@Gu@2@PEBVPxVec3@2@IPEBGPEBIIAEAV?$Array@IVNamedAllocator@shdfnd@physx@@@shdfnd@2@PEAURemapCallback@12@MW4Enum@PxMeshCookingHint@2@@Z 0000000180012ae0 f   RTreeCooking.obj
 0001:00013320       ??$PX_UNUSED@I@@YAXAEBI@Z  0000000180014320 f i RTreeCooking.obj
 0001:00013330       ??$PX_UNUSED@M@@YAXAEBM@Z  0000000180014330 f i RTreeCooking.obj
 0001:00013340       ??$PX_UNUSED@PEAURTreeNodeNQ@physx@@@@YAXAEBQEAURTreeNodeNQ@physx@@@Z 0000000180014340 f i RTreeCooking.obj
 0001:00013350       ??$PX_UNUSED@URTreeNodeNQ@physx@@@@YAXAEBURTreeNodeNQ@physx@@@Z 0000000180014350 f i RTreeCooking.obj
 0001:00013360       ??$PxMax@H@physx@@YAHHH@Z  0000000180014360 f i RTreeCooking.obj
 0001:00013390       ??$PxMin@I@physx@@YAIII@Z  0000000180014390 f i RTreeCooking.obj
 0001:000133c0       ??$median3@I$$CBU?$Less@I@shdfnd@physx@@@internal@shdfnd@physx@@YAXPEAIHHAEBU?$Less@I@12@@Z 00000001800143c0 f i RTreeCooking.obj
 0001:00013520       ??$median3@I$$CBUSortBoundsPredicate@physx@@@internal@shdfnd@physx@@YAXPEAIHHAEBUSortBoundsPredicate@2@@Z 0000000180014520 f i RTreeCooking.obj
 0001:00013680       ??$partition@I$$CBU?$Less@I@shdfnd@physx@@@internal@shdfnd@physx@@YAHPEAIHHAEBU?$Less@I@12@@Z 0000000180014680 f i RTreeCooking.obj
 0001:00013870       ??$partition@I$$CBUSortBoundsPredicate@physx@@@internal@shdfnd@physx@@YAHPEAIHHAEBUSortBoundsPredicate@2@@Z 0000000180014870 f i RTreeCooking.obj
 0001:00013a60       ??$partition@UBoundsLTE@physx@@@quickSelect@physx@@YAIPEIAIIIIAEBUBoundsLTE@1@@Z 0000000180014a60 f i RTreeCooking.obj
 0001:00013db0       ??$quickSelectFirstK@UBoundsLTE@physx@@@quickSelect@physx@@YAXPEIAIIIIAEBUBoundsLTE@1@@Z 0000000180014db0 f i RTreeCooking.obj
 0001:00013f10       ??$smallSort@I$$CBU?$Less@I@shdfnd@physx@@@internal@shdfnd@physx@@YAXPEAIHHAEBU?$Less@I@12@@Z 0000000180014f10 f i RTreeCooking.obj
 0001:00013ff0       ??$smallSort@I$$CBUSortBoundsPredicate@physx@@@internal@shdfnd@physx@@YAXPEAIHHAEBUSortBoundsPredicate@2@@Z 0000000180014ff0 f i RTreeCooking.obj
 0001:000140d0       ??$sort@I@shdfnd@physx@@YAXPEAII@Z 00000001800150d0 f i RTreeCooking.obj
 0001:00014120       ??$sort@IU?$Less@I@shdfnd@physx@@VNamedAllocator@23@@shdfnd@physx@@YAXPEAIIAEBU?$Less@I@01@AEBVNamedAllocator@01@I@Z 0000000180015120 f i RTreeCooking.obj
 0001:00014410       ??$sort@IUSortBoundsPredicate@physx@@@shdfnd@physx@@YAXPEAIIAEBUSortBoundsPredicate@1@@Z 0000000180015410 f i RTreeCooking.obj
 0001:00014460       ??$sort@IUSortBoundsPredicate@physx@@VNamedAllocator@shdfnd@2@@shdfnd@physx@@YAXPEAIIAEBUSortBoundsPredicate@1@AEBVNamedAllocator@01@I@Z 0000000180015460 f i RTreeCooking.obj
 0001:00014750       ??0?$AlignedAllocator@$0IA@VNonTrackingAllocator@shdfnd@physx@@@shdfnd@physx@@QEAA@AEBVNonTrackingAllocator@12@@Z 0000000180015750 f i RTreeCooking.obj
 0001:00014760       ??0?$Array@IVNamedAllocator@shdfnd@physx@@@shdfnd@physx@@QEAA@IAEBIAEBVNamedAllocator@12@@Z 0000000180015760 f i RTreeCooking.obj
 0001:000147d0       ??0?$Array@UInterval@physx@@V?$InlineAllocator@$0CAAA@VNamedAllocator@shdfnd@physx@@@shdfnd@2@@shdfnd@physx@@QEAA@AEBV?$InlineAllocator@$0CAAA@VNamedAllocator@shdfnd@physx@@@12@@Z 00000001800157d0 f i RTreeCooking.obj
 0001:00014830       ??0?$Array@UPxBounds3V@physx@@VNamedAllocator@shdfnd@2@@shdfnd@physx@@QEAA@AEBVNamedAllocator@12@@Z 0000000180015830 f i RTreeCooking.obj
 0001:00014880       ??0?$Array@URTreeNodeNQ@physx@@VNamedAllocator@shdfnd@2@@shdfnd@physx@@QEAA@AEBVNamedAllocator@12@@Z 0000000180015880 f i RTreeCooking.obj
 0001:000148d0       ??0?$Array@URTreeNodeQ@Gu@physx@@VNamedAllocator@shdfnd@3@@shdfnd@physx@@QEAA@AEBVNamedAllocator@12@@Z 00000001800158d0 f i RTreeCooking.obj
 0001:00014920       ??0?$InlineAllocator@$0CAAA@VNamedAllocator@shdfnd@physx@@@shdfnd@physx@@QEAA@AEBV012@@Z 0000000180015920 f i RTreeCooking.obj
 0001:00014960       ??0?$InlineAllocator@$0CAAA@VNamedAllocator@shdfnd@physx@@@shdfnd@physx@@QEAA@AEBVNamedAllocator@12@@Z 0000000180015960 f i RTreeCooking.obj
 0001:000149a0       ??0?$InlineArray@UInterval@physx@@$0EAA@VNamedAllocator@shdfnd@2@@shdfnd@physx@@QEAA@AEBVNamedAllocator@12@@Z 00000001800159a0 f i RTreeCooking.obj
 0001:00014a30       ??0?$ScopedPointer@HVTempAllocator@shdfnd@physx@@@shdfnd@physx@@QEAA@XZ 0000000180015a30 f i RTreeCooking.obj
 0001:00014a50       ??0?$Stack@VNamedAllocator@shdfnd@physx@@@internal@shdfnd@physx@@QEAA@PEAHIAEBVNamedAllocator@23@@Z 0000000180015a50 f i RTreeCooking.obj
 0001:00014ac0       ??0BoundsLTE@physx@@QEAA@IPEBVPxVec3@1@@Z 0000000180015ac0 f i RTreeCooking.obj
 0001:00014af0       ??0Interval@physx@@QEAA@II@Z 0000000180015af0 f i RTreeCooking.obj
 0001:00014b20       ??0PxBounds3@physx@@QEAA@AEBVPxVec3@1@0@Z 0000000180015b20 f i RTreeCooking.obj
 0001:00014b70       ??0PxBounds3V@physx@@QEAA@AEAT__m128@@0@Z 0000000180015b70 f i RTreeCooking.obj
 0001:00014bb0       ??0PxBounds3V@physx@@QEAA@UU@01@@Z 0000000180015bb0 f i RTreeCooking.obj
 0001:00014bc0       ??0PxVec4@physx@@QEAA@AEBVPxVec3@1@M@Z 0000000180015bc0 f i RTreeCooking.obj
 0001:00014c20       ??0PxVec4@physx@@QEAA@M@Z  0000000180015c20 f i RTreeCooking.obj
 0001:00014c70       ??0RTreeNodeNQ@physx@@QEAA@AEBU01@@Z 0000000180015c70 f i RTreeCooking.obj
 0001:00014cc0       ??0RTreeNodeNQ@physx@@QEAA@XZ 0000000180015cc0 f i RTreeCooking.obj
 0001:00014d00       ??0SortBoundsPredicate@physx@@QEAA@IPEBUPxBounds3V@1@@Z 0000000180015d00 f i RTreeCooking.obj
 0001:00014d30       ??0SubSortQuick@physx@@QEAA@PEAIPEBUPxBounds3V@1@IM@Z 0000000180015d30 f i RTreeCooking.obj
 0001:00014ea0       ??0SubSortSAH@physx@@QEAA@PEAIPEBUPxBounds3V@1@IPEBI22222M@Z 0000000180015ea0 f i RTreeCooking.obj
 0001:000150c0       ??0TempAllocator@shdfnd@physx@@QEAA@PEBD@Z 00000001800160c0 f i RTreeCooking.obj
 0001:000150d0       ??1?$Array@IVNamedAllocator@shdfnd@physx@@@shdfnd@physx@@QEAA@XZ 00000001800160d0 f i RTreeCooking.obj
 0001:00015140       ??1?$Array@UInterval@physx@@V?$InlineAllocator@$0CAAA@VNamedAllocator@shdfnd@physx@@@shdfnd@2@@shdfnd@physx@@QEAA@XZ 0000000180016140 f i RTreeCooking.obj
 0001:000151c0       ??1?$Array@UPxBounds3V@physx@@VNamedAllocator@shdfnd@2@@shdfnd@physx@@QEAA@XZ 00000001800161c0 f i RTreeCooking.obj
 0001:00015230       ??1?$Array@URTreeNodeNQ@physx@@VNamedAllocator@shdfnd@2@@shdfnd@physx@@QEAA@XZ 0000000180016230 f i RTreeCooking.obj
 0001:000152a0       ??1?$Array@URTreeNodeQ@Gu@physx@@VNamedAllocator@shdfnd@3@@shdfnd@physx@@QEAA@XZ 00000001800162a0 f i RTreeCooking.obj
 0001:00015310       ??1?$InlineAllocator@$0CAAA@VNamedAllocator@shdfnd@physx@@@shdfnd@physx@@QEAA@XZ 0000000180016310 f i RTreeCooking.obj
 0001:00015330       ??1?$InlineArray@UInterval@physx@@$0EAA@VNamedAllocator@shdfnd@2@@shdfnd@physx@@QEAA@XZ 0000000180016330 f i RTreeCooking.obj
 0001:00015350       ??1?$ScopedPointer@HVTempAllocator@shdfnd@physx@@@shdfnd@physx@@QEAA@XZ 0000000180016350 f i RTreeCooking.obj
 0001:00015380       ??1?$Stack@VNamedAllocator@shdfnd@physx@@@internal@shdfnd@physx@@QEAA@XZ 0000000180016380 f i RTreeCooking.obj
 0001:000153c0       ??1SubSortQuick@physx@@QEAA@XZ 00000001800163c0 f i RTreeCooking.obj
 0001:000153e0       ??1SubSortSAH@physx@@QEAA@XZ 00000001800163e0 f i RTreeCooking.obj
 0001:000154a0       ??4PxVec4@physx@@QEAAAEAV01@AEBV01@@Z 00000001800164a0 f i RTreeCooking.obj
 0001:00015500       ??A?$Array@IVNamedAllocator@shdfnd@physx@@@shdfnd@physx@@QEAAAEAII@Z 0000000180016500 f i RTreeCooking.obj
 0001:00015580       ??A?$Array@UInterval@physx@@V?$InlineAllocator@$0CAAA@VNamedAllocator@shdfnd@physx@@@shdfnd@2@@shdfnd@physx@@QEAAAEAUInterval@2@I@Z 0000000180016580 f i RTreeCooking.obj
 0001:00015600       ??A?$Array@URTreeNodeNQ@physx@@VNamedAllocator@shdfnd@2@@shdfnd@physx@@QEAAAEAURTreeNodeNQ@2@I@Z 0000000180016600 f i RTreeCooking.obj
 0001:00015680       ??A?$Array@URTreeNodeQ@Gu@physx@@VNamedAllocator@shdfnd@3@@shdfnd@physx@@QEAAAEAURTreeNodeQ@Gu@2@I@Z 0000000180016680 f i RTreeCooking.obj
 0001:00015700       ??B?$ScopedPointer@HVTempAllocator@shdfnd@physx@@@shdfnd@physx@@QEBAPEAHXZ 0000000180016700 f i RTreeCooking.obj
 0001:00015710       ??GPxVec4@physx@@QEBA?AV01@AEBV01@@Z 0000000180016710 f i RTreeCooking.obj
 0001:000157a0       ??KPxVec4@physx@@QEBA?AV01@M@Z 00000001800167a0 f i RTreeCooking.obj
 0001:00015840       ??R?$Less@I@shdfnd@physx@@QEBA_NAEBI0@Z 0000000180016840 f i RTreeCooking.obj
 0001:00015880       ??RBoundsLTE@physx@@QEBA_NAEBI0@Z 0000000180016880 f i RTreeCooking.obj
 0001:00015920       ??RSortBoundsPredicate@physx@@QEBA_NAEBI0@Z 0000000180016920 f i RTreeCooking.obj
 0001:00015a50       ?FMax@aos@shdfnd@physx@@YA?AT__m128@@XZ 0000000180016a50 f i RTreeCooking.obj
 0001:00015a70       ?FNegMax@aos@shdfnd@physx@@YA?AT__m128@@XZ 0000000180016a70 f i RTreeCooking.obj
 0001:00015a90       ?FStore@aos@shdfnd@physx@@YAXT__m128@@PEIAM@Z 0000000180016a90 f i RTreeCooking.obj
 0001:00015b20       ?PxAbs@physx@@YAHH@Z       0000000180016b20 f i RTreeCooking.obj
 0001:00015b40       ?V3Add@aos@shdfnd@physx@@YA?AT__m128@@T4@0@Z 0000000180016b40 f i RTreeCooking.obj
 0001:00015c50       ?V3Dot@aos@shdfnd@physx@@YA?AT__m128@@T4@0@Z 0000000180016c50 f i RTreeCooking.obj
 0001:00015df0       ?V3LoadU@aos@shdfnd@physx@@YA?AT__m128@@AEBVPxVec3@3@@Z 0000000180016df0 f i RTreeCooking.obj
 0001:00015e40       ?V3Max@aos@shdfnd@physx@@YA?AT__m128@@T4@0@Z 0000000180016e40 f i RTreeCooking.obj
 0001:00015f50       ?V3Min@aos@shdfnd@physx@@YA?AT__m128@@T4@0@Z 0000000180016f50 f i RTreeCooking.obj
 0001:00016060       ?V3PermZXY@aos@shdfnd@physx@@YA?AT__m128@@T4@@Z 0000000180017060 f i RTreeCooking.obj
 0001:000160f0       ?V3ReadXYZ@aos@shdfnd@physx@@YAAEBVPxVec3@3@AEBT__m128@@@Z 00000001800170f0 f i RTreeCooking.obj
 0001:00016100       ?V3Splat@aos@shdfnd@physx@@YA?AT__m128@@T4@@Z 0000000180017100 f i RTreeCooking.obj
 0001:000161e0       ?V3StoreA@aos@shdfnd@physx@@YAXT__m128@@AEAVPxVec3@3@@Z 00000001800171e0 f i RTreeCooking.obj
 0001:000162a0       ?V3StoreU@aos@shdfnd@physx@@YAXT__m128@@AEAVPxVec3@3@@Z 00000001800172a0 f i RTreeCooking.obj
 0001:00016310       ?V3Sub@aos@shdfnd@physx@@YA?AT__m128@@T4@0@Z 0000000180017310 f i RTreeCooking.obj
 0001:00016420       ?V3Zero@aos@shdfnd@physx@@YA?AT__m128@@XZ 0000000180017420 f i RTreeCooking.obj
 0001:00016440       ?V4ClearW@aos@shdfnd@physx@@YA?AT__m128@@T4@@Z 0000000180017440 f i RTreeCooking.obj
 0001:00016470       ?V4ReadW@aos@shdfnd@physx@@YAMAEBT__m128@@@Z 0000000180017470 f i RTreeCooking.obj
 0001:00016480       ?V4ReadX@aos@shdfnd@physx@@YAMAEBT__m128@@@Z 0000000180017480 f i RTreeCooking.obj
 0001:00016490       ?V4ReadY@aos@shdfnd@physx@@YAMAEBT__m128@@@Z 0000000180017490 f i RTreeCooking.obj
 0001:000164a0       ?V4ReadZ@aos@shdfnd@physx@@YAMAEBT__m128@@@Z 00000001800174a0 f i RTreeCooking.obj
 0001:000164b0       ?Vec3V_From_FloatV@aos@shdfnd@physx@@YA?AT__m128@@T4@@Z 00000001800174b0 f i RTreeCooking.obj
 0001:00016500       ?Vec3V_From_Vec4V@aos@shdfnd@physx@@YA?AT__m128@@T4@@Z 0000000180017500 f i RTreeCooking.obj
 0001:00016530       ?Vec4V_From_FloatV@aos@shdfnd@physx@@YA?AT__m128@@T4@@Z 0000000180017530 f i RTreeCooking.obj
 0001:00016540       ?allocate@?$AlignedAllocator@$0IA@VNonTrackingAllocator@shdfnd@physx@@@shdfnd@physx@@QEAAPEAX_KPEBDH@Z 0000000180017540 f i RTreeCooking.obj
 0001:000165e0       ?allocate@?$Array@IVNamedAllocator@shdfnd@physx@@@shdfnd@physx@@IEAAPEAII@Z 00000001800175e0 f i RTreeCooking.obj
 0001:00016670       ?allocate@?$Array@UInterval@physx@@V?$InlineAllocator@$0CAAA@VNamedAllocator@shdfnd@physx@@@shdfnd@2@@shdfnd@physx@@IEAAPEAUInterval@3@I@Z 0000000180017670 f i RTreeCooking.obj
 0001:00016700       ?allocate@?$Array@UPxBounds3V@physx@@VNamedAllocator@shdfnd@2@@shdfnd@physx@@IEAAPEAUPxBounds3V@3@I@Z 0000000180017700 f i RTreeCooking.obj
 0001:00016790       ?allocate@?$Array@URTreeNodeNQ@physx@@VNamedAllocator@shdfnd@2@@shdfnd@physx@@IEAAPEAURTreeNodeNQ@3@I@Z 0000000180017790 f i RTreeCooking.obj
 0001:00016820       ?allocate@?$Array@URTreeNodeQ@Gu@physx@@VNamedAllocator@shdfnd@3@@shdfnd@physx@@IEAAPEAURTreeNodeQ@Gu@3@I@Z 0000000180017820 f i RTreeCooking.obj
 0001:000168b0       ?allocate@?$InlineAllocator@$0CAAA@VNamedAllocator@shdfnd@physx@@@shdfnd@physx@@QEAAPEAXIPEBDH@Z 00000001800178b0 f i RTreeCooking.obj
 0001:00016920       ?allocate@NonTrackingAllocator@shdfnd@physx@@QEAAPEAX_KPEBDH@Z 0000000180017920 f i RTreeCooking.obj
 0001:00016990       ?begin@?$Array@IVNamedAllocator@shdfnd@physx@@@shdfnd@physx@@QEAAPEAIXZ 0000000180017990 f i RTreeCooking.obj
 0001:000169a0       ?begin@?$Array@UPxBounds3V@physx@@VNamedAllocator@shdfnd@2@@shdfnd@physx@@QEAAPEAUPxBounds3V@3@XZ 00000001800179a0 f i RTreeCooking.obj
 0001:000169b0       ?begin@?$Array@VPxVec3@physx@@VNamedAllocator@shdfnd@2@@shdfnd@physx@@QEAAPEAVPxVec3@3@XZ 00000001800179b0 f i RTreeCooking.obj
 0001:000169c0       ?capacity@?$Array@IVNamedAllocator@shdfnd@physx@@@shdfnd@physx@@QEBAIXZ 00000001800179c0 f i RTreeCooking.obj
 0001:000169e0       ?capacity@?$Array@UInterval@physx@@V?$InlineAllocator@$0CAAA@VNamedAllocator@shdfnd@physx@@@shdfnd@2@@shdfnd@physx@@QEBAIXZ 00000001800179e0 f i RTreeCooking.obj
 0001:00016a00       ?capacity@?$Array@UPxBounds3V@physx@@VNamedAllocator@shdfnd@2@@shdfnd@physx@@QEBAIXZ 0000000180017a00 f i RTreeCooking.obj
 0001:00016a20       ?capacity@?$Array@URTreeNodeNQ@physx@@VNamedAllocator@shdfnd@2@@shdfnd@physx@@QEBAIXZ 0000000180017a20 f i RTreeCooking.obj
 0001:00016a40       ?capacity@?$Array@URTreeNodeQ@Gu@physx@@VNamedAllocator@shdfnd@3@@shdfnd@physx@@QEBAIXZ 0000000180017a40 f i RTreeCooking.obj
 0001:00016a60       ?capacityIncrement@?$Array@IVNamedAllocator@shdfnd@physx@@@shdfnd@physx@@IEBAIXZ 0000000180017a60 f i RTreeCooking.obj
 0001:00016aa0       ?capacityIncrement@?$Array@UInterval@physx@@V?$InlineAllocator@$0CAAA@VNamedAllocator@shdfnd@physx@@@shdfnd@2@@shdfnd@physx@@IEBAIXZ 0000000180017aa0 f i RTreeCooking.obj
 0001:00016ae0       ?capacityIncrement@?$Array@UPxBounds3V@physx@@VNamedAllocator@shdfnd@2@@shdfnd@physx@@IEBAIXZ 0000000180017ae0 f i RTreeCooking.obj
 0001:00016b20       ?capacityIncrement@?$Array@URTreeNodeNQ@physx@@VNamedAllocator@shdfnd@2@@shdfnd@physx@@IEBAIXZ 0000000180017b20 f i RTreeCooking.obj
 0001:00016b60       ?capacityIncrement@?$Array@URTreeNodeQ@Gu@physx@@VNamedAllocator@shdfnd@3@@shdfnd@physx@@IEBAIXZ 0000000180017b60 f i RTreeCooking.obj
 0001:00016ba0       ?computeSA@SubSortSAH@physx@@QEAAMPEBIAEBUInterval@2@@Z 0000000180017ba0 f i RTreeCooking.obj
 0001:00016db0       ?copy@?$Array@IVNamedAllocator@shdfnd@physx@@@shdfnd@physx@@KAXPEAI0PEBI@Z 0000000180017db0 f i RTreeCooking.obj
 0001:00016e30       ?copy@?$Array@UInterval@physx@@V?$InlineAllocator@$0CAAA@VNamedAllocator@shdfnd@physx@@@shdfnd@2@@shdfnd@physx@@KAXPEAUInterval@3@0PEBU43@@Z 0000000180017e30 f i RTreeCooking.obj
 0001:00016eb0       ?copy@?$Array@UPxBounds3V@physx@@VNamedAllocator@shdfnd@2@@shdfnd@physx@@KAXPEAUPxBounds3V@3@0PEBU43@@Z 0000000180017eb0 f i RTreeCooking.obj
 0001:00016f30       ?copy@?$Array@URTreeNodeNQ@physx@@VNamedAllocator@shdfnd@2@@shdfnd@physx@@KAXPEAURTreeNodeNQ@3@0PEBU43@@Z 0000000180017f30 f i RTreeCooking.obj
 0001:00016fb0       ?copy@?$Array@URTreeNodeQ@Gu@physx@@VNamedAllocator@shdfnd@3@@shdfnd@physx@@KAXPEAURTreeNodeQ@Gu@3@0PEBU453@@Z 0000000180017fb0 f i RTreeCooking.obj
 0001:00017030       ?create@?$Array@IVNamedAllocator@shdfnd@physx@@@shdfnd@physx@@KAXPEAI0AEBI@Z 0000000180018030 f i RTreeCooking.obj
 0001:00017090       ?deallocate@?$Array@IVNamedAllocator@shdfnd@physx@@@shdfnd@physx@@IEAAXPEAX@Z 0000000180018090 f i RTreeCooking.obj
 0001:000170c0       ?deallocate@?$Array@UInterval@physx@@V?$InlineAllocator@$0CAAA@VNamedAllocator@shdfnd@physx@@@shdfnd@2@@shdfnd@physx@@IEAAXPEAX@Z 00000001800180c0 f i RTreeCooking.obj
 0001:000170f0       ?deallocate@?$Array@UPxBounds3V@physx@@VNamedAllocator@shdfnd@2@@shdfnd@physx@@IEAAXPEAX@Z 00000001800180f0 f i RTreeCooking.obj
 0001:00017120       ?deallocate@?$Array@URTreeNodeNQ@physx@@VNamedAllocator@shdfnd@2@@shdfnd@physx@@IEAAXPEAX@Z 0000000180018120 f i RTreeCooking.obj
 0001:00017150       ?deallocate@?$Array@URTreeNodeQ@Gu@physx@@VNamedAllocator@shdfnd@3@@shdfnd@physx@@IEAAXPEAX@Z 0000000180018150 f i RTreeCooking.obj
 0001:00017180       ?deallocate@?$InlineAllocator@$0CAAA@VNamedAllocator@shdfnd@physx@@@shdfnd@physx@@QEAAXPEAX@Z 0000000180018180 f i RTreeCooking.obj
 0001:000171c0       ?destroy@?$Array@IVNamedAllocator@shdfnd@physx@@@shdfnd@physx@@KAXPEAI0@Z 00000001800181c0 f i RTreeCooking.obj
 0001:000171f0       ?destroy@?$Array@UInterval@physx@@V?$InlineAllocator@$0CAAA@VNamedAllocator@shdfnd@physx@@@shdfnd@2@@shdfnd@physx@@KAXPEAUInterval@3@0@Z 00000001800181f0 f i RTreeCooking.obj
 0001:00017220       ?destroy@?$Array@UPxBounds3V@physx@@VNamedAllocator@shdfnd@2@@shdfnd@physx@@KAXPEAUPxBounds3V@3@0@Z 0000000180018220 f i RTreeCooking.obj
 0001:00017250       ?destroy@?$Array@URTreeNodeNQ@physx@@VNamedAllocator@shdfnd@2@@shdfnd@physx@@KAXPEAURTreeNodeNQ@3@0@Z 0000000180018250 f i RTreeCooking.obj
 0001:00017280       ?destroy@?$Array@URTreeNodeQ@Gu@physx@@VNamedAllocator@shdfnd@3@@shdfnd@physx@@KAXPEAURTreeNodeQ@Gu@3@0@Z 0000000180018280 f i RTreeCooking.obj
 0001:000172b0       ?empty@?$Stack@VNamedAllocator@shdfnd@physx@@@internal@shdfnd@physx@@QEAA_NXZ 00000001800182b0 f i RTreeCooking.obj
 0001:000172e0       ?empty@PxBounds3@physx@@SA?AV12@XZ 00000001800182e0 f i RTreeCooking.obj
 0001:00017340       ?getExtents@PxBounds3V@physx@@QEBA?AT__m128@@XZ 0000000180018340 f i RTreeCooking.obj
 0001:000173a0       ?getMaxVec3@PxBounds3V@physx@@QEBA?BVPxVec3@2@XZ 00000001800183a0 f i RTreeCooking.obj
 0001:000173f0       ?getMinVec3@PxBounds3V@physx@@QEBA?BVPxVec3@2@XZ 00000001800183f0 f i RTreeCooking.obj
 0001:00017440       ?grow@?$Array@IVNamedAllocator@shdfnd@physx@@@shdfnd@physx@@IEAAXI@Z 0000000180018440 f i RTreeCooking.obj
 0001:000174c0       ?grow@?$Array@UPxBounds3V@physx@@VNamedAllocator@shdfnd@2@@shdfnd@physx@@IEAAXI@Z 00000001800184c0 f i RTreeCooking.obj
 0001:00017540       ?grow@?$Array@URTreeNodeNQ@physx@@VNamedAllocator@shdfnd@2@@shdfnd@physx@@IEAAXI@Z 0000000180018540 f i RTreeCooking.obj
 0001:000175c0       ?grow@?$Array@URTreeNodeQ@Gu@physx@@VNamedAllocator@shdfnd@3@@shdfnd@physx@@IEAAXI@Z 00000001800185c0 f i RTreeCooking.obj
 0001:00017640       ?grow@?$Array@VPxVec3@physx@@VNamedAllocator@shdfnd@2@@shdfnd@physx@@IEAAXI@Z 0000000180018640 f i RTreeCooking.obj
 0001:000176c0       ?grow@?$Stack@VNamedAllocator@shdfnd@physx@@@internal@shdfnd@physx@@QEAAXXZ 00000001800186c0 f i RTreeCooking.obj
 0001:00017770       ?growAndPushBack@?$Array@IVNamedAllocator@shdfnd@physx@@@shdfnd@physx@@IEAAAEAIAEBI@Z 0000000180018770 f i RTreeCooking.obj
 0001:000178f0       ?growAndPushBack@?$Array@UInterval@physx@@V?$InlineAllocator@$0CAAA@VNamedAllocator@shdfnd@physx@@@shdfnd@2@@shdfnd@physx@@IEAAAEAUInterval@3@AEBU43@@Z 00000001800188f0 f i RTreeCooking.obj
 0001:00017aa0       ?growAndPushBack@?$Array@UPxBounds3V@physx@@VNamedAllocator@shdfnd@2@@shdfnd@physx@@IEAAAEAUPxBounds3V@3@AEBU43@@Z 0000000180018aa0 f i RTreeCooking.obj
 0001:00017c70       ?growAndPushBack@?$Array@URTreeNodeNQ@physx@@VNamedAllocator@shdfnd@2@@shdfnd@physx@@IEAAAEAURTreeNodeNQ@3@AEBU43@@Z 0000000180018c70 f i RTreeCooking.obj
 0001:00017e00       ?growAndPushBack@?$Array@URTreeNodeQ@Gu@physx@@VNamedAllocator@shdfnd@3@@shdfnd@physx@@IEAAAEAURTreeNodeQ@Gu@3@AEBU453@@Z 0000000180018e00 f i RTreeCooking.obj
 0001:00017fd0       ?include@PxBounds3V@physx@@QEAAXAEBU12@@Z 0000000180018fd0 f i RTreeCooking.obj
 0001:00018080       ?isInUserMemory@?$Array@IVNamedAllocator@shdfnd@physx@@@shdfnd@physx@@QEBAIXZ 0000000180019080 f i RTreeCooking.obj
 0001:000180a0       ?isInUserMemory@?$Array@UInterval@physx@@V?$InlineAllocator@$0CAAA@VNamedAllocator@shdfnd@physx@@@shdfnd@2@@shdfnd@physx@@QEBAIXZ 00000001800190a0 f i RTreeCooking.obj
 0001:000180c0       ?isInUserMemory@?$Array@UPxBounds3V@physx@@VNamedAllocator@shdfnd@2@@shdfnd@physx@@QEBAIXZ 00000001800190c0 f i RTreeCooking.obj
 0001:000180e0       ?isInUserMemory@?$Array@URTreeNodeNQ@physx@@VNamedAllocator@shdfnd@2@@shdfnd@physx@@QEBAIXZ 00000001800190e0 f i RTreeCooking.obj
 0001:00018100       ?isInUserMemory@?$Array@URTreeNodeQ@Gu@physx@@VNamedAllocator@shdfnd@3@@shdfnd@physx@@QEBAIXZ 0000000180019100 f i RTreeCooking.obj
 0001:00018120       ?isInside@PxBounds3@physx@@QEBA_NAEBV12@@Z 0000000180019120 f i RTreeCooking.obj
 0001:00018210       ?isLeaf@RTreeNodeQ@Gu@physx@@QEBAIXZ 0000000180019210 f i RTreeCooking.obj
 0001:00018230       ?isValidFloatV@aos@shdfnd@physx@@YA_NT__m128@@@Z 0000000180019230 f i RTreeCooking.obj
 0001:00018340       ?isValidVec3V@aos@shdfnd@physx@@YA_NT__m128@@@Z 0000000180019340 f i RTreeCooking.obj
 0001:000183a0       ?pop@?$Stack@VNamedAllocator@shdfnd@physx@@@internal@shdfnd@physx@@QEAAXAEAH0@Z 00000001800193a0 f i RTreeCooking.obj
 0001:00018480       ?popBack@?$Array@IVNamedAllocator@shdfnd@physx@@@shdfnd@physx@@QEAAIXZ 0000000180019480 f i RTreeCooking.obj
 0001:00018520       ?push@?$Stack@VNamedAllocator@shdfnd@physx@@@internal@shdfnd@physx@@QEAAXHH@Z 0000000180019520 f i RTreeCooking.obj
 0001:000185b0       ?pushBack@?$Array@IVNamedAllocator@shdfnd@physx@@@shdfnd@physx@@QEAAAEAIAEBI@Z 00000001800195b0 f i RTreeCooking.obj
 0001:00018650       ?pushBack@?$Array@UInterval@physx@@V?$InlineAllocator@$0CAAA@VNamedAllocator@shdfnd@physx@@@shdfnd@2@@shdfnd@physx@@QEAAAEAUInterval@3@AEBU43@@Z 0000000180019650 f i RTreeCooking.obj
 0001:00018710       ?pushBack@?$Array@UPxBounds3V@physx@@VNamedAllocator@shdfnd@2@@shdfnd@physx@@QEAAAEAUPxBounds3V@3@AEBU43@@Z 0000000180019710 f i RTreeCooking.obj
 0001:000187c0       ?pushBack@?$Array@URTreeNodeNQ@physx@@VNamedAllocator@shdfnd@2@@shdfnd@physx@@QEAAAEAURTreeNodeNQ@3@AEBU43@@Z 00000001800197c0 f i RTreeCooking.obj
 0001:00018860       ?pushBack@?$Array@URTreeNodeQ@Gu@physx@@VNamedAllocator@shdfnd@3@@shdfnd@physx@@QEAAAEAURTreeNodeQ@Gu@3@AEBU453@@Z 0000000180019860 f i RTreeCooking.obj
 0001:00018910       ?recreate@?$Array@IVNamedAllocator@shdfnd@physx@@@shdfnd@physx@@IEAAXI@Z 0000000180019910 f i RTreeCooking.obj
 0001:00018a20       ?recreate@?$Array@UPxBounds3V@physx@@VNamedAllocator@shdfnd@2@@shdfnd@physx@@IEAAXI@Z 0000000180019a20 f i RTreeCooking.obj
 0001:00018b40       ?recreate@?$Array@URTreeNodeNQ@physx@@VNamedAllocator@shdfnd@2@@shdfnd@physx@@IEAAXI@Z 0000000180019b40 f i RTreeCooking.obj
 0001:00018c60       ?recreate@?$Array@URTreeNodeQ@Gu@physx@@VNamedAllocator@shdfnd@3@@shdfnd@physx@@IEAAXI@Z 0000000180019c60 f i RTreeCooking.obj
 0001:00018d80       ?recreate@?$Array@VPxVec3@physx@@VNamedAllocator@shdfnd@2@@shdfnd@physx@@IEAAXI@Z 0000000180019d80 f i RTreeCooking.obj
 0001:00018ea0       ?replaceWithLast@?$Array@UInterval@physx@@V?$InlineAllocator@$0CAAA@VNamedAllocator@shdfnd@physx@@@shdfnd@2@@shdfnd@physx@@QEAAXI@Z 0000000180019ea0 f i RTreeCooking.obj
 0001:00018f60       ?reserve@?$Array@IVNamedAllocator@shdfnd@physx@@@shdfnd@physx@@QEAAXI@Z 0000000180019f60 f i RTreeCooking.obj
 0001:00018f90       ?reserve@?$Array@UPxBounds3V@physx@@VNamedAllocator@shdfnd@2@@shdfnd@physx@@QEAAXI@Z 0000000180019f90 f i RTreeCooking.obj
 0001:00018fc0       ?reserve@?$Array@URTreeNodeNQ@physx@@VNamedAllocator@shdfnd@2@@shdfnd@physx@@QEAAXI@Z 0000000180019fc0 f i RTreeCooking.obj
 0001:00018ff0       ?reserve@?$Array@URTreeNodeQ@Gu@physx@@VNamedAllocator@shdfnd@3@@shdfnd@physx@@QEAAXI@Z 0000000180019ff0 f i RTreeCooking.obj
 0001:00019020       ?reserve@?$Array@VPxVec3@physx@@VNamedAllocator@shdfnd@2@@shdfnd@physx@@QEAAXI@Z 000000018001a020 f i RTreeCooking.obj
 0001:00019050       ?resize@?$Array@IVNamedAllocator@shdfnd@physx@@@shdfnd@physx@@QEAAXIAEBI@Z 000000018001a050 f i RTreeCooking.obj
 0001:000190e0       ?resizeUninitialized@?$Array@URTreeNodeNQ@physx@@VNamedAllocator@shdfnd@2@@shdfnd@physx@@QEAAXI@Z 000000018001a0e0 f i RTreeCooking.obj
 0001:00019110       ?setLeaf@RTreeNodeQ@Gu@physx@@QEAAX_N@Z 000000018001a110 f i RTreeCooking.obj
 0001:00019150       ?size@?$Array@IVNamedAllocator@shdfnd@physx@@@shdfnd@physx@@QEBAIXZ 000000018001a150 f i RTreeCooking.obj
 0001:00019160       ?size@?$Array@UInterval@physx@@V?$InlineAllocator@$0CAAA@VNamedAllocator@shdfnd@physx@@@shdfnd@2@@shdfnd@physx@@QEBAIXZ 000000018001a160 f i RTreeCooking.obj
 0001:00019180       ?size@?$Array@URTreeNodeNQ@physx@@VNamedAllocator@shdfnd@2@@shdfnd@physx@@QEBAIXZ 000000018001a180 f i RTreeCooking.obj
 0001:00019190       ?size@?$Array@URTreeNodeQ@Gu@physx@@VNamedAllocator@shdfnd@3@@shdfnd@physx@@QEBAIXZ 000000018001a190 f i RTreeCooking.obj
 0001:000191a0       ?size@?$Array@VPxVec3@physx@@VNamedAllocator@shdfnd@2@@shdfnd@physx@@QEBAIXZ 000000018001a1a0 f i RTreeCooking.obj
 0001:000191b0       ?sort4@SubSortQuick@physx@@QEAAXPEIAIIAEAV?$Array@URTreeNodeNQ@physx@@VNamedAllocator@shdfnd@2@@shdfnd@2@AEAIAEAUPxBounds3V@2@I@Z 000000018001a1b0 f i RTreeCooking.obj
 0001:00019bd0       ?sort4@SubSortSAH@physx@@QEAAXPEAIIAEAV?$Array@URTreeNodeNQ@physx@@VNamedAllocator@shdfnd@2@@shdfnd@2@AEAIIPEAURTreeNodeNQ@2@@Z 000000018001abd0 f i RTreeCooking.obj
 0001:0001a9e0       ?split@SubSortSAH@physx@@QEAAIPEAII@Z 000000018001b9e0 f i RTreeCooking.obj
 0001:0001b8c0       ?computeLocalBounds@MeshBulider@physx@@IEAAXAEAVMeshDataBase@Gu@2@@Z 000000018001c8c0 f   MeshBuilder.obj
 0001:0001b9c0       ??0TriangleMeshBuilder@physx@@QEAA@AEAVTriangleMeshData@Gu@1@AEBUPxCookingParams@1@@Z 000000018001c9c0 f   TriangleMeshBuilder.obj
 0001:0001ba20       ??1TriangleMeshBuilder@physx@@UEAA@XZ 000000018001ca20 f   TriangleMeshBuilder.obj
 0001:0001ba50       ?cleanMesh@TriangleMeshBuilder@physx@@QEAA_N_NPEAW4Enum@PxTriangleMeshCookingResult@2@@Z 000000018001ca50 f   TriangleMeshBuilder.obj
 0001:0001c2f0       ?remapTopology@TriangleMeshBuilder@physx@@QEAAXPEBI@Z 000000018001d2f0 f   TriangleMeshBuilder.obj
 0001:0001c720       ?createSharedEdgeData@TriangleMeshBuilder@physx@@QEAAX_N0@Z 000000018001d720 f   TriangleMeshBuilder.obj
 0001:0001cfd0       ?recordTriangleIndices@TriangleMeshBuilder@physx@@QEAAXXZ 000000018001dfd0 f   TriangleMeshBuilder.obj
 0001:0001d1d0       ?createGRBMidPhaseAndData@TriangleMeshBuilder@physx@@QEAAXI@Z 000000018001e1d0 f   TriangleMeshBuilder.obj
 0001:0001d530       ?createGRBData@TriangleMeshBuilder@physx@@QEAAXXZ 000000018001e530 f   TriangleMeshBuilder.obj
 0001:0001d6d0       ?loadFromDesc@TriangleMeshBuilder@physx@@QEAA_NAEBVPxTriangleMeshDesc@2@PEAW4Enum@PxTriangleMeshCookingResult@2@_N@Z 000000018001e6d0 f   TriangleMeshBuilder.obj
 0001:0001d9d0       ?save@TriangleMeshBuilder@physx@@QEBA_NAEAVPxOutputStream@2@_NAEBUPxCookingParams@2@@Z 000000018001e9d0 f   TriangleMeshBuilder.obj
 0001:0001e2f0       ?checkMeshIndicesSize@TriangleMeshBuilder@physx@@QEAAXXZ 000000018001f2f0 f   TriangleMeshBuilder.obj
 0001:0001e4f0       ?importMesh@TriangleMeshBuilder@physx@@IEAA_NAEBVPxTriangleMeshDesc@2@AEBUPxCookingParams@2@PEAW4Enum@PxTriangleMeshCookingResult@2@_N@Z 000000018001f4f0 f   TriangleMeshBuilder.obj
 0001:0001eb80       ?releaseEdgeList@TriangleMeshBuilder@physx@@IEAAXXZ 000000018001fb80 f   TriangleMeshBuilder.obj
 0001:0001ebe0       ?createEdgeList@TriangleMeshBuilder@physx@@IEAAXXZ 000000018001fbe0 f   TriangleMeshBuilder.obj
 0001:0001ed60       ??0RTreeTriangleMeshBuilder@physx@@QEAA@AEBUPxCookingParams@1@@Z 000000018001fd60 f   TriangleMeshBuilder.obj
 0001:0001edc0       ??1RTreeTriangleMeshBuilder@physx@@UEAA@XZ 000000018001fdc0 f   TriangleMeshBuilder.obj
 0001:0001ee00       ?createMidPhaseStructure@RTreeTriangleMeshBuilder@physx@@UEAAXXZ 000000018001fe00 f   TriangleMeshBuilder.obj
 0001:0001f020       ?saveMidPhaseStructure@RTreeTriangleMeshBuilder@physx@@UEBAXAEAVPxOutputStream@2@_N@Z 0000000180020020 f   TriangleMeshBuilder.obj
 0001:0001f300       ??0BV4TriangleMeshBuilder@physx@@QEAA@AEBUPxCookingParams@1@@Z 0000000180020300 f   TriangleMeshBuilder.obj
 0001:0001f360       ??1BV4TriangleMeshBuilder@physx@@UEAA@XZ 0000000180020360 f   TriangleMeshBuilder.obj
 0001:0001f3a0       ?createMidPhaseStructure@BV4TriangleMeshBuilder@physx@@UEAAXXZ 00000001800203a0 f   TriangleMeshBuilder.obj
 0001:0001f860       ?saveMidPhaseStructure@BV4TriangleMeshBuilder@physx@@UEBAXAEAVPxOutputStream@2@_N@Z 0000000180020860 f   TriangleMeshBuilder.obj
 0001:0001fab0       ?onMeshIndexFormatChange@BV4TriangleMeshBuilder@physx@@UEAAXXZ 0000000180020ab0 f   TriangleMeshBuilder.obj
 0001:0001fb40       ?createMidPhaseStructure@BV32TriangleMeshBuilder@physx@@SAXAEBUPxCookingParams@2@AEAVTriangleMeshData@Gu@2@AEAVBV32Tree@52@@Z 0000000180020b40 f   TriangleMeshBuilder.obj
 0001:0001fe30       ?saveMidPhaseStructure@BV32TriangleMeshBuilder@physx@@SAXPEAVBV32Tree@Gu@2@AEAVPxOutputStream@2@_N@Z 0000000180020e30 f   TriangleMeshBuilder.obj
 0001:000208c0       ?findSharpVertices@GrbTrimeshCookerHelper@physx@@YAXAEAV?$Array@USortedNeighbor@GrbTrimeshCookerHelper@physx@@VNamedAllocator@shdfnd@3@@shdfnd@2@AEAV?$Array@USharpEdgeRange@GrbTrimeshCookerHelper@physx@@VNamedAllocator@shdfnd@3@@42@PEBUuint3@2@PEBUuint4@2@II@Z 00000001800218c0 f   TriangleMeshBuilder.obj
 0001:00020dd0       ?buildVertexConnectionNew_p1@GrbTrimeshCookerHelper@physx@@YAIAEAV?$Array@USortedNeighbor@GrbTrimeshCookerHelper@physx@@VNamedAllocator@shdfnd@3@@shdfnd@2@AEAV?$Array@USharpEdgeRange@GrbTrimeshCookerHelper@physx@@VNamedAllocator@shdfnd@3@@42@PEBUuint3@2@PEBUuint4@2@II@Z 0000000180021dd0 f   TriangleMeshBuilder.obj
 0001:00020e70       ?buildVertexConnectionNew_p2@GrbTrimeshCookerHelper@physx@@YAXPEAI00AEAV?$Array@USortedNeighbor@GrbTrimeshCookerHelper@physx@@VNamedAllocator@shdfnd@3@@shdfnd@2@AEAV?$Array@USharpEdgeRange@GrbTrimeshCookerHelper@physx@@VNamedAllocator@shdfnd@3@@42@I@Z 0000000180021e70 f   TriangleMeshBuilder.obj
 0001:00020f50       ??$?2V?$ReflectionAllocator@VBV32Tree@Gu@physx@@@shdfnd@physx@@@UserAllocated@shdfnd@physx@@SAPEAX_KV?$ReflectionAllocator@VBV32Tree@Gu@physx@@@12@PEBDH@Z 0000000180021f50 f i TriangleMeshBuilder.obj
 0001:00020f90       ??$?2V?$ReflectionAllocator@VEdgeListBuilder@Gu@physx@@@shdfnd@physx@@@UserAllocated@shdfnd@physx@@SAPEAX_KV?$ReflectionAllocator@VEdgeListBuilder@Gu@physx@@@12@PEBDH@Z 0000000180021f90 f i TriangleMeshBuilder.obj
 0001:00020fd0       ??$?_UE@@YAPEAX_KV?$ReflectionAllocator@E@shdfnd@physx@@PEBDH@Z 0000000180021fd0 f i TriangleMeshBuilder.obj
 0001:00021010       ??$?_UG@@YAPEAX_KV?$ReflectionAllocator@G@shdfnd@physx@@PEBDH@Z 0000000180022010 f i TriangleMeshBuilder.obj
 0001:00021050       ??$PX_UNUSED@U?$TriangleT@I@Gu@physx@@@@YAXAEBU?$TriangleT@I@Gu@physx@@@Z 0000000180022050 f i TriangleMeshBuilder.obj
 0001:00021060       ??$median3@UEdgeTriLookup@physx@@$$CBU?$Less@UEdgeTriLookup@physx@@@shdfnd@2@@internal@shdfnd@physx@@YAXPEAUEdgeTriLookup@2@HHAEBU?$Less@UEdgeTriLookup@physx@@@12@@Z 0000000180022060 f i TriangleMeshBuilder.obj
 0001:00021220       ??$median3@USortedNeighbor@GrbTrimeshCookerHelper@physx@@$$CBU?$Less@USortedNeighbor@GrbTrimeshCookerHelper@physx@@@shdfnd@3@@internal@shdfnd@physx@@YAXPEAUSortedNeighbor@GrbTrimeshCookerHelper@2@HHAEBU?$Less@USortedNeighbor@GrbTrimeshCookerHelper@physx@@@12@@Z 0000000180022220 f i TriangleMeshBuilder.obj
 0001:000213e0       ??$partition@UEdgeTriLookup@physx@@$$CBU?$Less@UEdgeTriLookup@physx@@@shdfnd@2@@internal@shdfnd@physx@@YAHPEAUEdgeTriLookup@2@HHAEBU?$Less@UEdgeTriLookup@physx@@@12@@Z 00000001800223e0 f i TriangleMeshBuilder.obj
 0001:00021600       ??$partition@USortedNeighbor@GrbTrimeshCookerHelper@physx@@$$CBU?$Less@USortedNeighbor@GrbTrimeshCookerHelper@physx@@@shdfnd@3@@internal@shdfnd@physx@@YAHPEAUSortedNeighbor@GrbTrimeshCookerHelper@2@HHAEBU?$Less@USortedNeighbor@GrbTrimeshCookerHelper@physx@@@12@@Z 0000000180022600 f i TriangleMeshBuilder.obj
 0001:00021820       ??$smallSort@UEdgeTriLookup@physx@@$$CBU?$Less@UEdgeTriLookup@physx@@@shdfnd@2@@internal@shdfnd@physx@@YAXPEAUEdgeTriLookup@2@HHAEBU?$Less@UEdgeTriLookup@physx@@@12@@Z 0000000180022820 f i TriangleMeshBuilder.obj
 0001:00021910       ??$smallSort@USortedNeighbor@GrbTrimeshCookerHelper@physx@@$$CBU?$Less@USortedNeighbor@GrbTrimeshCookerHelper@physx@@@shdfnd@3@@internal@shdfnd@physx@@YAXPEAUSortedNeighbor@GrbTrimeshCookerHelper@2@HHAEBU?$Less@USortedNeighbor@GrbTrimeshCookerHelper@physx@@@12@@Z 0000000180022910 f i TriangleMeshBuilder.obj
 0001:00021a00       ??$sort@UEdgeTriLookup@physx@@@shdfnd@physx@@YAXPEAUEdgeTriLookup@1@I@Z 0000000180022a00 f i TriangleMeshBuilder.obj
 0001:00021a50       ??$sort@UEdgeTriLookup@physx@@U?$Less@UEdgeTriLookup@physx@@@shdfnd@2@VNamedAllocator@42@@shdfnd@physx@@YAXPEAUEdgeTriLookup@1@IAEBU?$Less@UEdgeTriLookup@physx@@@01@AEBVNamedAllocator@01@I@Z 0000000180022a50 f i TriangleMeshBuilder.obj
 0001:00021d50       ??$sort@USortedNeighbor@GrbTrimeshCookerHelper@physx@@@shdfnd@physx@@YAXPEAUSortedNeighbor@GrbTrimeshCookerHelper@1@I@Z 0000000180022d50 f i TriangleMeshBuilder.obj
 0001:00021da0       ??$sort@USortedNeighbor@GrbTrimeshCookerHelper@physx@@U?$Less@USortedNeighbor@GrbTrimeshCookerHelper@physx@@@shdfnd@3@VNamedAllocator@53@@shdfnd@physx@@YAXPEAUSortedNeighbor@GrbTrimeshCookerHelper@1@IAEBU?$Less@USortedNeighbor@GrbTrimeshCookerHelper@physx@@@01@AEBVNamedAllocator@01@I@Z 0000000180022da0 f i TriangleMeshBuilder.obj
 0001:000220a0       ??$swap@UEdgeTriLookup@physx@@@shdfnd@physx@@YAXAEAUEdgeTriLookup@1@0@Z 00000001800230a0 f i TriangleMeshBuilder.obj
 0001:000220f0       ??$swap@USortedNeighbor@GrbTrimeshCookerHelper@physx@@@shdfnd@physx@@YAXAEAUSortedNeighbor@GrbTrimeshCookerHelper@1@0@Z 00000001800230f0 f i TriangleMeshBuilder.obj
 0001:00022140       ??0?$Array@IVNamedAllocator@shdfnd@physx@@@shdfnd@physx@@QEAA@AEBVNamedAllocator@12@@Z 0000000180023140 f i TriangleMeshBuilder.obj
 0001:00022190       ??0?$PxFlags@W4Enum@PxMeshFlag@physx@@G@physx@@QEAA@W4Enum@PxMeshFlag@1@@Z 0000000180023190 f i TriangleMeshBuilder.obj
 0001:000221b0       ??0?$PxFlags@W4Enum@PxMeshFlag@physx@@G@physx@@QEAA@XZ 00000001800231b0 f i TriangleMeshBuilder.obj
 0001:000221d0       ??0?$ReflectionAllocator@E@shdfnd@physx@@QEAA@PEBD@Z 00000001800231d0 f i TriangleMeshBuilder.obj
 0001:000221e0       ??0?$ReflectionAllocator@G@shdfnd@physx@@QEAA@PEBD@Z 00000001800231e0 f i TriangleMeshBuilder.obj
 0001:000221f0       ??0?$ReflectionAllocator@VBV32Tree@Gu@physx@@@shdfnd@physx@@QEAA@PEBD@Z 00000001800231f0 f i TriangleMeshBuilder.obj
 0001:00022200       ??0?$ReflectionAllocator@VEdgeListBuilder@Gu@physx@@@shdfnd@physx@@QEAA@PEBD@Z 0000000180023200 f i TriangleMeshBuilder.obj
 0001:00022210       ??0BV4TriangleData@Gu@physx@@QEAA@XZ 0000000180023210 f i TriangleMeshBuilder.obj
 0001:00022270       ??0MeshDataBase@Gu@physx@@QEAA@XZ 0000000180023270 f i TriangleMeshBuilder.obj
 0001:00022320       ??0PxPlane@physx@@QEAA@AEBVPxVec3@1@0@Z 0000000180023320 f i TriangleMeshBuilder.obj
 0001:00022380       ??0PxSimpleTriangleMesh@physx@@QEAA@AEBV01@@Z 0000000180023380 f i TriangleMeshBuilder.obj
 0001:000223e0       ??0PxTriangleMeshDesc@physx@@QEAA@AEBV01@@Z 00000001800233e0 f i TriangleMeshBuilder.obj
 0001:00022430       ??0RTree@Gu@physx@@QEAA@XZ 0000000180023430 f i TriangleMeshBuilder.obj
 0001:000224c0       ??0RTreeCookerRemap@physx@@QEAA@I@Z 00000001800234c0 f i TriangleMeshBuilder.obj
 0001:00022500       ??0RTreeTriangleData@Gu@physx@@QEAA@XZ 0000000180023500 f i TriangleMeshBuilder.obj
 0001:00022550       ??0RemapCallback@RTreeCooker@physx@@QEAA@XZ 0000000180023550 f i TriangleMeshBuilder.obj
 0001:00022570       ??0SharpEdgeRange@GrbTrimeshCookerHelper@physx@@QEAA@II@Z 0000000180023570 f i TriangleMeshBuilder.obj
 0001:000225a0       ??0SharpEdgeRange@GrbTrimeshCookerHelper@physx@@QEAA@XZ 00000001800235a0 f i TriangleMeshBuilder.obj
 0001:000225d0       ??0SortedNeighbor@GrbTrimeshCookerHelper@physx@@QEAA@II_N@Z 00000001800235d0 f i TriangleMeshBuilder.obj
 0001:00022610       ??0TriangleMeshData@Gu@physx@@QEAA@XZ 0000000180023610 f i TriangleMeshBuilder.obj
 0001:00022690       ??1BV4TriangleData@Gu@physx@@UEAA@XZ 0000000180023690 f i TriangleMeshBuilder.obj
 0001:000226e0       ??1MeshDataBase@Gu@physx@@UEAA@XZ 00000001800236e0 f i TriangleMeshBuilder.obj
 0001:00022830       ??1RTree@Gu@physx@@QEAA@XZ 0000000180023830 f i TriangleMeshBuilder.obj
 0001:00022850       ??1RTreeCookerRemap@physx@@UEAA@XZ 0000000180023850 f i TriangleMeshBuilder.obj
 0001:00022870       ??1RTreeTriangleData@Gu@physx@@UEAA@XZ 0000000180023870 f i TriangleMeshBuilder.obj
 0001:000228b0       ??1RemapCallback@RTreeCooker@physx@@UEAA@XZ 00000001800238b0 f i TriangleMeshBuilder.obj
 0001:000228d0       ??1TriangleMeshData@Gu@physx@@UEAA@XZ 00000001800238d0 f i TriangleMeshBuilder.obj
 0001:00022a00       ??A?$Array@USharpEdgeRange@GrbTrimeshCookerHelper@physx@@VNamedAllocator@shdfnd@3@@shdfnd@physx@@QEAAAEAUSharpEdgeRange@GrbTrimeshCookerHelper@2@I@Z 0000000180023a00 f i TriangleMeshBuilder.obj
 0001:00022a80       ??A?$Array@USortedNeighbor@GrbTrimeshCookerHelper@physx@@VNamedAllocator@shdfnd@3@@shdfnd@physx@@QEAAAEAUSortedNeighbor@GrbTrimeshCookerHelper@2@I@Z 0000000180023a80 f i TriangleMeshBuilder.obj
 0001:00022b00       ??MEdgeTriLookup@physx@@QEBA_NAEBU01@@Z 0000000180023b00 f i TriangleMeshBuilder.obj
 0001:00022b60       ??MSortedNeighbor@GrbTrimeshCookerHelper@physx@@QEBA_NAEBU012@@Z 0000000180023b60 f i TriangleMeshBuilder.obj
 0001:00022c00       ??NEdgeTriLookup@physx@@QEBA_NAEBU01@@Z 0000000180023c00 f i TriangleMeshBuilder.obj
 0001:00022c60       ??R?$Less@UEdgeTriLookup@physx@@@shdfnd@physx@@QEBA_NAEBUEdgeTriLookup@2@0@Z 0000000180023c60 f i TriangleMeshBuilder.obj
 0001:00022c90       ??R?$Less@USortedNeighbor@GrbTrimeshCookerHelper@physx@@@shdfnd@physx@@QEBA_NAEBUSortedNeighbor@GrbTrimeshCookerHelper@2@0@Z 0000000180023c90 f i TriangleMeshBuilder.obj
 0001:00022cc0       ??S?$PxFlags@W4Enum@PxMeshFlag@physx@@G@physx@@QEBA?AV01@XZ 0000000180023cc0 f i TriangleMeshBuilder.obj
 0001:00022d00       ??Sphysx@@YA?AV?$PxFlags@W4Enum@PxMeshFlag@physx@@G@0@W4Enum@PxMeshFlag@0@@Z 0000000180023d00 f i TriangleMeshBuilder.obj
 0001:00022d40       ??_4?$PxFlags@W4Enum@PxMeshFlag@physx@@G@physx@@QEAAAEAV01@AEBV01@@Z 0000000180023d40 f i TriangleMeshBuilder.obj
 0001:00022d70       ??_GBV32Tree@Gu@physx@@QEAAPEAXI@Z 0000000180023d70 f i TriangleMeshBuilder.obj
 0001:00022dd0       ??_GBV4TriangleData@Gu@physx@@UEAAPEAXI@Z 0000000180023dd0 f i TriangleMeshBuilder.obj
 0001:00022dd0       ??_EBV4TriangleData@Gu@physx@@UEAAPEAXI@Z 0000000180023dd0 f i TriangleMeshBuilder.obj
 0001:00022e30       ??_EBV4TriangleMeshBuilder@physx@@UEAAPEAXI@Z 0000000180023e30 f i TriangleMeshBuilder.obj
 0001:00022e30       ??_GBV4TriangleMeshBuilder@physx@@UEAAPEAXI@Z 0000000180023e30 f i TriangleMeshBuilder.obj
 0001:00022e70       ??_GEdgeListBuilder@Gu@physx@@QEAAPEAXI@Z 0000000180023e70 f i TriangleMeshBuilder.obj
 0001:00022ed0       ??_GMeshDataBase@Gu@physx@@UEAAPEAXI@Z 0000000180023ed0 f i TriangleMeshBuilder.obj
 0001:00022ed0       ??_EMeshDataBase@Gu@physx@@UEAAPEAXI@Z 0000000180023ed0 f i TriangleMeshBuilder.obj
 0001:00022f30       ??_GRTreeCookerRemap@physx@@UEAAPEAXI@Z 0000000180023f30 f i TriangleMeshBuilder.obj
 0001:00022f30       ??_ERTreeCookerRemap@physx@@UEAAPEAXI@Z 0000000180023f30 f i TriangleMeshBuilder.obj
 0001:00022f70       ??_GRTreeTriangleData@Gu@physx@@UEAAPEAXI@Z 0000000180023f70 f i TriangleMeshBuilder.obj
 0001:00022f70       ??_ERTreeTriangleData@Gu@physx@@UEAAPEAXI@Z 0000000180023f70 f i TriangleMeshBuilder.obj
 0001:00022fd0       ??_GRTreeTriangleMeshBuilder@physx@@UEAAPEAXI@Z 0000000180023fd0 f i TriangleMeshBuilder.obj
 0001:00022fd0       ??_ERTreeTriangleMeshBuilder@physx@@UEAAPEAXI@Z 0000000180023fd0 f i TriangleMeshBuilder.obj
 0001:00023010       ??_ERemapCallback@RTreeCooker@physx@@UEAAPEAXI@Z 0000000180024010 f i TriangleMeshBuilder.obj
 0001:00023010       ??_GRemapCallback@RTreeCooker@physx@@UEAAPEAXI@Z 0000000180024010 f i TriangleMeshBuilder.obj
 0001:00023050       ??_ETriangleMeshBuilder@physx@@UEAAPEAXI@Z 0000000180024050 f i TriangleMeshBuilder.obj
 0001:00023050       ??_GTriangleMeshBuilder@physx@@UEAAPEAXI@Z 0000000180024050 f i TriangleMeshBuilder.obj
 0001:00023090       ??_ETriangleMeshData@Gu@physx@@UEAAPEAXI@Z 0000000180024090 f i TriangleMeshBuilder.obj
 0001:00023090       ??_GTriangleMeshData@Gu@physx@@UEAAPEAXI@Z 0000000180024090 f i TriangleMeshBuilder.obj
 0001:000230f0       ?LeafSetData@Gu@physx@@YAIII@Z 00000001800240f0 f i TriangleMeshBuilder.obj
 0001:000231c0       ?SetData@LeafTriangles@Gu@physx@@QEAAXII@Z 00000001800241c0 f i TriangleMeshBuilder.obj
 0001:000231f0       ?WriteDwordBuffer@physx@@YAXPEBII_NAEAVPxOutputStream@1@@Z 00000001800241f0 f i TriangleMeshBuilder.obj
 0001:00023230       ?allocate@?$Array@USharpEdgeRange@GrbTrimeshCookerHelper@physx@@VNamedAllocator@shdfnd@3@@shdfnd@physx@@IEAAPEAUSharpEdgeRange@GrbTrimeshCookerHelper@3@I@Z 0000000180024230 f i TriangleMeshBuilder.obj
 0001:000232c0       ?allocate@?$Array@USortedNeighbor@GrbTrimeshCookerHelper@physx@@VNamedAllocator@shdfnd@3@@shdfnd@physx@@IEAAPEAUSortedNeighbor@GrbTrimeshCookerHelper@3@I@Z 00000001800242c0 f i TriangleMeshBuilder.obj
 0001:00023350       ?allocate@?$ReflectionAllocator@E@shdfnd@physx@@QEAAPEAX_KPEBDH@Z 0000000180024350 f i TriangleMeshBuilder.obj
 0001:000233d0       ?allocate@?$ReflectionAllocator@G@shdfnd@physx@@QEAAPEAX_KPEBDH@Z 00000001800243d0 f i TriangleMeshBuilder.obj
 0001:00023450       ?allocate@?$ReflectionAllocator@VBV32Tree@Gu@physx@@@shdfnd@physx@@QEAAPEAX_KPEBDH@Z 0000000180024450 f i TriangleMeshBuilder.obj
 0001:000234d0       ?allocate@?$ReflectionAllocator@VEdgeListBuilder@Gu@physx@@@shdfnd@physx@@QEAAPEAX_KPEBDH@Z 00000001800244d0 f i TriangleMeshBuilder.obj
 0001:00023550       ?allocateMaterials@TriangleMeshData@Gu@physx@@QEAAPEAGXZ 0000000180024550 f i TriangleMeshBuilder.obj
 0001:00023680       ?allocateTriangles@TriangleMeshData@Gu@physx@@QEAAPEAXI_NI@Z 0000000180024680 f i TriangleMeshBuilder.obj
 0001:000238c0       ?allocateVertices@MeshDataBase@Gu@physx@@QEAAPEAVPxVec3@3@I@Z 00000001800248c0 f i TriangleMeshBuilder.obj
 0001:000239a0       ?begin@?$Array@USortedNeighbor@GrbTrimeshCookerHelper@physx@@VNamedAllocator@shdfnd@3@@shdfnd@physx@@QEAAPEAUSortedNeighbor@GrbTrimeshCookerHelper@3@XZ 00000001800249a0 f i TriangleMeshBuilder.obj
 0001:000239b0       ?capacity@?$Array@USharpEdgeRange@GrbTrimeshCookerHelper@physx@@VNamedAllocator@shdfnd@3@@shdfnd@physx@@QEBAIXZ 00000001800249b0 f i TriangleMeshBuilder.obj
 0001:000239d0       ?capacity@?$Array@USortedNeighbor@GrbTrimeshCookerHelper@physx@@VNamedAllocator@shdfnd@3@@shdfnd@physx@@QEBAIXZ 00000001800249d0 f i TriangleMeshBuilder.obj
 0001:000239f0       ?capacityIncrement@?$Array@USortedNeighbor@GrbTrimeshCookerHelper@physx@@VNamedAllocator@shdfnd@3@@shdfnd@physx@@IEBAIXZ 00000001800249f0 f i TriangleMeshBuilder.obj
 0001:00023a30       ?copy@?$Array@USharpEdgeRange@GrbTrimeshCookerHelper@physx@@VNamedAllocator@shdfnd@3@@shdfnd@physx@@KAXPEAUSharpEdgeRange@GrbTrimeshCookerHelper@3@0PEBU453@@Z 0000000180024a30 f i TriangleMeshBuilder.obj
 0001:00023ab0       ?copy@?$Array@USortedNeighbor@GrbTrimeshCookerHelper@physx@@VNamedAllocator@shdfnd@3@@shdfnd@physx@@KAXPEAUSortedNeighbor@GrbTrimeshCookerHelper@3@0PEBU453@@Z 0000000180024ab0 f i TriangleMeshBuilder.obj
 0001:00023b30       ?create@?$Array@USharpEdgeRange@GrbTrimeshCookerHelper@physx@@VNamedAllocator@shdfnd@3@@shdfnd@physx@@KAXPEAUSharpEdgeRange@GrbTrimeshCookerHelper@3@0AEBU453@@Z 0000000180024b30 f i TriangleMeshBuilder.obj
 0001:00023b90       ?deallocate@?$AlignedAllocator@$0IA@VNonTrackingAllocator@shdfnd@physx@@@shdfnd@physx@@QEAAXPEAX@Z 0000000180024b90 f i TriangleMeshBuilder.obj
 0001:00023be0       ?deallocate@?$Array@USharpEdgeRange@GrbTrimeshCookerHelper@physx@@VNamedAllocator@shdfnd@3@@shdfnd@physx@@IEAAXPEAX@Z 0000000180024be0 f i TriangleMeshBuilder.obj
 0001:00023c10       ?deallocate@?$Array@USortedNeighbor@GrbTrimeshCookerHelper@physx@@VNamedAllocator@shdfnd@3@@shdfnd@physx@@IEAAXPEAX@Z 0000000180024c10 f i TriangleMeshBuilder.obj
 0001:00023c40       ?destroy@?$Array@USharpEdgeRange@GrbTrimeshCookerHelper@physx@@VNamedAllocator@shdfnd@3@@shdfnd@physx@@KAXPEAUSharpEdgeRange@GrbTrimeshCookerHelper@3@0@Z 0000000180024c40 f i TriangleMeshBuilder.obj
 0001:00023c70       ?destroy@?$Array@USortedNeighbor@GrbTrimeshCookerHelper@physx@@VNamedAllocator@shdfnd@3@@shdfnd@physx@@KAXPEAUSortedNeighbor@GrbTrimeshCookerHelper@3@0@Z 0000000180024c70 f i TriangleMeshBuilder.obj
 0001:00023ca0       ?findEdgeCCW@?$TriangleT@I@Gu@physx@@QEBAEII@Z 0000000180024ca0 f i TriangleMeshBuilder.obj
 0001:00023e00       ?getMidphaseID@BV4TriangleMeshBuilder@physx@@UEBA?AW4Enum@PxMeshMidPhase@2@XZ 0000000180024e00 f i TriangleMeshBuilder.obj
 0001:00023e10       ?getMidphaseID@RTreeTriangleMeshBuilder@physx@@UEBA?AW4Enum@PxMeshMidPhase@2@XZ 0000000180024e10 f i TriangleMeshBuilder.obj
 0001:00023e20       ?getName@?$ReflectionAllocator@E@shdfnd@physx@@CAPEBDXZ 0000000180024e20 f i TriangleMeshBuilder.obj
 0001:00023e60       ?getName@?$ReflectionAllocator@G@shdfnd@physx@@CAPEBDXZ 0000000180024e60 f i TriangleMeshBuilder.obj
 0001:00023ea0       ?getName@?$ReflectionAllocator@VBV32Tree@Gu@physx@@@shdfnd@physx@@CAPEBDXZ 0000000180024ea0 f i TriangleMeshBuilder.obj
 0001:00023ee0       ?getName@?$ReflectionAllocator@VEdgeListBuilder@Gu@physx@@@shdfnd@physx@@CAPEBDXZ 0000000180024ee0 f i TriangleMeshBuilder.obj
 0001:00023f20       ?getNbFaces@EdgeList@Gu@physx@@QEBAIXZ 0000000180024f20 f i TriangleMeshBuilder.obj
 0001:00023f30       ?getRemap@SourceMeshBase@Gu@physx@@QEBAPEBIXZ 0000000180024f30 f i TriangleMeshBuilder.obj
 0001:00023f40       ?grow@?$Array@USharpEdgeRange@GrbTrimeshCookerHelper@physx@@VNamedAllocator@shdfnd@3@@shdfnd@physx@@IEAAXI@Z 0000000180024f40 f i TriangleMeshBuilder.obj
 0001:00023fc0       ?grow@?$Array@USortedNeighbor@GrbTrimeshCookerHelper@physx@@VNamedAllocator@shdfnd@3@@shdfnd@physx@@IEAAXI@Z 0000000180024fc0 f i TriangleMeshBuilder.obj
 0001:00024040       ?growAndPushBack@?$Array@USortedNeighbor@GrbTrimeshCookerHelper@physx@@VNamedAllocator@shdfnd@3@@shdfnd@physx@@IEAAAEAUSortedNeighbor@GrbTrimeshCookerHelper@3@AEBU453@@Z 0000000180025040 f i TriangleMeshBuilder.obj
 0001:00024210       ?has16BitIndices@MeshDataBase@Gu@physx@@QEBA_NXZ 0000000180025210 f i TriangleMeshBuilder.obj
 0001:00024240       ?initRemap@SourceMeshBase@Gu@physx@@QEAAXXZ 0000000180025240 f i TriangleMeshBuilder.obj
 0001:00024260       ?isInUserMemory@?$Array@USharpEdgeRange@GrbTrimeshCookerHelper@physx@@VNamedAllocator@shdfnd@3@@shdfnd@physx@@QEBAIXZ 0000000180025260 f i TriangleMeshBuilder.obj
 0001:00024280       ?isInUserMemory@?$Array@USortedNeighbor@GrbTrimeshCookerHelper@physx@@VNamedAllocator@shdfnd@3@@shdfnd@physx@@QEBAIXZ 0000000180025280 f i TriangleMeshBuilder.obj
 0001:000242a0       ?isValid@PxBVH33MidphaseDesc@physx@@QEBA_NXZ 00000001800252a0 f i TriangleMeshBuilder.obj
 0001:000242d0       ?isValid@PxBVH34MidphaseDesc@physx@@QEBA_NXZ 00000001800252d0 f i TriangleMeshBuilder.obj
 0001:000242f0       ?isValid@PxMidphaseDesc@physx@@QEBA_NXZ 00000001800252f0 f i TriangleMeshBuilder.obj
 0001:00024340       ?onMeshIndexFormatChange@TriangleMeshBuilder@physx@@UEAAXXZ 0000000180025340 f i TriangleMeshBuilder.obj
 0001:00024350       ?pushBack@?$Array@USortedNeighbor@GrbTrimeshCookerHelper@physx@@VNamedAllocator@shdfnd@3@@shdfnd@physx@@QEAAAEAUSortedNeighbor@GrbTrimeshCookerHelper@3@AEBU453@@Z 0000000180025350 f i TriangleMeshBuilder.obj
 0001:00024400       ?recreate@?$Array@USharpEdgeRange@GrbTrimeshCookerHelper@physx@@VNamedAllocator@shdfnd@3@@shdfnd@physx@@IEAAXI@Z 0000000180025400 f i TriangleMeshBuilder.obj
 0001:00024510       ?recreate@?$Array@USortedNeighbor@GrbTrimeshCookerHelper@physx@@VNamedAllocator@shdfnd@3@@shdfnd@physx@@IEAAXI@Z 0000000180025510 f i TriangleMeshBuilder.obj
 0001:00024630       ?release@RTree@Gu@physx@@QEAAXXZ 0000000180025630 f i TriangleMeshBuilder.obj
 0001:00024690       ?releaseRemap@SourceMeshBase@Gu@physx@@QEAAXXZ 0000000180025690 f i TriangleMeshBuilder.obj
 0001:000246d0       ?remap@RTreeCookerRemap@physx@@UEAAXPEAIII@Z 00000001800256d0 f i TriangleMeshBuilder.obj
 0001:000248c0       ?reserve@?$Array@USharpEdgeRange@GrbTrimeshCookerHelper@physx@@VNamedAllocator@shdfnd@3@@shdfnd@physx@@QEAAXI@Z 00000001800258c0 f i TriangleMeshBuilder.obj
 0001:000248f0       ?reserve@?$Array@USortedNeighbor@GrbTrimeshCookerHelper@physx@@VNamedAllocator@shdfnd@3@@shdfnd@physx@@QEAAXI@Z 00000001800258f0 f i TriangleMeshBuilder.obj
 0001:00024920       ?resize@?$Array@USharpEdgeRange@GrbTrimeshCookerHelper@physx@@VNamedAllocator@shdfnd@3@@shdfnd@physx@@QEAAXIAEBUSharpEdgeRange@GrbTrimeshCookerHelper@3@@Z 0000000180025920 f i TriangleMeshBuilder.obj
 0001:000249b0       ?resizeUninitialized@?$Array@USortedNeighbor@GrbTrimeshCookerHelper@physx@@VNamedAllocator@shdfnd@3@@shdfnd@physx@@QEAAXI@Z 00000001800259b0 f i TriangleMeshBuilder.obj
 0001:000249e0       ?setNbTriangles@SourceMesh@Gu@physx@@QEAAXI@Z 00000001800259e0 f i TriangleMeshBuilder.obj
 0001:00024a00       ?setNbVertices@SourceMeshBase@Gu@physx@@QEAAXI@Z 0000000180025a00 f i TriangleMeshBuilder.obj
 0001:00024a20       ?setPointers@SourceMesh@Gu@physx@@QEAAXPEAVIndTri32@23@PEAVIndTri16@23@PEBVPxVec3@3@@Z 0000000180025a20 f i TriangleMeshBuilder.obj
 0001:00024a60       ?setTriangleAdjacency@TriangleMeshData@Gu@physx@@QEAAXIII@Z 0000000180025a60 f i TriangleMeshBuilder.obj
 0001:00024af0       ?size@?$Array@USortedNeighbor@GrbTrimeshCookerHelper@physx@@VNamedAllocator@shdfnd@3@@shdfnd@physx@@QEBAIXZ 0000000180025af0 f i TriangleMeshBuilder.obj
 0001:00024b00       ?to16@shdfnd@physx@@YAGI@Z 0000000180025b00 f i TriangleMeshBuilder.obj
 0001:00024b70       ?writeChunk@physx@@YAXCCCCAEAVPxOutputStream@1@@Z 0000000180025b70 f i TriangleMeshBuilder.obj
 0001:00024c00       ?writeIntBuffer@physx@@YAXPEBII_NAEAVPxOutputStream@1@@Z 0000000180025c00 f i TriangleMeshBuilder.obj
 0001:00024c40       ??0BigConvexDataBuilder@physx@@QEAA@PEBUConvexHullData@Gu@1@PEAVBigConvexData@1@PEBVPxVec3@1@@Z 0000000180025c40 f   BigConvexDataBuilder.obj
 0001:00024c90       ??1BigConvexDataBuilder@physx@@QEAA@XZ 0000000180025c90 f   BigConvexDataBuilder.obj
 0001:00024ca0       ?precompute@BigConvexDataBuilder@physx@@QEAA_NI@Z 0000000180025ca0 f   BigConvexDataBuilder.obj
 0001:000252c0       ?initialize@BigConvexDataBuilder@physx@@QEAA_NXZ 00000001800262c0 f   BigConvexDataBuilder.obj
 0001:00025330       ?save@BigConvexDataBuilder@physx@@QEBA_NAEAVPxOutputStream@2@_N@Z 0000000180026330 f   BigConvexDataBuilder.obj
 0001:00025460       ?computeValencies@BigConvexDataBuilder@physx@@QEAA_NAEBVConvexHullBuilder@2@@Z 0000000180026460 f   BigConvexDataBuilder.obj
 0001:00025ca0       ?saveValencies@BigConvexDataBuilder@physx@@QEBA_NAEAVPxOutputStream@2@_N@Z 0000000180026ca0 f   BigConvexDataBuilder.obj
 0001:00025ee0       ??0BigConvexData@physx@@QEAA@W4PxEMPTY@1@@Z 0000000180026ee0 f i BigConvexDataBuilder.obj
 0001:00025ef0       ??4BigConvexData@physx@@QEAAAEAV01@AEBV01@@Z 0000000180026ef0 f i BigConvexDataBuilder.obj
 0001:00025f20       ?GetAdjacentVerts@BigConvexData@physx@@QEBAPEBEXZ 0000000180026f20 f i BigConvexDataBuilder.obj
 0001:00025f30       ?GetNbNeighbors@BigConvexData@physx@@QEBAGI@Z 0000000180026f30 f i BigConvexDataBuilder.obj
 0001:00025f50       ?GetNbSamples@BigConvexData@physx@@QEBAIXZ 0000000180026f50 f i BigConvexDataBuilder.obj
 0001:00025f60       ?GetNbVerts@BigConvexData@physx@@QEBAIXZ 0000000180026f60 f i BigConvexDataBuilder.obj
 0001:00025f70       ?GetNeighbors@BigConvexData@physx@@QEBAPEBEI@Z 0000000180026f70 f i BigConvexDataBuilder.obj
 0001:00025fa0       ?GetOffset@BigConvexData@physx@@QEBAGI@Z 0000000180026fa0 f i BigConvexDataBuilder.obj
 0001:00025fc0       ?GetSubdiv@BigConvexData@physx@@QEBAIXZ 0000000180026fc0 f i BigConvexDataBuilder.obj
 0001:00025fd0       ?GetValencies@BigConvexData@physx@@QEBAPEBUValency@Gu@2@XZ 0000000180026fd0 f i BigConvexDataBuilder.obj
 0001:00025fe0       ?GetValency@BigConvexData@physx@@QEBAGI@Z 0000000180026fe0 f i BigConvexDataBuilder.obj
 0001:00026000       ?precomputeSample@BigConvexDataBuilder@physx@@IEAAXAEBVPxVec3@2@AEAEM@Z 0000000180027000 f i BigConvexDataBuilder.obj
 0001:00026360       ??0ConvexHullBuilder@physx@@QEAA@PEAUConvexHullData@Gu@1@_N@Z 0000000180027360 f   ConvexHullBuilder.obj
 0001:000263f0       ??1ConvexHullBuilder@physx@@QEAA@XZ 00000001800273f0 f   ConvexHullBuilder.obj
 0001:00026530       ?init@ConvexHullBuilder@physx@@QEAA_NIPEBVPxVec3@2@PEBIIIPEBUPxHullPolygon@2@_NPEAVConvexHullLib@2@@Z 0000000180027530 f   ConvexHullBuilder.obj
 0001:00026df0       ?save@ConvexHullBuilder@physx@@QEBA_NAEAVPxOutputStream@2@_N@Z 0000000180027df0 f   ConvexHullBuilder.obj
 0001:000271d0       ?copy@ConvexHullBuilder@physx@@QEAA_NAEAUConvexHullData@Gu@2@AEAI@Z 00000001800281d0 f   ConvexHullBuilder.obj
 0001:00027950       ?createEdgeList@ConvexHullBuilder@physx@@QEAA_N_NI@Z 0000000180028950 f   ConvexHullBuilder.obj
 0001:00028740       ?checkHullPolygons@ConvexHullBuilder@physx@@QEBA_NXZ 0000000180029740 f   ConvexHullBuilder.obj
 0001:00028ff0       ?calculateVertexMapTable@ConvexHullBuilder@physx@@QEAA_NI_N@Z 0000000180029ff0 f   ConvexHullBuilder.obj
 0001:000292a0       ?computeGeomCenter@ConvexHullBuilder@physx@@IEBA_NAEAVPxVec3@2@IPEAUHullTriangleData@2@@Z 000000018002a2a0 f   ConvexHullBuilder.obj
 0001:00029450       ??$?_UUEdgeDescData@Gu@physx@@@@YAPEAX_KV?$ReflectionAllocator@UEdgeDescData@Gu@physx@@@shdfnd@physx@@PEBDH@Z 000000018002a450 f i ConvexHullBuilder.obj
 0001:00029490       ??$?_U_N@@YAPEAX_KV?$ReflectionAllocator@_N@shdfnd@physx@@PEBDH@Z 000000018002a490 f i ConvexHullBuilder.obj
 0001:000294d0       ??0?$PxBitAndDataT@G$0IAAA@@physx@@QEAA@G_N@Z 000000018002a4d0 f i ConvexHullBuilder.obj
 0001:00029520       ??0?$ReflectionAllocator@UEdgeDescData@Gu@physx@@@shdfnd@physx@@QEAA@PEBD@Z 000000018002a520 f i ConvexHullBuilder.obj
 0001:00029530       ??0?$ReflectionAllocator@_N@shdfnd@physx@@QEAA@PEBD@Z 000000018002a530 f i ConvexHullBuilder.obj
 0001:00029540       ??0?$TriangleT@I@Gu@physx@@QEAA@III@Z 000000018002a540 f i ConvexHullBuilder.obj
 0001:000295a0       ??0HullPolygonData@Gu@physx@@QEAA@AEBU012@@Z 000000018002a5a0 f i ConvexHullBuilder.obj
 0001:00029600       ??0PxPlane@physx@@QEAA@AEBV01@@Z 000000018002a600 f i ConvexHullBuilder.obj
 0001:00029640       ??0PxPlane@physx@@QEAA@MMMM@Z 000000018002a640 f i ConvexHullBuilder.obj
 0001:000296a0       ??4PxPlane@physx@@QEAAAEAV01@$$QEAV01@@Z 000000018002a6a0 f i ConvexHullBuilder.obj
 0001:000296e0       ?PxMemSet@physx@@YAPEAXPEAXHI@Z 000000018002a6e0 f i ConvexHullBuilder.obj
 0001:00029710       ?allocate@?$ReflectionAllocator@UEdgeDescData@Gu@physx@@@shdfnd@physx@@QEAAPEAX_KPEBDH@Z 000000018002a710 f i ConvexHullBuilder.obj
 0001:00029790       ?allocate@?$ReflectionAllocator@_N@shdfnd@physx@@QEAAPEAX_KPEBDH@Z 000000018002a790 f i ConvexHullBuilder.obj
 0001:00029810       ?area@?$TriangleT@I@Gu@physx@@QEBAMPEBVPxVec3@3@@Z 000000018002a810 f i ConvexHullBuilder.obj
 0001:00029900       ?center@?$TriangleT@I@Gu@physx@@QEBAXPEBVPxVec3@3@AEAV43@@Z 000000018002a900 f i ConvexHullBuilder.obj
 0001:000299e0       ?computeBufferSize@Gu@physx@@YAIAEBUConvexHullData@12@I@Z 000000018002a9e0 f i ConvexHullBuilder.obj
 0001:00029b00       ?computeNbPolygons@ConvexHullBuilder@physx@@QEBAIXZ 000000018002ab00 f i ConvexHullBuilder.obj
 0001:00029b80       ?flip@physx@@YAXAEAG@Z     000000018002ab80 f i ConvexHullBuilder.obj
 0001:00029bf0       ?flip@physx@@YAXAEAM@Z     000000018002abf0 f i ConvexHullBuilder.obj
 0001:00029cb0       ?flipData@Gu@physx@@YAXAEAUHullPolygonData@12@@Z 000000018002acb0 f i ConvexHullBuilder.obj
 0001:00029d10       ?getName@?$ReflectionAllocator@UEdgeDescData@Gu@physx@@@shdfnd@physx@@CAPEBDXZ 000000018002ad10 f i ConvexHullBuilder.obj
 0001:00029d50       ?getName@?$ReflectionAllocator@_N@shdfnd@physx@@CAPEBDXZ 000000018002ad50 f i ConvexHullBuilder.obj
 0001:00029d90       ?memSet@intrinsics@physx@@YAPEAXPEAXHI@Z 000000018002ad90 f i ConvexHullBuilder.obj
 0001:00029dc0       ?to8@shdfnd@physx@@YAEI@Z  000000018002adc0 f i ConvexHullBuilder.obj
 0001:00029e30       ??1ConvexHullLib@physx@@UEAA@XZ 000000018002ae30 f   ConvexHullLib.obj
 0001:00029eb0       ?cleanupVertices@ConvexHullLib@physx@@IEAA_NIPEBVPxVec3@2@IAEAIPEAV32@AEAV32@3@Z 000000018002aeb0 f   ConvexHullLib.obj
 0001:0002a5c0       ?shiftAndcleanupVertices@ConvexHullLib@physx@@IEAA_NIPEBVPxVec3@2@IAEAIPEAV32@AEAV32@3@Z 000000018002b5c0 f   ConvexHullLib.obj
 0001:0002a7c0       ?swapLargestFace@ConvexHullLib@physx@@IEAAXAEAVPxConvexMeshDesc@2@@Z 000000018002b7c0 f   ConvexHullLib.obj
 0001:0002abb0       ?shiftConvexMeshDesc@ConvexHullLib@physx@@IEAAXAEAVPxConvexMeshDesc@2@@Z 000000018002bbb0 f   ConvexHullLib.obj
 0001:0002b3f0       ??_GConvexHullLib@physx@@UEAAPEAXI@Z 000000018002c3f0 f i ConvexHullLib.obj
 0001:0002b3f0       ??_EConvexHullLib@physx@@UEAAPEAXI@Z 000000018002c3f0 f i ConvexHullLib.obj
 0001:0002b430       ??0ConvexHull@physx@@QEAA@AEBVPxVec3@1@0AEBV?$Array@VPxPlane@physx@@VNamedAllocator@shdfnd@2@@shdfnd@1@@Z 000000018002c430 f   ConvexHullUtils.obj
 0001:0002bce0       ??0ConvexHull@physx@@QEAA@AEBVPxVec3@1@AEBVPxTransform@1@AEBV?$Array@VPxPlane@physx@@VNamedAllocator@shdfnd@2@@shdfnd@1@@Z 000000018002cce0 f   ConvexHullUtils.obj
 0001:0002c710       ?findCandidatePlane@ConvexHull@physx@@QEBAHMM@Z 000000018002d710 f   ConvexHullUtils.obj
 0001:0002cb10       ?assertIntact@ConvexHull@physx@@QEBA_NM@Z 000000018002db10 f   ConvexHullUtils.obj
 0001:0002d310       ?maxNumVertsPerFace@ConvexHull@physx@@QEBAIXZ 000000018002e310 f   ConvexHullUtils.obj
 0001:0002d3e0       ?convexHullCrop@physx@@YAPEAVConvexHull@1@AEBV21@AEBVPxPlane@1@M@Z 000000018002e3e0 f   ConvexHullUtils.obj
 0001:0002ea50       ?computeOBBFromConvex@physx@@YA_NAEBVPxConvexMeshDesc@1@AEAVPxVec3@1@AEAVPxTransform@1@@Z 000000018002fa50 f   ConvexHullUtils.obj
 0001:0002f390       ?computeOBBSIMD@local@@YAXIPEBT__m128@@AEAT2@AEBT2@1@Z 0000000180030390 f   ConvexHullUtils.obj
 0001:0002f9f0       ??$?2V?$ReflectionAllocator@VConvexHull@physx@@@shdfnd@physx@@@UserAllocated@shdfnd@physx@@SAPEAX_KV?$ReflectionAllocator@VConvexHull@physx@@@12@PEBDH@Z 00000001800309f0 f i ConvexHullUtils.obj
 0001:0002fa30       ??0?$Array@VHalfEdge@ConvexHull@physx@@VNamedAllocator@shdfnd@3@@shdfnd@physx@@QEAA@AEBVNamedAllocator@12@@Z 0000000180030a30 f i ConvexHullUtils.obj
 0001:0002fa80       ??0?$Array@VPxPlane@physx@@VNamedAllocator@shdfnd@2@@shdfnd@physx@@QEAA@AEBVNamedAllocator@12@@Z 0000000180030a80 f i ConvexHullUtils.obj
 0001:0002fad0       ??0?$ReflectionAllocator@VConvexHull@physx@@@shdfnd@physx@@QEAA@PEBD@Z 0000000180030ad0 f i ConvexHullUtils.obj
 0001:0002fae0       ??0Box@Gu@physx@@QEAA@AEBV012@@Z 0000000180030ae0 f i ConvexHullUtils.obj
 0001:0002fb40       ??0Box@Gu@physx@@QEAA@AEBVPxVec3@2@0AEBVPxMat33@2@@Z 0000000180030b40 f i ConvexHullUtils.obj
 0001:0002fba0       ??0Box@Gu@physx@@QEAA@XZ   0000000180030ba0 f i ConvexHullUtils.obj
 0001:0002fbf0       ??0ConvexHull@physx@@QEAA@AEBV01@@Z 0000000180030bf0 f i ConvexHullUtils.obj
 0001:0002fca0       ??0ConvexHull@physx@@QEAA@AEBV?$Array@VPxPlane@physx@@VNamedAllocator@shdfnd@2@@shdfnd@1@@Z 0000000180030ca0 f i ConvexHullUtils.obj
 0001:0002fd40       ??0HalfEdge@ConvexHull@physx@@QEAA@FEE@Z 0000000180030d40 f i ConvexHullUtils.obj
 0001:0002fd90       ??0HalfEdge@ConvexHull@physx@@QEAA@XZ 0000000180030d90 f i ConvexHullUtils.obj
 0001:0002fda0       ??0Mat33V@aos@shdfnd@physx@@QEAA@XZ 0000000180030da0 f i ConvexHullUtils.obj
 0001:0002fdb0       ??0PxBoundedData@physx@@QEAA@XZ 0000000180030db0 f i ConvexHullUtils.obj
 0001:0002fde0       ??0PxConvexMeshDesc@physx@@QEAA@XZ 0000000180030de0 f i ConvexHullUtils.obj
 0001:0002fe50       ??0PxIntegrals@physx@@QEAA@XZ 0000000180030e50 f i ConvexHullUtils.obj
 0001:0002fe70       ??0PxMat33@physx@@QEAA@AEBV01@@Z 0000000180030e70 f i ConvexHullUtils.obj
 0001:0002fed0       ??0PxMat33@physx@@QEAA@AEBVPxQuat@1@@Z 0000000180030ed0 f i ConvexHullUtils.obj
 0001:00030170       ??0PxMat33@physx@@QEAA@AEBVPxVec3@1@00@Z 0000000180031170 f i ConvexHullUtils.obj
 0001:000301d0       ??0PxMat33@physx@@QEAA@W4PxIDENTITY@1@@Z 00000001800311d0 f i ConvexHullUtils.obj
 0001:00030250       ??0PxPlane@physx@@QEAA@AEBVPxVec3@1@M@Z 0000000180031250 f i ConvexHullUtils.obj
 0001:00030290       ??0PxPlane@physx@@QEAA@XZ  0000000180031290 f i ConvexHullUtils.obj
 0001:000302b0       ??0PxQuat@physx@@QEAA@AEBV01@@Z 00000001800312b0 f i ConvexHullUtils.obj
 0001:00030310       ??0PxQuat@physx@@QEAA@AEBVPxMat33@1@@Z 0000000180031310 f i ConvexHullUtils.obj
 0001:00030760       ??0PxQuat@physx@@QEAA@MAEBVPxVec3@1@@Z 0000000180031760 f i ConvexHullUtils.obj
 0001:00030850       ??0PxQuat@physx@@QEAA@MMMM@Z 0000000180031850 f i ConvexHullUtils.obj
 0001:000308b0       ??0PxQuat@physx@@QEAA@XZ   00000001800318b0 f i ConvexHullUtils.obj
 0001:000308c0       ??0PxStridedData@physx@@QEAA@XZ 00000001800318c0 f i ConvexHullUtils.obj
 0001:000308f0       ??0PxTransform@physx@@QEAA@AEBVPxVec3@1@AEBVPxQuat@1@@Z 00000001800318f0 f i ConvexHullUtils.obj
 0001:00030970       ??1Box@Gu@physx@@QEAA@XZ   0000000180031970 f i ConvexHullUtils.obj
 0001:00030980       ??4Box@Gu@physx@@QEAAAEBV012@AEBV012@@Z 0000000180031980 f i ConvexHullUtils.obj
 0001:000309e0       ??4PxMat33@physx@@QEAAAEAV01@AEBV01@@Z 00000001800319e0 f i ConvexHullUtils.obj
 0001:00030a40       ??4PxPlane@physx@@QEAAAEAV01@AEBV01@@Z 0000000180031a40 f i ConvexHullUtils.obj
 0001:00030a80       ??4PxQuat@physx@@QEAAAEAV01@AEBV01@@Z 0000000180031a80 f i ConvexHullUtils.obj
 0001:00030ae0       ??8PxPlane@physx@@QEBA_NAEBV01@@Z 0000000180031ae0 f i ConvexHullUtils.obj
 0001:00030b40       ??8PxVec3@physx@@QEBA_NAEBV01@@Z 0000000180031b40 f i ConvexHullUtils.obj
 0001:00030bb0       ??A?$Array@VHalfEdge@ConvexHull@physx@@VNamedAllocator@shdfnd@3@@shdfnd@physx@@QEAAAEAVHalfEdge@ConvexHull@2@I@Z 0000000180031bb0 f i ConvexHullUtils.obj
 0001:00030c30       ??A?$Array@VHalfEdge@ConvexHull@physx@@VNamedAllocator@shdfnd@3@@shdfnd@physx@@QEBAAEBVHalfEdge@ConvexHull@2@I@Z 0000000180031c30 f i ConvexHullUtils.obj
 0001:00030cb0       ??A?$Array@VPxPlane@physx@@VNamedAllocator@shdfnd@2@@shdfnd@physx@@QEBAAEBVPxPlane@2@I@Z 0000000180031cb0 f i ConvexHullUtils.obj
 0001:00030d30       ??A?$Array@VPxVec3@physx@@VNamedAllocator@shdfnd@2@@shdfnd@physx@@QEBAAEBVPxVec3@2@I@Z 0000000180031d30 f i ConvexHullUtils.obj
 0001:00030db0       ??APxMat33@physx@@QEAAAEAVPxVec3@1@I@Z 0000000180031db0 f i ConvexHullUtils.obj
 0001:00030dd0       ??APxMat33@physx@@QEBAAEBVPxVec3@1@I@Z 0000000180031dd0 f i ConvexHullUtils.obj
 0001:00030df0       ??DPxMat33@physx@@QEBA?BVPxVec3@1@AEBV21@@Z 0000000180031df0 f i ConvexHullUtils.obj
 0001:00030e30       ??DPxQuat@physx@@QEBA?AV01@M@Z 0000000180031e30 f i ConvexHullUtils.obj
 0001:00030eb0       ??GPxVec3@physx@@QEBA?AV01@XZ 0000000180031eb0 f i ConvexHullUtils.obj
 0001:00030f20       ??RPxMat33@physx@@QEAAAEAMII@Z 0000000180031f20 f i ConvexHullUtils.obj
 0001:00030f60       ?FAdd@aos@shdfnd@physx@@YA?AT__m128@@T4@0@Z 0000000180031f60 f i ConvexHullUtils.obj
 0001:00031070       ?FMul@aos@shdfnd@physx@@YA?AT__m128@@T4@0@Z 0000000180032070 f i ConvexHullUtils.obj
 0001:00031180       ?FScaleAdd@aos@shdfnd@physx@@YA?AT__m128@@T4@00@Z 0000000180032180 f i ConvexHullUtils.obj
 0001:00031370       ?PxCos@physx@@YAMM@Z       0000000180032370 f i ConvexHullUtils.obj
 0001:00031390       ?PxSin@physx@@YAMM@Z       0000000180032390 f i ConvexHullUtils.obj
 0001:000313b0       ?QuatGetMat33V@aos@shdfnd@physx@@YAXAEBT__m128@@AEAT4@11@Z 00000001800323b0 f i ConvexHullUtils.obj
 0001:00031760       ?QuatRotateInv@aos@shdfnd@physx@@YA?AT__m128@@T4@0@Z 0000000180032760 f i ConvexHullUtils.obj
 0001:00031a40       ?QuatVLoadU@aos@shdfnd@physx@@YA?AT__m128@@PEBM@Z 0000000180032a40 f i ConvexHullUtils.obj
 0001:00031a70       ?V3Cross@aos@shdfnd@physx@@YA?AT__m128@@T4@0@Z 0000000180032a70 f i ConvexHullUtils.obj
 0001:00031c60       ?V3NegScaleSub@aos@shdfnd@physx@@YA?AT__m128@@T4@00@Z 0000000180032c60 f i ConvexHullUtils.obj
 0001:00031e50       ?V3Scale@aos@shdfnd@physx@@YA?AT__m128@@T4@0@Z 0000000180032e50 f i ConvexHullUtils.obj
 0001:00031f60       ?V3ScaleAdd@aos@shdfnd@physx@@YA?AT__m128@@T4@00@Z 0000000180032f60 f i ConvexHullUtils.obj
 0001:00032150       ?V4GetW@aos@shdfnd@physx@@YA?AT__m128@@T4@@Z 0000000180033150 f i ConvexHullUtils.obj
 0001:00032180       ?V4GetX@aos@shdfnd@physx@@YA?AT__m128@@T4@@Z 0000000180033180 f i ConvexHullUtils.obj
 0001:000321b0       ?V4GetY@aos@shdfnd@physx@@YA?AT__m128@@T4@@Z 00000001800331b0 f i ConvexHullUtils.obj
 0001:000321e0       ?V4GetZ@aos@shdfnd@physx@@YA?AT__m128@@T4@@Z 00000001800331e0 f i ConvexHullUtils.obj
 0001:00032210       ?V4Max@aos@shdfnd@physx@@YA?AT__m128@@T4@0@Z 0000000180033210 f i ConvexHullUtils.obj
 0001:00032240       ?V4Min@aos@shdfnd@physx@@YA?AT__m128@@T4@0@Z 0000000180033240 f i ConvexHullUtils.obj
 0001:00032270       ?V4Mul@aos@shdfnd@physx@@YA?AT__m128@@T4@0@Z 0000000180033270 f i ConvexHullUtils.obj
 0001:000322a0       ?V4MulAdd@aos@shdfnd@physx@@YA?AT__m128@@T4@00@Z 00000001800332a0 f i ConvexHullUtils.obj
 0001:00032330       ?V4Neg@aos@shdfnd@physx@@YA?AT__m128@@T4@@Z 0000000180033330 f i ConvexHullUtils.obj
 0001:00032360       ?Vec4V_From_Vec3V@aos@shdfnd@physx@@YA?AT__m128@@T4@@Z 0000000180033360 f i ConvexHullUtils.obj
 0001:00032370       ?allocate@?$Array@VHalfEdge@ConvexHull@physx@@VNamedAllocator@shdfnd@3@@shdfnd@physx@@IEAAPEAVHalfEdge@ConvexHull@3@I@Z 0000000180033370 f i ConvexHullUtils.obj
 0001:00032400       ?allocate@?$Array@VPxPlane@physx@@VNamedAllocator@shdfnd@2@@shdfnd@physx@@IEAAPEAVPxPlane@3@I@Z 0000000180033400 f i ConvexHullUtils.obj
 0001:00032490       ?allocate@?$ReflectionAllocator@VConvexHull@physx@@@shdfnd@physx@@QEAAPEAX_KPEBDH@Z 0000000180033490 f i ConvexHullUtils.obj
 0001:00032510       ?begin@?$Array@VHalfEdge@ConvexHull@physx@@VNamedAllocator@shdfnd@3@@shdfnd@physx@@QEAAPEAVHalfEdge@ConvexHull@3@XZ 0000000180033510 f i ConvexHullUtils.obj
 0001:00032520       ?begin@?$Array@VHalfEdge@ConvexHull@physx@@VNamedAllocator@shdfnd@3@@shdfnd@physx@@QEBAPEBVHalfEdge@ConvexHull@3@XZ 0000000180033520 f i ConvexHullUtils.obj
 0001:00032530       ?begin@?$Array@VPxPlane@physx@@VNamedAllocator@shdfnd@2@@shdfnd@physx@@QEAAPEAVPxPlane@3@XZ 0000000180033530 f i ConvexHullUtils.obj
 0001:00032540       ?begin@?$Array@VPxPlane@physx@@VNamedAllocator@shdfnd@2@@shdfnd@physx@@QEBAPEBVPxPlane@3@XZ 0000000180033540 f i ConvexHullUtils.obj
 0001:00032550       ?begin@?$Array@VPxVec3@physx@@VNamedAllocator@shdfnd@2@@shdfnd@physx@@QEBAPEBVPxVec3@3@XZ 0000000180033550 f i ConvexHullUtils.obj
 0001:00032560       ?capacity@?$Array@VHalfEdge@ConvexHull@physx@@VNamedAllocator@shdfnd@3@@shdfnd@physx@@QEBAIXZ 0000000180033560 f i ConvexHullUtils.obj
 0001:00032580       ?capacity@?$Array@VPxPlane@physx@@VNamedAllocator@shdfnd@2@@shdfnd@physx@@QEBAIXZ 0000000180033580 f i ConvexHullUtils.obj
 0001:000325a0       ?capacityIncrement@?$Array@VHalfEdge@ConvexHull@physx@@VNamedAllocator@shdfnd@3@@shdfnd@physx@@IEBAIXZ 00000001800335a0 f i ConvexHullUtils.obj
 0001:000325e0       ?capacityIncrement@?$Array@VPxPlane@physx@@VNamedAllocator@shdfnd@2@@shdfnd@physx@@IEBAIXZ 00000001800335e0 f i ConvexHullUtils.obj
 0001:00032620       ?computeAABBExtent@Box@Gu@physx@@QEBA?AVPxVec3@3@XZ 0000000180033620 f i ConvexHullUtils.obj
 0001:000328a0       ?computeBoxPoints@Box@Gu@physx@@QEBAXPEIAVPxVec3@3@@Z 00000001800338a0 f i ConvexHullUtils.obj
 0001:00032900       ?copy@?$Array@VHalfEdge@ConvexHull@physx@@VNamedAllocator@shdfnd@3@@shdfnd@physx@@KAXPEAVHalfEdge@ConvexHull@3@0PEBV453@@Z 0000000180033900 f i ConvexHullUtils.obj
 0001:00032980       ?copy@?$Array@VPxPlane@physx@@VNamedAllocator@shdfnd@2@@shdfnd@physx@@KAXPEAVPxPlane@3@0PEBV43@@Z 0000000180033980 f i ConvexHullUtils.obj
 0001:00032a00       ?copyHull@ConvexHull@physx@@QEAAXAEBV12@@Z 0000000180033a00 f i ConvexHullUtils.obj
 0001:00032c00       ?cos@intrinsics@physx@@YAMM@Z 0000000180033c00 f i ConvexHullUtils.obj
 0001:00032c20       ?create@?$Array@VHalfEdge@ConvexHull@physx@@VNamedAllocator@shdfnd@3@@shdfnd@physx@@KAXPEAVHalfEdge@ConvexHull@3@0AEBV453@@Z 0000000180033c20 f i ConvexHullUtils.obj
 0001:00032c80       ?create@?$Array@VPxPlane@physx@@VNamedAllocator@shdfnd@2@@shdfnd@physx@@KAXPEAVPxPlane@3@0AEBV43@@Z 0000000180033c80 f i ConvexHullUtils.obj
 0001:00032ce0       ?create@?$Array@VPxVec3@physx@@VNamedAllocator@shdfnd@2@@shdfnd@physx@@KAXPEAVPxVec3@3@0AEBV43@@Z 0000000180033ce0 f i ConvexHullUtils.obj
 0001:00032d40       ?deallocate@?$Array@VHalfEdge@ConvexHull@physx@@VNamedAllocator@shdfnd@3@@shdfnd@physx@@IEAAXPEAX@Z 0000000180033d40 f i ConvexHullUtils.obj
 0001:00032d70       ?deallocate@?$Array@VPxPlane@physx@@VNamedAllocator@shdfnd@2@@shdfnd@physx@@IEAAXPEAX@Z 0000000180033d70 f i ConvexHullUtils.obj
 0001:00032da0       ?degToRad@shdfnd@physx@@YAMM@Z 0000000180033da0 f i ConvexHullUtils.obj
 0001:00032dc0       ?destroy@?$Array@VHalfEdge@ConvexHull@physx@@VNamedAllocator@shdfnd@3@@shdfnd@physx@@KAXPEAVHalfEdge@ConvexHull@3@0@Z 0000000180033dc0 f i ConvexHullUtils.obj
 0001:00032df0       ?destroy@?$Array@VPxPlane@physx@@VNamedAllocator@shdfnd@2@@shdfnd@physx@@KAXPEAVPxPlane@3@0@Z 0000000180033df0 f i ConvexHullUtils.obj
 0001:00032e20       ?getDeterminant@PxMat33@physx@@QEBAMXZ 0000000180033e20 f i ConvexHullUtils.obj
 0001:00032e60       ?getEdges@ConvexHull@physx@@QEAAAEAV?$Array@VHalfEdge@ConvexHull@physx@@VNamedAllocator@shdfnd@3@@shdfnd@2@XZ 0000000180033e60 f i ConvexHullUtils.obj
 0001:00032e70       ?getEdges@ConvexHull@physx@@QEBAAEBV?$Array@VHalfEdge@ConvexHull@physx@@VNamedAllocator@shdfnd@3@@shdfnd@2@XZ 0000000180033e70 f i ConvexHullUtils.obj
 0001:00032e80       ?getFacets@ConvexHull@physx@@QEAAAEAV?$Array@VPxPlane@physx@@VNamedAllocator@shdfnd@2@@shdfnd@2@XZ 0000000180033e80 f i ConvexHullUtils.obj
 0001:00032e90       ?getFacets@ConvexHull@physx@@QEBAAEBV?$Array@VPxPlane@physx@@VNamedAllocator@shdfnd@2@@shdfnd@2@XZ 0000000180033e90 f i ConvexHullUtils.obj
 0001:00032ea0       ?getInputPlanes@ConvexHull@physx@@QEBAAEBV?$Array@VPxPlane@physx@@VNamedAllocator@shdfnd@2@@shdfnd@2@XZ 0000000180033ea0 f i ConvexHullUtils.obj
 0001:00032eb0       ?getInverse@PxMat33@physx@@QEBA?BV12@XZ 0000000180033eb0 f i ConvexHullUtils.obj
 0001:00033180       ?getName@?$ReflectionAllocator@VConvexHull@physx@@@shdfnd@physx@@CAPEBDXZ 0000000180034180 f i ConvexHullUtils.obj
 0001:000331c0       ?getOriginInertia@PxIntegrals@physx@@QEAAXAEAVPxMat33@2@@Z 00000001800341c0 f i ConvexHullUtils.obj
 0001:00033250       ?getTransform@Box@Gu@physx@@QEBA?AVPxTransform@3@XZ 0000000180034250 f i ConvexHullUtils.obj
 0001:000332a0       ?getTranspose@PxMat33@physx@@QEBA?BV12@XZ 00000001800342a0 f i ConvexHullUtils.obj
 0001:00033350       ?getVertices@ConvexHull@physx@@QEAAAEAV?$Array@VPxVec3@physx@@VNamedAllocator@shdfnd@2@@shdfnd@2@XZ 0000000180034350 f i ConvexHullUtils.obj
 0001:00033360       ?getVertices@ConvexHull@physx@@QEBAAEBV?$Array@VPxVec3@physx@@VNamedAllocator@shdfnd@2@@shdfnd@2@XZ 0000000180034360 f i ConvexHullUtils.obj
 0001:00033370       ?grow@?$Array@VHalfEdge@ConvexHull@physx@@VNamedAllocator@shdfnd@3@@shdfnd@physx@@IEAAXI@Z 0000000180034370 f i ConvexHullUtils.obj
 0001:000333f0       ?grow@?$Array@VPxPlane@physx@@VNamedAllocator@shdfnd@2@@shdfnd@physx@@IEAAXI@Z 00000001800343f0 f i ConvexHullUtils.obj
 0001:00033470       ?growAndPushBack@?$Array@VHalfEdge@ConvexHull@physx@@VNamedAllocator@shdfnd@3@@shdfnd@physx@@IEAAAEAVHalfEdge@ConvexHull@3@AEBV453@@Z 0000000180034470 f i ConvexHullUtils.obj
 0001:000335f0       ?growAndPushBack@?$Array@VPxPlane@physx@@VNamedAllocator@shdfnd@2@@shdfnd@physx@@IEAAAEAVPxPlane@3@AEBV43@@Z 00000001800345f0 f i ConvexHullUtils.obj
 0001:00033780       ?isFinite@PxQuat@physx@@QEBA_NXZ 0000000180034780 f i ConvexHullUtils.obj
 0001:00033800       ?isInUserMemory@?$Array@VHalfEdge@ConvexHull@physx@@VNamedAllocator@shdfnd@3@@shdfnd@physx@@QEBAIXZ 0000000180034800 f i ConvexHullUtils.obj
 0001:00033820       ?isInUserMemory@?$Array@VPxPlane@physx@@VNamedAllocator@shdfnd@2@@shdfnd@physx@@QEBAIXZ 0000000180034820 f i ConvexHullUtils.obj
 0001:00033840       ?isSane@PxQuat@physx@@QEBA_NXZ 0000000180034840 f i ConvexHullUtils.obj
 0001:000338b0       ?isValid@Box@Gu@physx@@QEBA_NXZ 00000001800348b0 f i ConvexHullUtils.obj
 0001:000338f0       ?magnitude@PxQuat@physx@@QEBAMXZ 00000001800348f0 f i ConvexHullUtils.obj
 0001:00033910       ?magnitudeSquared@PxQuat@physx@@QEBAMXZ 0000000180034910 f i ConvexHullUtils.obj
 0001:00033970       ?pushBack@?$Array@VHalfEdge@ConvexHull@physx@@VNamedAllocator@shdfnd@3@@shdfnd@physx@@QEAAAEAVHalfEdge@ConvexHull@3@AEBV453@@Z 0000000180034970 f i ConvexHullUtils.obj
 0001:00033a10       ?pushBack@?$Array@VPxPlane@physx@@VNamedAllocator@shdfnd@2@@shdfnd@physx@@QEAAAEAVPxPlane@3@AEBV43@@Z 0000000180034a10 f i ConvexHullUtils.obj
 0001:00033ab0       ?recreate@?$Array@VHalfEdge@ConvexHull@physx@@VNamedAllocator@shdfnd@3@@shdfnd@physx@@IEAAXI@Z 0000000180034ab0 f i ConvexHullUtils.obj
 0001:00033bc0       ?recreate@?$Array@VPxPlane@physx@@VNamedAllocator@shdfnd@2@@shdfnd@physx@@IEAAXI@Z 0000000180034bc0 f i ConvexHullUtils.obj
 0001:00033ce0       ?reserve@?$Array@VHalfEdge@ConvexHull@physx@@VNamedAllocator@shdfnd@3@@shdfnd@physx@@QEAAXI@Z 0000000180034ce0 f i ConvexHullUtils.obj
 0001:00033d10       ?reserve@?$Array@VPxPlane@physx@@VNamedAllocator@shdfnd@2@@shdfnd@physx@@QEAAXI@Z 0000000180034d10 f i ConvexHullUtils.obj
 0001:00033d40       ?resize@?$Array@VHalfEdge@ConvexHull@physx@@VNamedAllocator@shdfnd@3@@shdfnd@physx@@QEAAXIAEBVHalfEdge@ConvexHull@3@@Z 0000000180034d40 f i ConvexHullUtils.obj
 0001:00033dd0       ?resize@?$Array@VPxPlane@physx@@VNamedAllocator@shdfnd@2@@shdfnd@physx@@QEAAXIAEBVPxPlane@3@@Z 0000000180034dd0 f i ConvexHullUtils.obj
 0001:00033e60       ?resize@?$Array@VPxVec3@physx@@VNamedAllocator@shdfnd@2@@shdfnd@physx@@QEAAXIAEBVPxVec3@3@@Z 0000000180034e60 f i ConvexHullUtils.obj
 0001:00033ef0       ?rotate@Box@Gu@physx@@QEBA?AVPxVec3@3@AEBV43@@Z 0000000180034ef0 f i ConvexHullUtils.obj
 0001:00033f30       ?rotateInv@Box@Gu@physx@@QEBA?AVPxVec3@3@AEBV43@@Z 0000000180034f30 f i ConvexHullUtils.obj
 0001:00033f70       ?setAxes@Box@Gu@physx@@QEAAXAEBVPxVec3@3@00@Z 0000000180034f70 f i ConvexHullUtils.obj
 0001:00033fd0       ?setEmpty@Box@Gu@physx@@QEAAXXZ 0000000180034fd0 f i ConvexHullUtils.obj
 0001:00034050       ?sin@intrinsics@physx@@YAMM@Z 0000000180035050 f i ConvexHullUtils.obj
 0001:00034070       ?size@?$Array@VHalfEdge@ConvexHull@physx@@VNamedAllocator@shdfnd@3@@shdfnd@physx@@QEBAIXZ 0000000180035070 f i ConvexHullUtils.obj
 0001:00034080       ?size@?$Array@VPxPlane@physx@@VNamedAllocator@shdfnd@2@@shdfnd@physx@@QEBAIXZ 0000000180035080 f i ConvexHullUtils.obj
 0001:00034090       ?threePlaneIntersection@physx@@YA?AVPxVec3@1@AEBVPxPlane@1@00@Z 0000000180035090 f i ConvexHullUtils.obj
 0001:00034160       ?to8@shdfnd@physx@@YAEG@Z  0000000180035160 f i ConvexHullUtils.obj
 0001:000341d0       ?transform@Box@Gu@physx@@QEBA?AVPxVec3@3@AEBV43@@Z 00000001800351d0 f i ConvexHullUtils.obj
 0001:00034230       ?transform@PxMat33@physx@@QEBA?BVPxVec3@2@AEBV32@@Z 0000000180035230 f i ConvexHullUtils.obj
 0001:000342e0       ?transformTranspose@PxMat33@physx@@QEBA?BVPxVec3@2@AEBV32@@Z 00000001800352e0 f i ConvexHullUtils.obj
 0001:00034420       ??0ConvexMeshBuilder@physx@@QEAA@_N@Z 0000000180035420 f   ConvexMeshBuilder.obj
 0001:000344a0       ??1ConvexMeshBuilder@physx@@QEAA@XZ 00000001800354a0 f   ConvexMeshBuilder.obj
 0001:00034520       ?build@ConvexMeshBuilder@physx@@QEAA_NAEBVPxConvexMeshDesc@2@I_NPEAVConvexHullLib@2@@Z 0000000180035520 f   ConvexMeshBuilder.obj
 0001:00034640       ?save@ConvexMeshBuilder@physx@@QEBA_NAEAVPxOutputStream@2@_N@Z 0000000180035640 f   ConvexMeshBuilder.obj
 0001:00034980       ?copy@ConvexMeshBuilder@physx@@QEAA_NAEAUConvexHullInitData@Gu@2@@Z 0000000180035980 f   ConvexMeshBuilder.obj
 0001:00034b30       ?loadConvexHull@ConvexMeshBuilder@physx@@QEAA_NAEBVPxConvexMeshDesc@2@PEAVConvexHullLib@2@@Z 0000000180035b30 f   ConvexMeshBuilder.obj
 0001:00034f60       ?computeHullPolygons@ConvexMeshBuilder@physx@@QEAA_NAEBIPEBVPxVec3@2@0PEBIAEAVPxAllocatorCallback@2@AEAIAEAPEAV32@4AEAPEAI4AEAPEAUPxHullPolygon@2@@Z 0000000180035f60 f   ConvexMeshBuilder.obj
 0001:000353a0       ?computeGaussMaps@ConvexMeshBuilder@physx@@QEAA_NXZ 00000001800363a0 f   ConvexMeshBuilder.obj
 0001:000354f0       ?computeMassInfo@ConvexMeshBuilder@physx@@QEAAX_N@Z 00000001800364f0 f   ConvexMeshBuilder.obj
 0001:00035840       ?computeInternalObjects@ConvexMeshBuilder@physx@@QEAAXXZ 0000000180036840 f   ConvexMeshBuilder.obj
 0001:00036140       ??0?$ReflectionAllocator@VBigConvexData@physx@@@shdfnd@physx@@QEAA@PEBD@Z 0000000180037140 f i ConvexMeshBuilder.obj
 0001:00036150       ??0CenterExtents@Gu@physx@@QEAA@AEBVPxBounds3@2@@Z 0000000180037150 f i ConvexMeshBuilder.obj
 0001:000361d0       ??GPxMat33@physx@@QEBA?BV01@XZ 00000001800371d0 f i ConvexMeshBuilder.obj
 0001:00036250       ??_GBigConvexData@physx@@QEAAPEAXI@Z 0000000180037250 f i ConvexMeshBuilder.obj
 0001:000362b0       ?allocate@?$ReflectionAllocator@VBigConvexData@physx@@@shdfnd@physx@@QEAAPEAX_KPEBDH@Z 00000001800372b0 f i ConvexMeshBuilder.obj
 0001:00036330       ?getExtents@PxBounds3@physx@@QEBA?AVPxVec3@2@XZ 0000000180037330 f i ConvexMeshBuilder.obj
 0001:000363a0       ?getMax@CenterExtents@Gu@physx@@QEBA?AVPxVec3@3@XZ 00000001800373a0 f i ConvexMeshBuilder.obj
 0001:000363e0       ?getMin@CenterExtents@Gu@physx@@QEBA?AVPxVec3@3@XZ 00000001800373e0 f i ConvexMeshBuilder.obj
 0001:00036420       ?getName@?$ReflectionAllocator@VBigConvexData@physx@@@shdfnd@physx@@CAPEBDXZ 0000000180037420 f i ConvexMeshBuilder.obj
 0001:00036460       ?getNextIndex3@shdfnd@physx@@YAII@Z 0000000180037460 f i ConvexMeshBuilder.obj
 0001:00036480       ?largestAxis@shdfnd@physx@@YAIAEBVPxVec3@2@@Z 0000000180037480 f i ConvexMeshBuilder.obj
 0001:000364f0       ??0ConvexPolygonsBuilder@physx@@QEAA@PEAUConvexHullData@Gu@1@_N@Z 00000001800374f0 f   ConvexPolygonsBuilder.obj
 0001:00036550       ??1ConvexPolygonsBuilder@physx@@QEAA@XZ 0000000180037550 f   ConvexPolygonsBuilder.obj
 0001:000365a0       ?computeHullPolygons@ConvexPolygonsBuilder@physx@@QEAA_NAEBIPEBVPxVec3@2@0PEBI@Z 00000001800375a0 f   ConvexPolygonsBuilder.obj
 0001:00036b10       ?createPolygonData@ConvexPolygonsBuilder@physx@@AEAA_NXZ 0000000180037b10 f   ConvexPolygonsBuilder.obj
 0001:00037a50       ?createTrianglesFromPolygons@ConvexPolygonsBuilder@physx@@AEAA_NXZ 0000000180038a50 f   ConvexPolygonsBuilder.obj
 0001:0003a0a0       ??$?4VNamedAllocator@shdfnd@physx@@@?$Array@IVNamedAllocator@shdfnd@physx@@@shdfnd@physx@@QEAAAEAV012@AEBV012@@Z 000000018003b0a0 f i ConvexPolygonsBuilder.obj
 0001:0003a130       ??$?_UUHullTriangleData@physx@@@@YAPEAX_KV?$ReflectionAllocator@UHullTriangleData@physx@@@shdfnd@physx@@PEBDH@Z 000000018003b130 f i ConvexPolygonsBuilder.obj
 0001:0003a170       ??$PlaneEquation@U?$TriangleT@I@Gu@physx@@@@YA?AVPxPlane@physx@@AEBU?$TriangleT@I@Gu@1@PEBVPxVec3@1@@Z 000000018003b170 f i ConvexPolygonsBuilder.obj
 0001:0003a220       ??$copy@VNamedAllocator@shdfnd@physx@@@?$Array@VPair@@VNamedAllocator@shdfnd@physx@@@shdfnd@physx@@IEAAXAEBV012@@Z 000000018003b220 f i ConvexPolygonsBuilder.obj
 0001:0003a2e0       ??$swap@E@shdfnd@physx@@YAXAEAE0@Z 000000018003b2e0 f i ConvexPolygonsBuilder.obj
 0001:0003a320       ??0?$Array@VPair@@VNamedAllocator@shdfnd@physx@@@shdfnd@physx@@QEAA@AEBV012@AEBVNamedAllocator@12@@Z 000000018003b320 f i ConvexPolygonsBuilder.obj
 0001:0003a360       ??0?$Array@VPair@@VNamedAllocator@shdfnd@physx@@@shdfnd@physx@@QEAA@AEBVNamedAllocator@12@@Z 000000018003b360 f i ConvexPolygonsBuilder.obj
 0001:0003a3b0       ??0?$ReflectionAllocator@UHullTriangleData@physx@@@shdfnd@physx@@QEAA@PEBD@Z 000000018003b3b0 f i ConvexPolygonsBuilder.obj
 0001:0003a3c0       ??0ADJACENCIESCREATE@physx@@QEAA@XZ 000000018003b3c0 f i ConvexPolygonsBuilder.obj
 0001:0003a410       ??0Pair@@QEAA@II@Z         000000018003b410 f i ConvexPolygonsBuilder.obj
 0001:0003a440       ??1?$Array@VPair@@VNamedAllocator@shdfnd@physx@@@shdfnd@physx@@QEAA@XZ 000000018003b440 f i ConvexPolygonsBuilder.obj
 0001:0003a4b0       ??1Pair@@QEAA@XZ           000000018003b4b0 f i ConvexPolygonsBuilder.obj
 0001:0003a4c0       ??4?$Array@IVNamedAllocator@shdfnd@physx@@@shdfnd@physx@@QEAAAEAV012@AEBV012@@Z 000000018003b4c0 f i ConvexPolygonsBuilder.obj
 0001:0003a4f0       ??A?$Array@VPair@@VNamedAllocator@shdfnd@physx@@@shdfnd@physx@@QEAAAEAVPair@@I@Z 000000018003b4f0 f i ConvexPolygonsBuilder.obj
 0001:0003a570       ??_GPair@@QEAAPEAXI@Z      000000018003b570 f i ConvexPolygonsBuilder.obj
 0001:0003ac00       ?GetAdjTri@AdjTriangle@physx@@QEBAIW4SharedEdgeIndex@2@@Z 000000018003bc00 f i ConvexPolygonsBuilder.obj
 0001:0003af40       ?HasActiveEdge@AdjTriangle@physx@@QEBAHI@Z 000000018003bf40 f i ConvexPolygonsBuilder.obj
 0001:0003af60       ?allocate@?$Array@VPair@@VNamedAllocator@shdfnd@physx@@@shdfnd@physx@@IEAAPEAVPair@@I@Z 000000018003bf60 f i ConvexPolygonsBuilder.obj
 0001:0003aff0       ?allocate@?$ReflectionAllocator@UHullTriangleData@physx@@@shdfnd@physx@@QEAAPEAX_KPEBDH@Z 000000018003bff0 f i ConvexPolygonsBuilder.obj
 0001:0003b070       ?begin@?$Array@VPair@@VNamedAllocator@shdfnd@physx@@@shdfnd@physx@@QEAAPEAVPair@@XZ 000000018003c070 f i ConvexPolygonsBuilder.obj
 0001:0003b080       ?begin@?$Array@VPair@@VNamedAllocator@shdfnd@physx@@@shdfnd@physx@@QEBAPEBVPair@@XZ 000000018003c080 f i ConvexPolygonsBuilder.obj
 0001:0003b090       ?capacity@?$Array@VPair@@VNamedAllocator@shdfnd@physx@@@shdfnd@physx@@QEBAIXZ 000000018003c090 f i ConvexPolygonsBuilder.obj
 0001:0003b0b0       ?capacityIncrement@?$Array@VPair@@VNamedAllocator@shdfnd@physx@@@shdfnd@physx@@IEBAIXZ 000000018003c0b0 f i ConvexPolygonsBuilder.obj
 0001:0003b0f0       ?clear@?$Array@IVNamedAllocator@shdfnd@physx@@@shdfnd@physx@@QEAAXXZ 000000018003c0f0 f i ConvexPolygonsBuilder.obj
 0001:0003b130       ?copy@?$Array@VPair@@VNamedAllocator@shdfnd@physx@@@shdfnd@physx@@KAXPEAVPair@@0PEBV4@@Z 000000018003c130 f i ConvexPolygonsBuilder.obj
 0001:0003b1b0       ?deallocate@?$Array@VPair@@VNamedAllocator@shdfnd@physx@@@shdfnd@physx@@IEAAXPEAX@Z 000000018003c1b0 f i ConvexPolygonsBuilder.obj
 0001:0003b1e0       ?destroy@?$Array@VPair@@VNamedAllocator@shdfnd@physx@@@shdfnd@physx@@KAXPEAVPair@@0@Z 000000018003c1e0 f i ConvexPolygonsBuilder.obj
 0001:0003b220       ?empty@?$Array@VPair@@VNamedAllocator@shdfnd@physx@@@shdfnd@physx@@QEBA_NXZ 000000018003c220 f i ConvexPolygonsBuilder.obj
 0001:0003b250       ?end@?$Array@IVNamedAllocator@shdfnd@physx@@@shdfnd@physx@@QEAAPEAIXZ 000000018003c250 f i ConvexPolygonsBuilder.obj
 0001:0003b270       ?find@?$Array@IVNamedAllocator@shdfnd@physx@@@shdfnd@physx@@QEAAPEAIAEBI@Z 000000018003c270 f i ConvexPolygonsBuilder.obj
 0001:0003b2d0       ?flip@?$TriangleT@I@Gu@physx@@QEAAXXZ 000000018003c2d0 f i ConvexPolygonsBuilder.obj
 0001:0003b310       ?forceSize_Unsafe@?$Array@IVNamedAllocator@shdfnd@physx@@@shdfnd@physx@@QEAAXI@Z 000000018003c310 f i ConvexPolygonsBuilder.obj
 0001:0003b390       ?getFaces@ConvexPolygonsBuilder@physx@@QEBAPEBUHullTriangleData@2@XZ 000000018003c390 f i ConvexPolygonsBuilder.obj
 0001:0003b3a0       ?getName@?$ReflectionAllocator@UHullTriangleData@physx@@@shdfnd@physx@@CAPEBDXZ 000000018003c3a0 f i ConvexPolygonsBuilder.obj
 0001:0003b3e0       ?getNbFaces@ConvexPolygonsBuilder@physx@@QEBAIXZ 000000018003c3e0 f i ConvexPolygonsBuilder.obj
 0001:0003b3f0       ?growAndPushBack@?$Array@VPair@@VNamedAllocator@shdfnd@physx@@@shdfnd@physx@@IEAAAEAVPair@@AEBV4@@Z 000000018003c3f0 f i ConvexPolygonsBuilder.obj
 0001:0003b590       ?isInUserMemory@?$Array@VPair@@VNamedAllocator@shdfnd@physx@@@shdfnd@physx@@QEBAIXZ 000000018003c590 f i ConvexPolygonsBuilder.obj
 0001:0003b5b0       ?pushBack@?$Array@VPair@@VNamedAllocator@shdfnd@physx@@@shdfnd@physx@@QEAAAEAVPair@@AEBV4@@Z 000000018003c5b0 f i ConvexPolygonsBuilder.obj
 0001:0003b670       ?remove@?$Array@IVNamedAllocator@shdfnd@physx@@@shdfnd@physx@@QEAAXI@Z 000000018003c670 f i ConvexPolygonsBuilder.obj
 0001:0003b750       ?remove@?$Array@VPair@@VNamedAllocator@shdfnd@physx@@@shdfnd@physx@@QEAAXI@Z 000000018003c750 f i ConvexPolygonsBuilder.obj
 0001:0003b870       ?size@?$Array@VPair@@VNamedAllocator@shdfnd@physx@@@shdfnd@physx@@QEBAIXZ 000000018003c870 f i ConvexPolygonsBuilder.obj
 0001:0003b900       ??0QuickHullConvexHullLib@physx@@QEAA@AEBVPxConvexMeshDesc@1@AEBUPxCookingParams@1@@Z 000000018003c900 f   QuickHullConvexHullLib.obj
 0001:0003ba00       ??1QuickHullConvexHullLib@physx@@UEAA@XZ 000000018003ca00 f   QuickHullConvexHullLib.obj
 0001:0003bae0       ?createConvexHull@QuickHullConvexHullLib@physx@@UEAA?AW4Enum@PxConvexMeshCookingResult@2@XZ 000000018003cae0 f   QuickHullConvexHullLib.obj
 0001:0003c080       ?fillConvexMeshDesc@QuickHullConvexHullLib@physx@@UEAAXAEAVPxConvexMeshDesc@2@@Z 000000018003d080 f   QuickHullConvexHullLib.obj
 0001:0003c110       ?createEdgeList@QuickHullConvexHullLib@physx@@UEAA_NIPEBEPEAPEAEPEAPEAG2@Z 000000018003d110 f   QuickHullConvexHullLib.obj
 0001:0003c660       ?expandHullOBB@QuickHullConvexHullLib@physx@@IEAA?AW4Enum@PxConvexMeshCookingResult@2@XZ 000000018003d660 f   QuickHullConvexHullLib.obj
 0001:0003cc30       ?expandHull@QuickHullConvexHullLib@physx@@IEAA?AW4Enum@PxConvexMeshCookingResult@2@XZ 000000018003dc30 f   QuickHullConvexHullLib.obj
 0001:0003d3c0       ?cleanupForSimplex@QuickHullConvexHullLib@physx@@IEAA_NPEAVPxVec3@2@IPEAUQuickHullVertex@local@@1AEAM2@Z 000000018003e3c0 f   QuickHullConvexHullLib.obj
 0001:0003de30       ?fillConvexMeshDescFromQuickHull@QuickHullConvexHullLib@physx@@IEAAXAEAVPxConvexMeshDesc@2@@Z 000000018003ee30 f   QuickHullConvexHullLib.obj
 0001:0003e610       ?fillConvexMeshDescFromCroppedHull@QuickHullConvexHullLib@physx@@IEAAXAEAVPxConvexMeshDesc@2@@Z 000000018003f610 f   QuickHullConvexHullLib.obj
 0001:0003eba0       ?getOppositeFaceDistance@QuickHullHalfEdge@local@@QEBAMXZ 000000018003fba0 f   QuickHullConvexHullLib.obj
 0001:0003eca0       ?mergeAdjacentFace@QuickHullFace@local@@QEAA_NPEAUQuickHullHalfEdge@2@AEAV?$Array@PEAUQuickHullFace@local@@VNamedAllocator@shdfnd@physx@@@shdfnd@physx@@@Z 000000018003fca0 f   QuickHullConvexHullLib.obj
 0001:0003ef20       ?checkFaceConsistency@QuickHullFace@local@@QEAA_NXZ 000000018003ff20 f   QuickHullConvexHullLib.obj
 0001:0003f1d0       ?connectHalfEdges@QuickHullFace@local@@AEAAPEAU12@PEAUQuickHullHalfEdge@2@0@Z 00000001800401d0 f   QuickHullConvexHullLib.obj
 0001:0003f350       ??0QuickHull@local@@QEAA@AEBUPxCookingParams@physx@@AEBVPxConvexMeshDesc@3@@Z 0000000180040350 f   QuickHullConvexHullLib.obj
 0001:0003f570       ??1QuickHull@local@@QEAA@XZ 0000000180040570 f   QuickHullConvexHullLib.obj
 0001:0003f620       ?preallocate@QuickHull@local@@QEAAXI@Z 0000000180040620 f   QuickHullConvexHullLib.obj
 0001:0003f7e0       ?parseInputVertices@QuickHull@local@@QEAAXPEBVPxVec3@physx@@I@Z 00000001800407e0 f   QuickHullConvexHullLib.obj
 0001:0003f920       ?releaseHull@QuickHull@local@@QEAAXXZ 0000000180040920 f   QuickHullConvexHullLib.obj
 0001:0003f980       ?setPrecomputedMinMax@QuickHull@local@@QEAAXPEBUQuickHullVertex@2@0MM@Z 0000000180040980 f   QuickHullConvexHullLib.obj
 0001:0003fa60       ?buildHull@QuickHull@local@@QEAA?AW4Enum@QuickHullResult@2@XZ 0000000180040a60 f   QuickHullConvexHullLib.obj
 0001:0003fd90       ?maxNumVertsPerFace@QuickHull@local@@QEBAIXZ 0000000180040d90 f   QuickHullConvexHullLib.obj
 0001:0003fe30       ?computeMinMaxVerts@QuickHull@local@@IEAAXXZ 0000000180040e30 f   QuickHullConvexHullLib.obj
 0001:00040180       ?findSimplex@QuickHull@local@@IEAA_NXZ 0000000180041180 f   QuickHullConvexHullLib.obj
 0001:000406d0       ?addSimplex@QuickHull@local@@IEAAXPEAUQuickHullVertex@2@_N@Z 00000001800416d0 f   QuickHullConvexHullLib.obj
 0001:00040f10       ?nextPointToAdd@QuickHull@local@@IEAAPEAUQuickHullVertex@2@AEAPEAUQuickHullFace@2@@Z 0000000180041f10 f   QuickHullConvexHullLib.obj
 0001:00041060       ?addPointToHull@QuickHull@local@@IEAA_NPEBUQuickHullVertex@2@AEAUQuickHullFace@2@AEA_N@Z 0000000180042060 f   QuickHullConvexHullLib.obj
 0001:000413a0       ?createTriangle@QuickHull@local@@IEAAPEAUQuickHullFace@2@AEBUQuickHullVertex@2@00@Z 00000001800423a0 f   QuickHullConvexHullLib.obj
 0001:000414e0       ?addPointToFace@QuickHull@local@@IEAAXAEAUQuickHullFace@2@PEAUQuickHullVertex@2@M@Z 00000001800424e0 f   QuickHullConvexHullLib.obj
 0001:00041610       ?removeEyePointFromFace@QuickHull@local@@IEAAXAEAUQuickHullFace@2@PEBUQuickHullVertex@2@@Z 0000000180042610 f   QuickHullConvexHullLib.obj
 0001:000416b0       ?calculateHorizon@QuickHull@local@@IEAAXAEBVPxVec3@physx@@PEAUQuickHullHalfEdge@2@AEAUQuickHullFace@2@AEAV?$Array@PEAUQuickHullHalfEdge@local@@VNamedAllocator@shdfnd@physx@@@shdfnd@4@AEAV?$Array@PEAUQuickHullFace@local@@VNamedAllocator@shdfnd@physx@@@84@@Z 00000001800426b0 f   QuickHullConvexHullLib.obj
 0001:00041850       ?addNewFacesFromHorizon@QuickHull@local@@IEAAXPEBUQuickHullVertex@2@AEBV?$Array@PEAUQuickHullHalfEdge@local@@VNamedAllocator@shdfnd@physx@@@shdfnd@physx@@AEAV?$Array@PEAUQuickHullFace@local@@VNamedAllocator@shdfnd@physx@@@56@@Z 0000000180042850 f   QuickHullConvexHullLib.obj
 0001:000419c0       ?doAdjacentMerge@QuickHull@local@@IEAA_NAEAUQuickHullFace@2@_NAEA_N@Z 00000001800429c0 f   QuickHullConvexHullLib.obj
 0001:00041ca0       ?doPostAdjacentMerge@QuickHull@local@@IEAA_NAEAUQuickHullFace@2@M@Z 0000000180042ca0 f   QuickHullConvexHullLib.obj
 0001:00041eb0       ?deleteFacePoints@QuickHull@local@@IEAAXAEAUQuickHullFace@2@PEAU32@@Z 0000000180042eb0 f   QuickHullConvexHullLib.obj
 0001:00041fe0       ?resolveUnclaimedPoints@QuickHull@local@@IEAAXAEBV?$Array@PEAUQuickHullFace@local@@VNamedAllocator@shdfnd@physx@@@shdfnd@physx@@@Z 0000000180042fe0 f   QuickHullConvexHullLib.obj
 0001:00042150       ?postMergeHull@QuickHull@local@@IEAAXXZ 0000000180043150 f   QuickHullConvexHullLib.obj
 0001:00042240       ?canMergeFaces@QuickHull@local@@IEAA_NAEBUQuickHullHalfEdge@2@@Z 0000000180043240 f   QuickHullConvexHullLib.obj
 0001:00042b30       ?getExpandPoint@local@@YAXAEBUQuickHullHalfEdge@1@AEAUExpandPoint@1@PEBV?$Array@IVNamedAllocator@shdfnd@physx@@@shdfnd@physx@@@Z 0000000180043b30 f   QuickHullConvexHullLib.obj
 0001:00042d80       ?addExpandPoint@local@@YAXAEBUExpandPoint@1@AEAV?$Array@UExpandPoint@local@@VNamedAllocator@shdfnd@physx@@@shdfnd@physx@@@Z 0000000180043d80 f   QuickHullConvexHullLib.obj
 0001:00042ed0       ??$?2V?$ReflectionAllocator@VQuickHull@local@@@shdfnd@physx@@@UserAllocated@shdfnd@physx@@SAPEAX_KV?$ReflectionAllocator@VQuickHull@local@@@12@PEBDH@Z 0000000180043ed0 f i QuickHullConvexHullLib.obj
 0001:00042f10       ??$PX_UNUSED@PEAUQuickHullFace@local@@@@YAXAEBQEAUQuickHullFace@local@@@Z 0000000180043f10 f i QuickHullConvexHullLib.obj
 0001:00042f20       ??$PX_UNUSED@PEBUQuickHullVertex@local@@@@YAXAEBQEBUQuickHullVertex@local@@@Z 0000000180043f20 f i QuickHullConvexHullLib.obj
 0001:00042f30       ??0?$Array@PEAUQuickHullFace@local@@VNamedAllocator@shdfnd@physx@@@shdfnd@physx@@QEAA@AEBVNamedAllocator@12@@Z 0000000180043f30 f i QuickHullConvexHullLib.obj
 0001:00042f80       ??0?$Array@PEAUQuickHullHalfEdge@local@@VNamedAllocator@shdfnd@physx@@@shdfnd@physx@@QEAA@AEBVNamedAllocator@12@@Z 0000000180043f80 f i QuickHullConvexHullLib.obj
 0001:00042fd0       ??0?$Array@PEAUQuickHullVertex@local@@VNamedAllocator@shdfnd@physx@@@shdfnd@physx@@QEAA@AEBVNamedAllocator@12@@Z 0000000180043fd0 f i QuickHullConvexHullLib.obj
 0001:00043020       ??0?$Array@UExpandPoint@local@@VNamedAllocator@shdfnd@physx@@@shdfnd@physx@@QEAA@AEBVNamedAllocator@12@@Z 0000000180044020 f i QuickHullConvexHullLib.obj
 0001:00043070       ??0?$MemBlock@UQuickHullFace@local@@$00@local@@QEAA@XZ 0000000180044070 f i QuickHullConvexHullLib.obj
 0001:000430d0       ??0?$MemBlock@UQuickHullHalfEdge@local@@$0A@@local@@QEAA@XZ 00000001800440d0 f i QuickHullConvexHullLib.obj
 0001:00043130       ??0?$ReflectionAllocator@VQuickHull@local@@@shdfnd@physx@@QEAA@PEBD@Z 0000000180044130 f i QuickHullConvexHullLib.obj
 0001:00043140       ??0?$ScopedPointer@UQuickHullHalfEdge@local@@VTempAllocator@shdfnd@physx@@@shdfnd@physx@@QEAA@XZ 0000000180044140 f i QuickHullConvexHullLib.obj
 0001:00043160       ??0?$ScopedPointer@VPxVec3@physx@@VTempAllocator@shdfnd@2@@shdfnd@physx@@QEAA@XZ 0000000180044160 f i QuickHullConvexHullLib.obj
 0001:00043180       ??0ConvexHullLib@physx@@QEAA@AEBVPxConvexMeshDesc@1@AEBUPxCookingParams@1@@Z 0000000180044180 f i QuickHullConvexHullLib.obj
 0001:00043200       ??0ExpandPoint@local@@QEAA@AEBU01@@Z 0000000180044200 f i QuickHullConvexHullLib.obj
 0001:00043260       ??0ExpandPoint@local@@QEAA@XZ 0000000180044260 f i QuickHullConvexHullLib.obj
 0001:000432a0       ??0PxTransform@physx@@QEAA@XZ 00000001800442a0 f i QuickHullConvexHullLib.obj
 0001:000432e0       ??0QuickHullFace@local@@QEAA@I@Z 00000001800442e0 f i QuickHullConvexHullLib.obj
 0001:000433a0       ??0QuickHullFace@local@@QEAA@XZ 00000001800443a0 f i QuickHullConvexHullLib.obj
 0001:00043450       ??0QuickHullHalfEdge@local@@QEAA@I@Z 0000000180044450 f i QuickHullConvexHullLib.obj
 0001:000434c0       ??0QuickHullVertex@local@@QEAA@XZ 00000001800444c0 f i QuickHullConvexHullLib.obj
 0001:000434e0       ??1?$Array@PEAUQuickHullFace@local@@VNamedAllocator@shdfnd@physx@@@shdfnd@physx@@QEAA@XZ 00000001800444e0 f i QuickHullConvexHullLib.obj
 0001:00043550       ??1?$Array@PEAUQuickHullHalfEdge@local@@VNamedAllocator@shdfnd@physx@@@shdfnd@physx@@QEAA@XZ 0000000180044550 f i QuickHullConvexHullLib.obj
 0001:000435c0       ??1?$Array@PEAUQuickHullVertex@local@@VNamedAllocator@shdfnd@physx@@@shdfnd@physx@@QEAA@XZ 00000001800445c0 f i QuickHullConvexHullLib.obj
 0001:00043630       ??1?$Array@UExpandPoint@local@@VNamedAllocator@shdfnd@physx@@@shdfnd@physx@@QEAA@XZ 0000000180044630 f i QuickHullConvexHullLib.obj
 0001:000436a0       ??1?$Array@VHalfEdge@ConvexHull@physx@@VNamedAllocator@shdfnd@3@@shdfnd@physx@@QEAA@XZ 00000001800446a0 f i QuickHullConvexHullLib.obj
 0001:00043710       ??1?$Array@VPxPlane@physx@@VNamedAllocator@shdfnd@2@@shdfnd@physx@@QEAA@XZ 0000000180044710 f i QuickHullConvexHullLib.obj
 0001:00043780       ??1?$MemBlock@UQuickHullFace@local@@$00@local@@QEAA@XZ 0000000180044780 f i QuickHullConvexHullLib.obj
 0001:00043820       ??1?$MemBlock@UQuickHullHalfEdge@local@@$0A@@local@@QEAA@XZ 0000000180044820 f i QuickHullConvexHullLib.obj
 0001:000438c0       ??1?$ScopedPointer@UQuickHullHalfEdge@local@@VTempAllocator@shdfnd@physx@@@shdfnd@physx@@QEAA@XZ 00000001800448c0 f i QuickHullConvexHullLib.obj
 0001:000438f0       ??1?$ScopedPointer@VPxVec3@physx@@VTempAllocator@shdfnd@2@@shdfnd@physx@@QEAA@XZ 00000001800448f0 f i QuickHullConvexHullLib.obj
 0001:00043920       ??1ConvexHull@physx@@QEAA@XZ 0000000180044920 f i QuickHullConvexHullLib.obj
 0001:00043960       ??1QuickHullFace@local@@QEAA@XZ 0000000180044960 f i QuickHullConvexHullLib.obj
 0001:00043970       ??4?$PxFlags@W4Enum@PxConvexFlag@physx@@G@physx@@QEAAAEAV01@AEBV01@@Z 0000000180044970 f i QuickHullConvexHullLib.obj
 0001:00043990       ??4QuickHullVertex@local@@QEAAAEAU01@AEBU01@@Z 0000000180044990 f i QuickHullConvexHullLib.obj
 0001:000439f0       ??8ExpandPoint@local@@QEBA_NAEBU01@@Z 00000001800449f0 f i QuickHullConvexHullLib.obj
 0001:00043a80       ??8QuickHullVertex@local@@QEBA_NAEBU01@@Z 0000000180044a80 f i QuickHullConvexHullLib.obj
 0001:00043ac0       ??A?$Array@IVNamedAllocator@shdfnd@physx@@@shdfnd@physx@@QEBAAEBII@Z 0000000180044ac0 f i QuickHullConvexHullLib.obj
 0001:00043b40       ??A?$Array@PEAUQuickHullFace@local@@VNamedAllocator@shdfnd@physx@@@shdfnd@physx@@QEAAAEAPEAUQuickHullFace@local@@I@Z 0000000180044b40 f i QuickHullConvexHullLib.obj
 0001:00043bc0       ??A?$Array@PEAUQuickHullFace@local@@VNamedAllocator@shdfnd@physx@@@shdfnd@physx@@QEBAAEBQEAUQuickHullFace@local@@I@Z 0000000180044bc0 f i QuickHullConvexHullLib.obj
 0001:00043c40       ??A?$Array@PEAUQuickHullHalfEdge@local@@VNamedAllocator@shdfnd@physx@@@shdfnd@physx@@QEAAAEAPEAUQuickHullHalfEdge@local@@I@Z 0000000180044c40 f i QuickHullConvexHullLib.obj
 0001:00043cc0       ??A?$Array@PEAUQuickHullHalfEdge@local@@VNamedAllocator@shdfnd@physx@@@shdfnd@physx@@QEBAAEBQEAUQuickHullHalfEdge@local@@I@Z 0000000180044cc0 f i QuickHullConvexHullLib.obj
 0001:00043d40       ??A?$Array@PEAUQuickHullVertex@local@@VNamedAllocator@shdfnd@physx@@@shdfnd@physx@@QEAAAEAPEAUQuickHullVertex@local@@I@Z 0000000180044d40 f i QuickHullConvexHullLib.obj
 0001:00043dc0       ??A?$Array@UExpandPoint@local@@VNamedAllocator@shdfnd@physx@@@shdfnd@physx@@QEAAAEAUExpandPoint@local@@I@Z 0000000180044dc0 f i QuickHullConvexHullLib.obj
 0001:00043e40       ??A?$Array@VPxPlane@physx@@VNamedAllocator@shdfnd@2@@shdfnd@physx@@QEAAAEAVPxPlane@2@I@Z 0000000180044e40 f i QuickHullConvexHullLib.obj
 0001:00043ec0       ??B?$ScopedPointer@UQuickHullHalfEdge@local@@VTempAllocator@shdfnd@physx@@@shdfnd@physx@@QEBAPEAUQuickHullHalfEdge@local@@XZ 0000000180044ec0 f i QuickHullConvexHullLib.obj
 0001:00043ed0       ??B?$ScopedPointer@VPxVec3@physx@@VTempAllocator@shdfnd@2@@shdfnd@physx@@QEBAPEAVPxVec3@2@XZ 0000000180044ed0 f i QuickHullConvexHullLib.obj
 0001:00043ee0       ??KPxVec3@physx@@QEBA?AV01@M@Z 0000000180044ee0 f i QuickHullConvexHullLib.obj
 0001:00043f60       ??_GConvexHull@physx@@QEAAPEAXI@Z 0000000180044f60 f i QuickHullConvexHullLib.obj
 0001:00043fc0       ??_GQuickHull@local@@QEAAPEAXI@Z 0000000180044fc0 f i QuickHullConvexHullLib.obj
 0001:00044020       ??_GQuickHullConvexHullLib@physx@@UEAAPEAXI@Z 0000000180045020 f i QuickHullConvexHullLib.obj
 0001:00044020       ??_EQuickHullConvexHullLib@physx@@UEAAPEAXI@Z 0000000180045020 f i QuickHullConvexHullLib.obj
 0001:00044080       ??__G@YAXPEAX0_K1P6APEAX00@Z@Z 0000000180045080 f i QuickHullConvexHullLib.obj
 0001:00044110       ?allocate@?$Array@PEAUQuickHullFace@local@@VNamedAllocator@shdfnd@physx@@@shdfnd@physx@@IEAAPEAPEAUQuickHullFace@local@@I@Z 0000000180045110 f i QuickHullConvexHullLib.obj
 0001:000441a0       ?allocate@?$Array@PEAUQuickHullHalfEdge@local@@VNamedAllocator@shdfnd@physx@@@shdfnd@physx@@IEAAPEAPEAUQuickHullHalfEdge@local@@I@Z 00000001800451a0 f i QuickHullConvexHullLib.obj
 0001:00044230       ?allocate@?$Array@PEAUQuickHullVertex@local@@VNamedAllocator@shdfnd@physx@@@shdfnd@physx@@IEAAPEAPEAUQuickHullVertex@local@@I@Z 0000000180045230 f i QuickHullConvexHullLib.obj
 0001:000442c0       ?allocate@?$Array@UExpandPoint@local@@VNamedAllocator@shdfnd@physx@@@shdfnd@physx@@IEAAPEAUExpandPoint@local@@I@Z 00000001800452c0 f i QuickHullConvexHullLib.obj
 0001:00044350       ?allocate@?$ReflectionAllocator@VQuickHull@local@@@shdfnd@physx@@QEAAPEAX_KPEBDH@Z 0000000180045350 f i QuickHullConvexHullLib.obj
 0001:000443d0       ?capacity@?$Array@PEAUQuickHullFace@local@@VNamedAllocator@shdfnd@physx@@@shdfnd@physx@@QEBAIXZ 00000001800453d0 f i QuickHullConvexHullLib.obj
 0001:000443f0       ?capacity@?$Array@PEAUQuickHullHalfEdge@local@@VNamedAllocator@shdfnd@physx@@@shdfnd@physx@@QEBAIXZ 00000001800453f0 f i QuickHullConvexHullLib.obj
 0001:00044410       ?capacity@?$Array@PEAUQuickHullVertex@local@@VNamedAllocator@shdfnd@physx@@@shdfnd@physx@@QEBAIXZ 0000000180045410 f i QuickHullConvexHullLib.obj
 0001:00044430       ?capacity@?$Array@UExpandPoint@local@@VNamedAllocator@shdfnd@physx@@@shdfnd@physx@@QEBAIXZ 0000000180045430 f i QuickHullConvexHullLib.obj
 0001:00044450       ?capacityIncrement@?$Array@PEAUQuickHullFace@local@@VNamedAllocator@shdfnd@physx@@@shdfnd@physx@@IEBAIXZ 0000000180045450 f i QuickHullConvexHullLib.obj
 0001:00044490       ?capacityIncrement@?$Array@PEAUQuickHullHalfEdge@local@@VNamedAllocator@shdfnd@physx@@@shdfnd@physx@@IEBAIXZ 0000000180045490 f i QuickHullConvexHullLib.obj
 0001:000444d0       ?capacityIncrement@?$Array@PEAUQuickHullVertex@local@@VNamedAllocator@shdfnd@physx@@@shdfnd@physx@@IEBAIXZ 00000001800454d0 f i QuickHullConvexHullLib.obj
 0001:00044510       ?capacityIncrement@?$Array@UExpandPoint@local@@VNamedAllocator@shdfnd@physx@@@shdfnd@physx@@IEBAIXZ 0000000180045510 f i QuickHullConvexHullLib.obj
 0001:00044550       ?clear@?$Array@PEAUQuickHullFace@local@@VNamedAllocator@shdfnd@physx@@@shdfnd@physx@@QEAAXXZ 0000000180045550 f i QuickHullConvexHullLib.obj
 0001:00044590       ?clear@?$Array@PEAUQuickHullHalfEdge@local@@VNamedAllocator@shdfnd@physx@@@shdfnd@physx@@QEAAXXZ 0000000180045590 f i QuickHullConvexHullLib.obj
 0001:000445d0       ?clear@?$Array@PEAUQuickHullVertex@local@@VNamedAllocator@shdfnd@physx@@@shdfnd@physx@@QEAAXXZ 00000001800455d0 f i QuickHullConvexHullLib.obj
 0001:00044610       ?computeNormalAndCentroid@QuickHullFace@local@@QEAAXXZ 0000000180045610 f i QuickHullConvexHullLib.obj
 0001:00044900       ?copy@?$Array@PEAUQuickHullFace@local@@VNamedAllocator@shdfnd@physx@@@shdfnd@physx@@KAXPEAPEAUQuickHullFace@local@@0PEBQEAU45@@Z 0000000180045900 f i QuickHullConvexHullLib.obj
 0001:00044980       ?copy@?$Array@PEAUQuickHullHalfEdge@local@@VNamedAllocator@shdfnd@physx@@@shdfnd@physx@@KAXPEAPEAUQuickHullHalfEdge@local@@0PEBQEAU45@@Z 0000000180045980 f i QuickHullConvexHullLib.obj
 0001:00044a00       ?copy@?$Array@PEAUQuickHullVertex@local@@VNamedAllocator@shdfnd@physx@@@shdfnd@physx@@KAXPEAPEAUQuickHullVertex@local@@0PEBQEAU45@@Z 0000000180045a00 f i QuickHullConvexHullLib.obj
 0001:00044a80       ?copy@?$Array@UExpandPoint@local@@VNamedAllocator@shdfnd@physx@@@shdfnd@physx@@KAXPEAUExpandPoint@local@@0PEBU45@@Z 0000000180045a80 f i QuickHullConvexHullLib.obj
 0001:00044b00       ?deallocate@?$Array@PEAUQuickHullFace@local@@VNamedAllocator@shdfnd@physx@@@shdfnd@physx@@IEAAXPEAX@Z 0000000180045b00 f i QuickHullConvexHullLib.obj
 0001:00044b30       ?deallocate@?$Array@PEAUQuickHullHalfEdge@local@@VNamedAllocator@shdfnd@physx@@@shdfnd@physx@@IEAAXPEAX@Z 0000000180045b30 f i QuickHullConvexHullLib.obj
 0001:00044b60       ?deallocate@?$Array@PEAUQuickHullVertex@local@@VNamedAllocator@shdfnd@physx@@@shdfnd@physx@@IEAAXPEAX@Z 0000000180045b60 f i QuickHullConvexHullLib.obj
 0001:00044b90       ?deallocate@?$Array@UExpandPoint@local@@VNamedAllocator@shdfnd@physx@@@shdfnd@physx@@IEAAXPEAX@Z 0000000180045b90 f i QuickHullConvexHullLib.obj
 0001:00044bc0       ?destroy@?$Array@PEAUQuickHullFace@local@@VNamedAllocator@shdfnd@physx@@@shdfnd@physx@@KAXPEAPEAUQuickHullFace@local@@0@Z 0000000180045bc0 f i QuickHullConvexHullLib.obj
 0001:00044bf0       ?destroy@?$Array@PEAUQuickHullHalfEdge@local@@VNamedAllocator@shdfnd@physx@@@shdfnd@physx@@KAXPEAPEAUQuickHullHalfEdge@local@@0@Z 0000000180045bf0 f i QuickHullConvexHullLib.obj
 0001:00044c20       ?destroy@?$Array@PEAUQuickHullVertex@local@@VNamedAllocator@shdfnd@physx@@@shdfnd@physx@@KAXPEAPEAUQuickHullVertex@local@@0@Z 0000000180045c20 f i QuickHullConvexHullLib.obj
 0001:00044c50       ?destroy@?$Array@UExpandPoint@local@@VNamedAllocator@shdfnd@physx@@@shdfnd@physx@@KAXPEAUExpandPoint@local@@0@Z 0000000180045c50 f i QuickHullConvexHullLib.obj
 0001:00044c80       ?distanceToPlane@QuickHullFace@local@@QEBAMVPxVec3@physx@@@Z 0000000180045c80 f i QuickHullConvexHullLib.obj
 0001:00044cc0       ?getEdge@QuickHullFace@local@@QEBAPEAUQuickHullHalfEdge@2@I@Z 0000000180045cc0 f i QuickHullConvexHullLib.obj
 0001:00044d10       ?getFreeHullFace@QuickHull@local@@IEAAPEAUQuickHullFace@2@XZ 0000000180045d10 f i QuickHullConvexHullLib.obj
 0001:00044d30       ?getFreeHullHalfEdge@QuickHull@local@@IEAAPEAUQuickHullHalfEdge@2@XZ 0000000180045d30 f i QuickHullConvexHullLib.obj
 0001:00044d50       ?getFreeItem@?$MemBlock@UQuickHullFace@local@@$00@local@@QEAAPEAUQuickHullFace@2@XZ 0000000180045d50 f i QuickHullConvexHullLib.obj
 0001:00044f90       ?getFreeItem@?$MemBlock@UQuickHullHalfEdge@local@@$0A@@local@@QEAAPEAUQuickHullHalfEdge@2@XZ 0000000180045f90 f i QuickHullConvexHullLib.obj
 0001:000451d0       ?getHead@QuickHullHalfEdge@local@@QEBAAEBUQuickHullVertex@2@XZ 00000001800461d0 f i QuickHullConvexHullLib.obj
 0001:00045240       ?getItem@?$MemBlock@UQuickHullFace@local@@$00@local@@QEAAPEAUQuickHullFace@2@I@Z 0000000180046240 f i QuickHullConvexHullLib.obj
 0001:00045350       ?getName@?$ReflectionAllocator@VQuickHull@local@@@shdfnd@physx@@CAPEBDXZ 0000000180046350 f i QuickHullConvexHullLib.obj
 0001:00045390       ?getNbHullVerts@QuickHull@local@@IEAAIXZ 0000000180046390 f i QuickHullConvexHullLib.obj
 0001:000453a0       ?getOppositeFace@QuickHullHalfEdge@local@@QEBAPEAUQuickHullFace@2@XZ 00000001800463a0 f i QuickHullConvexHullLib.obj
 0001:000453c0       ?getTail@QuickHullHalfEdge@local@@QEBAAEBUQuickHullVertex@2@XZ 00000001800463c0 f i QuickHullConvexHullLib.obj
 0001:000453d0       ?grow@?$Array@PEAUQuickHullFace@local@@VNamedAllocator@shdfnd@physx@@@shdfnd@physx@@IEAAXI@Z 00000001800463d0 f i QuickHullConvexHullLib.obj
 0001:00045450       ?grow@?$Array@PEAUQuickHullHalfEdge@local@@VNamedAllocator@shdfnd@physx@@@shdfnd@physx@@IEAAXI@Z 0000000180046450 f i QuickHullConvexHullLib.obj
 0001:000454d0       ?grow@?$Array@PEAUQuickHullVertex@local@@VNamedAllocator@shdfnd@physx@@@shdfnd@physx@@IEAAXI@Z 00000001800464d0 f i QuickHullConvexHullLib.obj
 0001:00045550       ?grow@?$Array@UExpandPoint@local@@VNamedAllocator@shdfnd@physx@@@shdfnd@physx@@IEAAXI@Z 0000000180046550 f i QuickHullConvexHullLib.obj
 0001:000455d0       ?growAndPushBack@?$Array@PEAUQuickHullFace@local@@VNamedAllocator@shdfnd@physx@@@shdfnd@physx@@IEAAAEAPEAUQuickHullFace@local@@AEBQEAU45@@Z 00000001800465d0 f i QuickHullConvexHullLib.obj
 0001:00045750       ?growAndPushBack@?$Array@PEAUQuickHullHalfEdge@local@@VNamedAllocator@shdfnd@physx@@@shdfnd@physx@@IEAAAEAPEAUQuickHullHalfEdge@local@@AEBQEAU45@@Z 0000000180046750 f i QuickHullConvexHullLib.obj
 0001:000458d0       ?growAndPushBack@?$Array@PEAUQuickHullVertex@local@@VNamedAllocator@shdfnd@physx@@@shdfnd@physx@@IEAAAEAPEAUQuickHullVertex@local@@AEBQEAU45@@Z 00000001800468d0 f i QuickHullConvexHullLib.obj
 0001:00045a50       ?growAndPushBack@?$Array@UExpandPoint@local@@VNamedAllocator@shdfnd@physx@@@shdfnd@physx@@IEAAAEAUExpandPoint@local@@AEBU45@@Z 0000000180046a50 f i QuickHullConvexHullLib.obj
 0001:00045be0       ?init@?$MemBlock@UQuickHullFace@local@@$00@local@@QEAAXI@Z 0000000180046be0 f i QuickHullConvexHullLib.obj
 0001:00045d10       ?init@?$MemBlock@UQuickHullHalfEdge@local@@$0A@@local@@QEAAXI@Z 0000000180046d10 f i QuickHullConvexHullLib.obj
 0001:00045e40       ?isInUserMemory@?$Array@PEAUQuickHullFace@local@@VNamedAllocator@shdfnd@physx@@@shdfnd@physx@@QEBAIXZ 0000000180046e40 f i QuickHullConvexHullLib.obj
 0001:00045e60       ?isInUserMemory@?$Array@PEAUQuickHullHalfEdge@local@@VNamedAllocator@shdfnd@physx@@@shdfnd@physx@@QEBAIXZ 0000000180046e60 f i QuickHullConvexHullLib.obj
 0001:00045e80       ?isInUserMemory@?$Array@PEAUQuickHullVertex@local@@VNamedAllocator@shdfnd@physx@@@shdfnd@physx@@QEBAIXZ 0000000180046e80 f i QuickHullConvexHullLib.obj
 0001:00045ea0       ?isInUserMemory@?$Array@UExpandPoint@local@@VNamedAllocator@shdfnd@physx@@@shdfnd@physx@@QEBAIXZ 0000000180046ea0 f i QuickHullConvexHullLib.obj
 0001:00045ec0       ?isTriangle@QuickHullFace@local@@AEBA_NXZ 0000000180046ec0 f i QuickHullConvexHullLib.obj
 0001:00045ef0       ?pushBack@?$Array@PEAUQuickHullFace@local@@VNamedAllocator@shdfnd@physx@@@shdfnd@physx@@QEAAAEAPEAUQuickHullFace@local@@AEBQEAU45@@Z 0000000180046ef0 f i QuickHullConvexHullLib.obj
 0001:00045f90       ?pushBack@?$Array@PEAUQuickHullHalfEdge@local@@VNamedAllocator@shdfnd@physx@@@shdfnd@physx@@QEAAAEAPEAUQuickHullHalfEdge@local@@AEBQEAU45@@Z 0000000180046f90 f i QuickHullConvexHullLib.obj
 0001:00046030       ?pushBack@?$Array@PEAUQuickHullVertex@local@@VNamedAllocator@shdfnd@physx@@@shdfnd@physx@@QEAAAEAPEAUQuickHullVertex@local@@AEBQEAU45@@Z 0000000180047030 f i QuickHullConvexHullLib.obj
 0001:000460d0       ?pushBack@?$Array@UExpandPoint@local@@VNamedAllocator@shdfnd@physx@@@shdfnd@physx@@QEAAAEAUExpandPoint@local@@AEBU45@@Z 00000001800470d0 f i QuickHullConvexHullLib.obj
 0001:00046170       ?recreate@?$Array@PEAUQuickHullFace@local@@VNamedAllocator@shdfnd@physx@@@shdfnd@physx@@IEAAXI@Z 0000000180047170 f i QuickHullConvexHullLib.obj
 0001:00046280       ?recreate@?$Array@PEAUQuickHullHalfEdge@local@@VNamedAllocator@shdfnd@physx@@@shdfnd@physx@@IEAAXI@Z 0000000180047280 f i QuickHullConvexHullLib.obj
 0001:00046390       ?recreate@?$Array@PEAUQuickHullVertex@local@@VNamedAllocator@shdfnd@physx@@@shdfnd@physx@@IEAAXI@Z 0000000180047390 f i QuickHullConvexHullLib.obj
 0001:000464a0       ?recreate@?$Array@UExpandPoint@local@@VNamedAllocator@shdfnd@physx@@@shdfnd@physx@@IEAAXI@Z 00000001800474a0 f i QuickHullConvexHullLib.obj
 0001:000465c0       ?reserve@?$Array@PEAUQuickHullFace@local@@VNamedAllocator@shdfnd@physx@@@shdfnd@physx@@QEAAXI@Z 00000001800475c0 f i QuickHullConvexHullLib.obj
 0001:000465f0       ?reserve@?$Array@PEAUQuickHullHalfEdge@local@@VNamedAllocator@shdfnd@physx@@@shdfnd@physx@@QEAAXI@Z 00000001800475f0 f i QuickHullConvexHullLib.obj
 0001:00046620       ?reserve@?$Array@PEAUQuickHullVertex@local@@VNamedAllocator@shdfnd@physx@@@shdfnd@physx@@QEAAXI@Z 0000000180047620 f i QuickHullConvexHullLib.obj
 0001:00046650       ?reserve@?$Array@UExpandPoint@local@@VNamedAllocator@shdfnd@physx@@@shdfnd@physx@@QEAAXI@Z 0000000180047650 f i QuickHullConvexHullLib.obj
 0001:00046680       ?reset@?$MemBlock@UQuickHullFace@local@@$00@local@@QEAAXXZ 0000000180047680 f i QuickHullConvexHullLib.obj
 0001:00046730       ?reset@?$MemBlock@UQuickHullHalfEdge@local@@$0A@@local@@QEAAXXZ 0000000180047730 f i QuickHullConvexHullLib.obj
 0001:000467e0       ?setTwin@QuickHullHalfEdge@local@@QEAAXPEAU12@@Z 00000001800477e0 f i QuickHullConvexHullLib.obj
 0001:00046810       ?size@?$Array@PEAUQuickHullFace@local@@VNamedAllocator@shdfnd@physx@@@shdfnd@physx@@QEBAIXZ 0000000180047810 f i QuickHullConvexHullLib.obj
 0001:00046820       ?size@?$Array@PEAUQuickHullHalfEdge@local@@VNamedAllocator@shdfnd@physx@@@shdfnd@physx@@QEBAIXZ 0000000180047820 f i QuickHullConvexHullLib.obj
 0001:00046830       ?size@?$Array@PEAUQuickHullVertex@local@@VNamedAllocator@shdfnd@physx@@@shdfnd@physx@@QEBAIXZ 0000000180047830 f i QuickHullConvexHullLib.obj
 0001:00046840       ?size@?$Array@UExpandPoint@local@@VNamedAllocator@shdfnd@physx@@@shdfnd@physx@@QEBAIXZ 0000000180047840 f i QuickHullConvexHullLib.obj
 0001:000468d0       ?computeVolumeIntegrals@physx@@YA_NAEBVPxSimpleTriangleMesh@1@MAEAUPxIntegrals@1@@Z 00000001800478d0 f   VolumeIntegration.obj
 0001:00046960       ?computeVolumeIntegralsEberly@physx@@YA_NAEBVPxConvexMeshDesc@1@MAEAUPxIntegrals@1@AEBVPxVec3@1@@Z 0000000180047960 f   VolumeIntegration.obj
 0001:000469d0       ?computeVolumeIntegralsEberlySIMD@physx@@YA_NAEBVPxConvexMeshDesc@1@MAEAUPxIntegrals@1@AEBVPxVec3@1@@Z 00000001800479d0 f   VolumeIntegration.obj
 0001:0004bbe0       ??$swap@VPxVec3@physx@@@shdfnd@physx@@YAXAEAVPxVec3@1@0@Z 000000018004cbe0 f i VolumeIntegration.obj
 0001:0004bc20       ??0PxSimpleTriangleMesh@physx@@QEAA@XZ 000000018004cc20 f i VolumeIntegration.obj
 0001:0004bc70       ??4?$PxFlags@W4Enum@PxMeshFlag@physx@@G@physx@@QEAAAEAV01@AEBV01@@Z 000000018004cc70 f i VolumeIntegration.obj
 0001:0004bc90       ??4PxSimpleTriangleMesh@physx@@QEAAAEAV01@AEBV01@@Z 000000018004cc90 f i VolumeIntegration.obj
 0001:0004bcf0       ?FAllGrtr@aos@shdfnd@physx@@YAIT__m128@@0@Z 000000018004ccf0 f i VolumeIntegration.obj
 0001:0004bdf0       ?V4Cross@aos@shdfnd@physx@@YA?AT__m128@@T4@0@Z 000000018004cdf0 f i VolumeIntegration.obj
 0001:0004bef0       ?V4Dot3@aos@shdfnd@physx@@YA?AT__m128@@T4@0@Z 000000018004cef0 f i VolumeIntegration.obj
 0001:0004bfb0       ?V4PermYZXW@aos@shdfnd@physx@@YA?AT__m128@@T4@@Z 000000018004cfb0 f i VolumeIntegration.obj
 0001:0004bfe0       ?V4ScaleInv@aos@shdfnd@physx@@YA?AT__m128@@T4@0@Z 000000018004cfe0 f i VolumeIntegration.obj
 0001:0004c080       ?Vec4V_From_PxVec3_WUndefined@aos@shdfnd@physx@@YA?AT__m128@@AEBVPxVec3@3@@Z 000000018004d080 f i VolumeIntegration.obj
 0001:0004c0d0       ?isZero@PxVec3@physx@@QEBA_NXZ 000000018004d0d0 f i VolumeIntegration.obj
 0001:0004c7a0       PxSetPhysXCookingDelayLoadHook 000000018004d7a0 f   WindowsCookingDelayLoadHook.obj
 0001:0004c7c0       ?cookingDelayHook@@YAP6A_JXZIPEAUDelayLoadInfo@@@Z 000000018004d7c0 f   WindowsCookingDelayLoadHook.obj
 0001:0004c840       ?loadLibrary@Cm@physx@@YAPEAUHINSTANCE__@@PEBD@Z 000000018004d840 f i WindowsCookingDelayLoadHook.obj
 0001:0004c860       ?physXCommonDliNotePreLoadLibrary@Cm@physx@@YAP6A_JXZPEBDPEBVPxDelayLoadHook@2@@Z 000000018004d860 f i WindowsCookingDelayLoadHook.obj
 0001:0004c8eb       ??0RadixSortBuffered@Cm@physx@@QEAA@XZ 000000018004d8eb f   PhysXCommon_64:PhysXCommon_64d.dll
 0001:0004c8f1       ??1RadixSortBuffered@Cm@physx@@UEAA@XZ 000000018004d8f1 f   PhysXCommon_64:PhysXCommon_64d.dll
 0001:0004c8f7       ?Sort@RadixSortBuffered@Cm@physx@@QEAAAEAV123@PEBIIW4RadixHint@23@@Z 000000018004d8f7 f   PhysXCommon_64:PhysXCommon_64d.dll
 0001:0004c8fd       ?readDword@physx@@YAI_NAEAVPxInputStream@1@@Z 000000018004d8fd f   PhysXCommon_64:PhysXCommon_64d.dll
 0001:0004c903       ?ReadHeader@Gu@physx@@YA_NEEEEAEAIAEA_NAEAVPxInputStream@2@@Z 000000018004d903 f   PhysXCommon_64:PhysXCommon_64d.dll
 0001:0004c909       ??0HeightField@Gu@physx@@QEAA@PEAVGuMeshFactory@2@@Z 000000018004d909 f   PhysXCommon_64:PhysXCommon_64d.dll
 0001:0004c90f       ?loadFromDesc@HeightField@Gu@physx@@QEAA_NAEBVPxHeightFieldDesc@3@@Z 000000018004d90f f   PhysXCommon_64:PhysXCommon_64d.dll
 0001:0004c915       ?computeCellCoordinates@HeightField@Gu@physx@@QEBAIMMAEAM0@Z 000000018004d915 f   PhysXCommon_64:PhysXCommon_64d.dll
 0001:0004c91b       ?releaseMemory@HeightField@Gu@physx@@QEAAXXZ 000000018004d91b f   PhysXCommon_64:PhysXCommon_64d.dll
 0001:0004c921       ??1HeightField@Gu@physx@@UEAA@XZ 000000018004d921 f   PhysXCommon_64:PhysXCommon_64d.dll
 0001:0004c927       ??0NodeAllocator@Gu@physx@@QEAA@XZ 000000018004d927 f   PhysXCommon_64:PhysXCommon_64d.dll
 0001:0004c92d       ??1NodeAllocator@Gu@physx@@QEAA@XZ 000000018004d92d f   PhysXCommon_64:PhysXCommon_64d.dll
 0001:0004c933       ?release@NodeAllocator@Gu@physx@@QEAAXXZ 000000018004d933 f   PhysXCommon_64:PhysXCommon_64d.dll
 0001:0004c939       ?buildAABBTree@Gu@physx@@YA_NAEAVAABBTreeBuildParams@12@AEAVNodeAllocator@12@AEAUBuildStats@12@AEAPEAI@Z 000000018004d939 f   PhysXCommon_64:PhysXCommon_64d.dll
 0001:0004c93f       ?writeDword@physx@@YAXI_NAEAVPxOutputStream@1@@Z 000000018004d93f f   PhysXCommon_64:PhysXCommon_64d.dll
 0001:0004c945       ?writeFloatBuffer@physx@@YAXPEBMI_NAEAVPxOutputStream@1@@Z 000000018004d945 f   PhysXCommon_64:PhysXCommon_64d.dll
 0001:0004c94b       ?writeHeader@physx@@YA_NCCCCI_NAEAVPxOutputStream@1@@Z 000000018004d94b f   PhysXCommon_64:PhysXCommon_64d.dll
 0001:0004c951       ?writeWord@physx@@YAXG_NAEAVPxOutputStream@1@@Z 000000018004d951 f   PhysXCommon_64:PhysXCommon_64d.dll
 0001:0004c957       ?writeFloat@physx@@YAXM_NAEAVPxOutputStream@1@@Z 000000018004d957 f   PhysXCommon_64:PhysXCommon_64d.dll
 0001:0004c95d       ?validate@RTree@Gu@physx@@QEAAXPEAUCallbackRefit@123@@Z 000000018004d95d f   PhysXCommon_64:PhysXCommon_64d.dll
 0001:0004c963       ?computeBoundsAroundVertices@Gu@physx@@YAXAEAVPxBounds3@2@IPEIBVPxVec3@2@@Z 000000018004d963 f   PhysXCommon_64:PhysXCommon_64d.dll
 0001:0004c969       ??0SourceMesh@Gu@physx@@QEAA@XZ 000000018004d969 f   PhysXCommon_64:PhysXCommon_64d.dll
 0001:0004c96f       ??1SourceMesh@Gu@physx@@QEAA@XZ 000000018004d96f f   PhysXCommon_64:PhysXCommon_64d.dll
 0001:0004c975       ??0BV4Tree@Gu@physx@@QEAA@XZ 000000018004d975 f   PhysXCommon_64:PhysXCommon_64d.dll
 0001:0004c97b       ??1BV4Tree@Gu@physx@@QEAA@XZ 000000018004d97b f   PhysXCommon_64:PhysXCommon_64d.dll
 0001:0004c981       ??0BV32Tree@Gu@physx@@QEAA@XZ 000000018004d981 f   PhysXCommon_64:PhysXCommon_64d.dll
 0001:0004c987       ??1BV32Tree@Gu@physx@@QEAA@XZ 000000018004d987 f   PhysXCommon_64:PhysXCommon_64d.dll
 0001:0004c98d       ?writeWordBuffer@physx@@YAXPEBGI_NAEAVPxOutputStream@1@@Z 000000018004d98d f   PhysXCommon_64:PhysXCommon_64d.dll
 0001:0004c993       ?computeMaxIndex@physx@@YAIPEBII@Z 000000018004d993 f   PhysXCommon_64:PhysXCommon_64d.dll
 0001:0004c999       ?storeIndices@physx@@YAXIIPEBIAEAVPxOutputStream@1@_N@Z 000000018004d999 f   PhysXCommon_64:PhysXCommon_64d.dll
 0001:0004c99f       ?BuildBV4Ex@Gu@physx@@YA_NAEAVBV4Tree@12@AEAVSourceMesh@12@MI@Z 000000018004d99f f   PhysXCommon_64:PhysXCommon_64d.dll
 0001:0004c9a5       ?BuildBV32Ex@Gu@physx@@YA_NAEAVBV32Tree@12@AEAVSourceMesh@12@MI@Z 000000018004d9a5 f   PhysXCommon_64:PhysXCommon_64d.dll
 0001:0004c9ab       ?computeMaxIndex@physx@@YAGPEBGI@Z 000000018004d9ab f   PhysXCommon_64:PhysXCommon_64d.dll
 0001:0004c9b1       ?WriteHeader@Gu@physx@@YA_NEEEEI_NAEAVPxOutputStream@2@@Z 000000018004d9b1 f   PhysXCommon_64:PhysXCommon_64d.dll
 0001:0004c9b7       ?StoreIndices@Gu@physx@@YAXGIPEBGAEAVPxOutputStream@2@_N@Z 000000018004d9b7 f   PhysXCommon_64:PhysXCommon_64d.dll
 0001:0004c9bd       ?CreateOffsets@BigConvexData@physx@@IEAAXXZ 000000018004d9bd f   PhysXCommon_64:PhysXCommon_64d.dll
 0001:0004c9c3       ?computeOBBPoints@Gu@physx@@YAXPEIAVPxVec3@2@AEBV32@1111@Z 000000018004d9c3 f   PhysXCommon_64:PhysXCommon_64d.dll
 0001:0004c9c9       ??0BigConvexData@physx@@QEAA@XZ 000000018004d9c9 f   PhysXCommon_64:PhysXCommon_64d.dll
 0001:0004c9cf       ??1BigConvexData@physx@@QEAA@XZ 000000018004d9cf f   PhysXCommon_64:PhysXCommon_64d.dll
 0001:0004c9d5       ?PxGetAssertHandler@physx@@YAAEAVPxAssertHandler@1@XZ 000000018004d9d5 f   PhysXFoundation_64:PhysXFoundation_64d.dll
 0001:0004c9db       PxGetFoundation            000000018004d9db f   PhysXFoundation_64:PhysXFoundation_64d.dll
 0001:0004c9e1       ?getAllocator@shdfnd@physx@@YAAEAVPxAllocatorCallback@2@XZ 000000018004d9e1 f   PhysXFoundation_64:PhysXFoundation_64d.dll
 0001:0004c9e7       ??0NamedAllocator@shdfnd@physx@@QEAA@PEBD@Z 000000018004d9e7 f   PhysXFoundation_64:PhysXFoundation_64d.dll
 0001:0004c9ed       ?getInstance@Foundation@shdfnd@physx@@SAAEAV123@XZ 000000018004d9ed f   PhysXFoundation_64:PhysXFoundation_64d.dll
 0001:0004c9f3       ?error@Foundation@shdfnd@physx@@QEAAXW4Enum@PxErrorCode@3@PEBDH1ZZ 000000018004d9f3 f   PhysXFoundation_64:PhysXFoundation_64d.dll
 0001:0004c9f9       ?allocate@NamedAllocator@shdfnd@physx@@QEAAPEAX_KPEBDH@Z 000000018004d9f9 f   PhysXFoundation_64:PhysXFoundation_64d.dll
 0001:0004c9ff       ?deallocate@NamedAllocator@shdfnd@physx@@QEAAXPEAX@Z 000000018004d9ff f   PhysXFoundation_64:PhysXFoundation_64d.dll
 0001:0004ca05       ?incRefCount@Foundation@shdfnd@physx@@SAXXZ 000000018004da05 f   PhysXFoundation_64:PhysXFoundation_64d.dll
 0001:0004ca0b       ?decRefCount@Foundation@shdfnd@physx@@SAXXZ 000000018004da0b f   PhysXFoundation_64:PhysXFoundation_64d.dll
 0001:0004ca11       ??0FPUGuard@shdfnd@physx@@QEAA@XZ 000000018004da11 f   PhysXFoundation_64:PhysXFoundation_64d.dll
 0001:0004ca17       ??1FPUGuard@shdfnd@physx@@QEAA@XZ 000000018004da17 f   PhysXFoundation_64:PhysXFoundation_64d.dll
 0001:0004ca1d       ??1NamedAllocator@shdfnd@physx@@QEAA@XZ 000000018004da1d f   PhysXFoundation_64:PhysXFoundation_64d.dll
 0001:0004ca23       ??0NamedAllocator@shdfnd@physx@@QEAA@AEBV012@@Z 000000018004da23 f   PhysXFoundation_64:PhysXFoundation_64d.dll
 0001:0004ca29       ?allocate@TempAllocator@shdfnd@physx@@QEAAPEAX_KPEBDH@Z 000000018004da29 f   PhysXFoundation_64:PhysXFoundation_64d.dll
 0001:0004ca2f       ?deallocate@TempAllocator@shdfnd@physx@@QEAAXPEAX@Z 000000018004da2f f   PhysXFoundation_64:PhysXFoundation_64d.dll
 0001:0004ca35       ?PxDiagonalize@physx@@YA?AVPxVec3@1@AEBVPxMat33@1@AEAVPxQuat@1@@Z 000000018004da35 f   PhysXFoundation_64:PhysXFoundation_64d.dll
 0001:0004ca3b       LoadLibraryA               000000018004da3b f   kernel32:KERNEL32.dll
 0001:0004ca50       ??3@YAXPEAX_K@Z            000000018004da50 f   MSVCRTD:delete_scalar_size.obj
 0001:0004ca70       ??_V@YAXPEAX_K@Z           000000018004da70 f   MSVCRTD:delete_array_size.obj
 0001:0004ca90       _CRT_RTC_INIT              000000018004da90 f   MSVCRTD:init.obj
 0001:0004caa0       _CRT_RTC_INITW             000000018004daa0 f   MSVCRTD:init.obj
 0001:0004cab0       _RTC_InitBase              000000018004dab0 f   MSVCRTD:init.obj
 0001:0004caf0       _RTC_Shutdown              000000018004daf0 f   MSVCRTD:init.obj
 0001:0004cb20       ??1type_info@@UEAA@XZ      000000018004db20 f   MSVCRTD:std_type_info_static.obj
 0001:0004cb40       ??_Gtype_info@@UEAAPEAXI@Z 000000018004db40 f i MSVCRTD:std_type_info_static.obj
 0001:0004cb40       ??_Etype_info@@UEAAPEAXI@Z 000000018004db40 f i MSVCRTD:std_type_info_static.obj
 0001:0004cb80       ?__scrt_initialize_type_info@@YAXXZ 000000018004db80 f   MSVCRTD:tncleanup.obj
 0001:0004cba0       ?__scrt_uninitialize_type_info@@YAXXZ 000000018004dba0 f   MSVCRTD:tncleanup.obj
 0001:0004cbd0       __chkstk                   000000018004dbd0 f   MSVCRTD:chkstk.obj
 0001:0004cbd0       _alloca_probe              000000018004dbd0 f   MSVCRTD:chkstk.obj
 0001:0004cc30       ??3@YAXPEAX@Z              000000018004dc30 f   MSVCRTD:delete_scalar.obj
 0001:0004cc50       ??_V@YAXPEAX@Z             000000018004dc50 f   MSVCRTD:delete_array.obj
 0001:0004d080       _CRT_INIT                  000000018004e080 f   MSVCRTD:dll_dllmain.obj
 0001:0004d0b0       _DllMainCRTStartup         000000018004e0b0 f   MSVCRTD:dll_dllmain.obj
 0001:0004d0f0       ?_RTC_GetErrorFunc@@YAP6AHHPEBDH00ZZPEBX@Z 000000018004e0f0 f   MSVCRTD:userapi.obj
 0001:0004d100       ?_RTC_GetErrorFuncW@@YAP6AHHPEB_WH00ZZPEBX@Z 000000018004e100 f   MSVCRTD:userapi.obj
 0001:0004d110       _RTC_GetErrDesc            000000018004e110 f   MSVCRTD:userapi.obj
 0001:0004d130       _RTC_NumErrors             000000018004e130 f   MSVCRTD:userapi.obj
 0001:0004d140       _RTC_SetErrorFunc          000000018004e140 f   MSVCRTD:userapi.obj
 0001:0004d160       _RTC_SetErrorFuncW         000000018004e160 f   MSVCRTD:userapi.obj
 0001:0004d180       _RTC_SetErrorType          000000018004e180 f   MSVCRTD:userapi.obj
 0001:0004d260       __security_init_cookie     000000018004e260 f   MSVCRTD:gs_support.obj
 0001:0004d2e0       DllMain                    000000018004e2e0 f   MSVCRTD:dll_dllmain_stub.obj
 0001:0004d320       __local_stdio_printf_options 000000018004e320 f i MSVCRTD:default_local_stdio_options.obj
 0001:0004d330       __local_stdio_scanf_options 000000018004e330 f i MSVCRTD:default_local_stdio_options.obj
 0001:0004d340       __scrt_initialize_default_local_stdio_options 000000018004e340 f   MSVCRTD:default_local_stdio_options.obj
 0001:0004d390       ?configure_argv@__scrt_narrow_argv_policy@@SAHXZ 000000018004e390 f i MSVCRTD:utility.obj
 0001:0004d480       ?initialize_environment@__scrt_narrow_environment_policy@@SAHXZ 000000018004e480 f i MSVCRTD:utility.obj
 0001:0004d520       NtCurrentTeb               000000018004e520 f i MSVCRTD:utility.obj
 0001:0004d530       __scrt_acquire_startup_lock 000000018004e530 f   MSVCRTD:utility.obj
 0001:0004d5a0       __scrt_dllmain_after_initialize_c 000000018004e5a0 f   MSVCRTD:utility.obj
 0001:0004d5d0       __scrt_dllmain_before_initialize_c 000000018004e5d0 f   MSVCRTD:utility.obj
 0001:0004d5f0       __scrt_dllmain_crt_thread_attach 000000018004e5f0 f   MSVCRTD:utility.obj
 0001:0004d620       __scrt_dllmain_crt_thread_detach 000000018004e620 f   MSVCRTD:utility.obj
 0001:0004d640       __scrt_dllmain_exception_filter 000000018004e640 f   MSVCRTD:utility.obj
 0001:0004d6b0       __scrt_dllmain_uninitialize_c 000000018004e6b0 f   MSVCRTD:utility.obj
 0001:0004d6e0       __scrt_dllmain_uninitialize_critical 000000018004e6e0 f   MSVCRTD:utility.obj
 0001:0004d700       __scrt_initialize_crt      000000018004e700 f   MSVCRTD:utility.obj
 0001:0004d750       __scrt_initialize_onexit_tables 000000018004e750 f   MSVCRTD:utility.obj
 0001:0004d860       __scrt_is_nonwritable_in_current_image 000000018004e860 f   MSVCRTD:utility.obj
 0001:0004d8f0       __scrt_release_startup_lock 000000018004e8f0 f   MSVCRTD:utility.obj
 0001:0004d920       __scrt_uninitialize_crt    000000018004e920 f   MSVCRTD:utility.obj
 0001:0004d960       _onexit                    000000018004e960 f   MSVCRTD:utility.obj
 0001:0004d9e0       at_quick_exit              000000018004e9e0 f   MSVCRTD:utility.obj
 0001:0004da30       atexit                     000000018004ea30 f   MSVCRTD:utility.obj
 0001:0004da70       __scrt_get_dyn_tls_init_callback 000000018004ea70 f   MSVCRTD:dyn_tls_init.obj
 0001:0004da80       __crt_debugger_hook        000000018004ea80 f   MSVCRTD:utility_desktop.obj
 0001:0004da90       __scrt_fastfail            000000018004ea90 f   MSVCRTD:utility_desktop.obj
 0001:0004dc30       __scrt_get_show_window_mode 000000018004ec30 f   MSVCRTD:utility_desktop.obj
 0001:0004dc90       __scrt_initialize_mta      000000018004ec90 f   MSVCRTD:utility_desktop.obj
 0001:0004dca0       __scrt_initialize_winrt    000000018004eca0 f   MSVCRTD:utility_desktop.obj
 0001:0004dcb0       __scrt_is_managed_app      000000018004ecb0 f   MSVCRTD:utility_desktop.obj
 0001:0004dd60       __scrt_set_unhandled_exception_filter 000000018004ed60 f   MSVCRTD:utility_desktop.obj
 0001:0004dd80       __scrt_exe_initialize_mta  000000018004ed80 f   MSVCRTD:utility_desktop.obj
 0001:0004dd80       __scrt_stub_for_initialize_mta 000000018004ed80 f   MSVCRTD:utility_desktop.obj
 0001:0004dd90       __scrt_unhandled_exception_filter 000000018004ed90 f   MSVCRTD:utility_desktop.obj
 0001:0004de30       _RTC_Initialize            000000018004ee30 f   MSVCRTD:initsect.obj
 0001:0004de80       _RTC_Terminate             000000018004ee80 f   MSVCRTD:initsect.obj
 0001:0004ded0       _guard_check_icall_nop     000000018004eed0 f i MSVCRTD:guard_support.obj
 0001:0004dee0       ReadNoFence64              000000018004eee0 f i MSVCRTD:guard_support.obj
 0001:0004df00       ReadPointerNoFence         000000018004ef00 f i MSVCRTD:guard_support.obj
 0001:0004df20       __castguard_check_failure_debugbreak 000000018004ef20 f i MSVCRTD:guard_support.obj
 0001:0004df40       __castguard_check_failure_fastfail 000000018004ef40 f i MSVCRTD:guard_support.obj
 0001:0004df70       __castguard_check_failure_nop 000000018004ef70 f i MSVCRTD:guard_support.obj
 0001:0004df80       __castguard_check_failure_os_handled 000000018004ef80 f i MSVCRTD:guard_support.obj
 0001:0004e040       __castguard_slow_path_check_debugbreak 000000018004f040 f i MSVCRTD:guard_support.obj
 0001:0004e080       __castguard_slow_path_check_fastfail 000000018004f080 f i MSVCRTD:guard_support.obj
 0001:0004e0d0       __castguard_slow_path_check_nop 000000018004f0d0 f i MSVCRTD:guard_support.obj
 0001:0004e0e0       __castguard_slow_path_check_os_handled 000000018004f0e0 f i MSVCRTD:guard_support.obj
 0001:0004e1c0       _guard_icall_checks_enforced 000000018004f1c0 f i MSVCRTD:guard_support.obj
 0001:0004e200       _guard_rf_checks_enforced  000000018004f200 f i MSVCRTD:guard_support.obj
 0001:0004e2a0       ?_RTC_AllocaFailure@@YAXPEAXPEAU_RTC_ALLOCA_NODE@@H@Z 000000018004f2a0 f   MSVCRTD:error.obj
 0001:0004e400       ?_RTC_Failure@@YAXPEAXH@Z  000000018004f400 f   MSVCRTD:error.obj
 0001:0004e450       ?_RTC_StackFailure@@YAXPEAXPEBD@Z 000000018004f450 f   MSVCRTD:error.obj
 0001:0004e880       _RTC_UninitUse             000000018004f880 f   MSVCRTD:error.obj
 0001:0004e950       _vsprintf_s_l              000000018004f950 f i MSVCRTD:error.obj
 0001:0004e9c0       sprintf_s                  000000018004f9c0 f i MSVCRTD:error.obj
 0001:0004e9f0       __isa_available_init       000000018004f9f0 f   MSVCRTD:cpu_disp.obj
 0001:0004ed90       _get_startup_argv_mode     000000018004fd90 f   MSVCRTD:argv_mode.obj
 0001:0004eda0       __scrt_is_ucrt_dll_in_use  000000018004fda0 f   MSVCRTD:ucrt_detection.obj
 0001:0004f2e0       ?_RTC_GetSrcLine@@YAHPEAEPEA_WKPEAH1K@Z 00000001800502e0 f   MSVCRTD:pdblkup.obj
 0001:0004f6b0       __GSHandlerCheck           00000001800506b0 f   MSVCRTD:gshandler.obj
 0001:0004f6f0       __GSHandlerCheckCommon     00000001800506f0 f   MSVCRTD:gshandler.obj
 0001:0004f800       __security_check_cookie    0000000180050800 f   MSVCRTD:amdsecgs.obj
 0001:0004f830       __raise_securityfailure    0000000180050830 f   MSVCRTD:gs_report.obj
 0001:0004f870       __report_gsfailure         0000000180050870 f   MSVCRTD:gs_report.obj
 0001:0004f950       __report_rangecheckfailure 0000000180050950 f   MSVCRTD:gs_report.obj
 0001:0004f970       __report_securityfailure   0000000180050970 f   MSVCRTD:gs_report.obj
 0001:0004fa10       __report_securityfailureEx 0000000180050a10 f   MSVCRTD:gs_report.obj
 0001:0004fc72       _purecall                  0000000180050c72 f   vcruntimed:VCRUNTIME140D.dll
 0001:0004fc78       memset                     0000000180050c78 f   vcruntimed:VCRUNTIME140D.dll
 0001:0004fc7e       __std_type_info_name       0000000180050c7e f   vcruntimed:VCRUNTIME140D.dll
 0001:0004fc84       memcpy                     0000000180050c84 f   vcruntimed:VCRUNTIME140D.dll
 0001:0004fc8a       strstr                     0000000180050c8a f   vcruntimed:VCRUNTIME140D.dll
 0001:0004fc90       __std_type_info_destroy_list 0000000180050c90 f   vcruntimed:VCRUNTIME140D.dll
 0001:0004fc96       __C_specific_handler       0000000180050c96 f   vcruntimed:VCRUNTIME140D.dll
 0001:0004fc9c       __current_exception        0000000180050c9c f   vcruntimed:VCRUNTIME140D.dll
 0001:0004fca2       __current_exception_context 0000000180050ca2 f   vcruntimed:VCRUNTIME140D.dll
 0001:0004fca8       __C_specific_handler_noexcept 0000000180050ca8 f   vcruntimed:VCRUNTIME140D.dll
 0001:0004fcae       __vcrt_GetModuleFileNameW  0000000180050cae f   vcruntimed:VCRUNTIME140D.dll
 0001:0004fcb4       __vcrt_GetModuleHandleW    0000000180050cb4 f   vcruntimed:VCRUNTIME140D.dll
 0001:0004fcba       __vcrt_LoadLibraryExW      0000000180050cba f   vcruntimed:VCRUNTIME140D.dll
 0001:0004fcc0       strcmp                     0000000180050cc0 f   ucrtd:ucrtbased.dll
 0001:0004fcc6       fabs                       0000000180050cc6 f   ucrtd:ucrtbased.dll
 0001:0004fccc       atan2f                     0000000180050ccc f   ucrtd:ucrtbased.dll
 0001:0004fcd2       sqrtf                      0000000180050cd2 f   ucrtd:ucrtbased.dll
 0001:0004fcd8       floorf                     0000000180050cd8 f   ucrtd:ucrtbased.dll
 0001:0004fcde       _fpclass                   0000000180050cde f   ucrtd:ucrtbased.dll
 0001:0004fce4       _wassert                   0000000180050ce4 f   ucrtd:ucrtbased.dll
 0001:0004fcea       abs                        0000000180050cea f   ucrtd:ucrtbased.dll
 0001:0004fcf0       powf                       0000000180050cf0 f   ucrtd:ucrtbased.dll
 0001:0004fcf6       cosf                       0000000180050cf6 f   ucrtd:ucrtbased.dll
 0001:0004fcfc       sinf                       0000000180050cfc f   ucrtd:ucrtbased.dll
 0001:0004fd02       _CrtDbgReport              0000000180050d02 f   ucrtd:ucrtbased.dll
 0001:0004fd08       _CrtDbgReportW             0000000180050d08 f   ucrtd:ucrtbased.dll
 0001:0004fd0e       _free_dbg                  0000000180050d0e f   ucrtd:ucrtbased.dll
 0001:0004fd14       _initterm                  0000000180050d14 f   ucrtd:ucrtbased.dll
 0001:0004fd1a       _initterm_e                0000000180050d1a f   ucrtd:ucrtbased.dll
 0001:0004fd20       _seh_filter_dll            0000000180050d20 f   ucrtd:ucrtbased.dll
 0001:0004fd26       _configure_narrow_argv     0000000180050d26 f   ucrtd:ucrtbased.dll
 0001:0004fd2c       _initialize_narrow_environment 0000000180050d2c f   ucrtd:ucrtbased.dll
 0001:0004fd32       _initialize_onexit_table   0000000180050d32 f   ucrtd:ucrtbased.dll
 0001:0004fd38       _register_onexit_function  0000000180050d38 f   ucrtd:ucrtbased.dll
 0001:0004fd3e       _execute_onexit_table      0000000180050d3e f   ucrtd:ucrtbased.dll
 0001:0004fd44       _crt_atexit                0000000180050d44 f   ucrtd:ucrtbased.dll
 0001:0004fd4a       _crt_at_quick_exit         0000000180050d4a f   ucrtd:ucrtbased.dll
 0001:0004fd50       _cexit                     0000000180050d50 f   ucrtd:ucrtbased.dll
 0001:0004fd56       terminate                  0000000180050d56 f   ucrtd:ucrtbased.dll
 0001:0004fd5c       strcpy_s                   0000000180050d5c f   ucrtd:ucrtbased.dll
 0001:0004fd62       strcat_s                   0000000180050d62 f   ucrtd:ucrtbased.dll
 0001:0004fd68       __stdio_common_vsprintf_s  0000000180050d68 f   ucrtd:ucrtbased.dll
 0001:0004fd6e       _wmakepath_s               0000000180050d6e f   ucrtd:ucrtbased.dll
 0001:0004fd74       _wsplitpath_s              0000000180050d74 f   ucrtd:ucrtbased.dll
 0001:0004fd7a       wcscpy_s                   0000000180050d7a f   ucrtd:ucrtbased.dll
 0001:0004fd80       InitializeSListHead        0000000180050d80 f   kernel32:KERNEL32.dll
 0001:0004fd86       QueryPerformanceCounter    0000000180050d86 f   kernel32:KERNEL32.dll
 0001:0004fd8c       GetCurrentProcessId        0000000180050d8c f   kernel32:KERNEL32.dll
 0001:0004fd92       GetCurrentThreadId         0000000180050d92 f   kernel32:KERNEL32.dll
 0001:0004fd98       GetSystemTimeAsFileTime    0000000180050d98 f   kernel32:KERNEL32.dll
 0001:0004fd9e       DisableThreadLibraryCalls  0000000180050d9e f   kernel32:KERNEL32.dll
 0001:0004fda4       RtlCaptureContext          0000000180050da4 f   kernel32:KERNEL32.dll
 0001:0004fdaa       RtlLookupFunctionEntry     0000000180050daa f   kernel32:KERNEL32.dll
 0001:0004fdb0       RtlVirtualUnwind           0000000180050db0 f   kernel32:KERNEL32.dll
 0001:0004fdb6       IsDebuggerPresent          0000000180050db6 f   kernel32:KERNEL32.dll
 0001:0004fdbc       UnhandledExceptionFilter   0000000180050dbc f   kernel32:KERNEL32.dll
 0001:0004fdc2       SetUnhandledExceptionFilter 0000000180050dc2 f   kernel32:KERNEL32.dll
 0001:0004fdc8       GetStartupInfoW            0000000180050dc8 f   kernel32:KERNEL32.dll
 0001:0004fdce       IsProcessorFeaturePresent  0000000180050dce f   kernel32:KERNEL32.dll
 0001:0004fdd4       GetModuleHandleW           0000000180050dd4 f   kernel32:KERNEL32.dll
 0001:0004fdda       RaiseException             0000000180050dda f   kernel32:KERNEL32.dll
 0001:0004fde0       MultiByteToWideChar        0000000180050de0 f   kernel32:KERNEL32.dll
 0001:0004fde6       WideCharToMultiByte        0000000180050de6 f   kernel32:KERNEL32.dll
 0001:0004fdec       GetLastError               0000000180050dec f   kernel32:KERNEL32.dll
 0001:0004fdf2       HeapAlloc                  0000000180050df2 f   kernel32:KERNEL32.dll
 0001:0004fdf8       HeapFree                   0000000180050df8 f   kernel32:KERNEL32.dll
 0001:0004fdfe       GetProcessHeap             0000000180050dfe f   kernel32:KERNEL32.dll
 0001:0004fe04       VirtualQuery               0000000180050e04 f   kernel32:KERNEL32.dll
 0001:0004fe0a       FreeLibrary                0000000180050e0a f   kernel32:KERNEL32.dll
 0001:0004fe10       GetProcAddress             0000000180050e10 f   kernel32:KERNEL32.dll
 0001:0004fe16       GetCurrentProcess          0000000180050e16 f   kernel32:KERNEL32.dll
 0001:0004fe1c       TerminateProcess           0000000180050e1c f   kernel32:KERNEL32.dll
 0001:0004fe30       __acrt_initialize          0000000180050e30 f   MSVCRTD:ucrt_stubs.obj
 0001:0004fe30       __scrt_stub_for_acrt_initialize 0000000180050e30 f   MSVCRTD:ucrt_stubs.obj
 0001:0004fe30       __vcrt_initialize          0000000180050e30 f   MSVCRTD:ucrt_stubs.obj
 0001:0004fe40       __vcrt_thread_attach       0000000180050e40 f   MSVCRTD:ucrt_stubs.obj
 0001:0004fe40       __acrt_thread_attach       0000000180050e40 f   MSVCRTD:ucrt_stubs.obj
 0001:0004fe40       __scrt_stub_for_acrt_thread_attach 0000000180050e40 f   MSVCRTD:ucrt_stubs.obj
 0001:0004fe50       __vcrt_thread_detach       0000000180050e50 f   MSVCRTD:ucrt_stubs.obj
 0001:0004fe50       __scrt_stub_for_acrt_thread_detach 0000000180050e50 f   MSVCRTD:ucrt_stubs.obj
 0001:0004fe50       __acrt_thread_detach       0000000180050e50 f   MSVCRTD:ucrt_stubs.obj
 0001:0004fe60       __acrt_uninitialize        0000000180050e60 f   MSVCRTD:ucrt_stubs.obj
 0001:0004fe60       __scrt_stub_for_acrt_uninitialize 0000000180050e60 f   MSVCRTD:ucrt_stubs.obj
 0001:0004fe60       __vcrt_uninitialize        0000000180050e60 f   MSVCRTD:ucrt_stubs.obj
 0001:0004fe70       __acrt_uninitialize_critical 0000000180050e70 f   MSVCRTD:ucrt_stubs.obj
 0001:0004fe70       __scrt_stub_for_acrt_uninitialize_critical 0000000180050e70 f   MSVCRTD:ucrt_stubs.obj
 0001:0004fe70       __vcrt_uninitialize_critical 0000000180050e70 f   MSVCRTD:ucrt_stubs.obj
 0001:0004fe80       _is_c_termination_complete 0000000180050e80 f   MSVCRTD:ucrt_stubs.obj
 0001:0004fe80       __scrt_stub_for_is_c_termination_complete 0000000180050e80 f   MSVCRTD:ucrt_stubs.obj
 0001:0004fea0       _guard_dispatch_icall_nop  0000000180050ea0 f   MSVCRTD:guard_dispatch.obj
 0001:0004fec0       _guard_xfg_dispatch_icall_nop 0000000180050ec0 f   MSVCRTD:guard_xfg_dispatch.obj
 0002:00000000       __imp_TerminateProcess     0000000180051000     kernel32:KERNEL32.dll
 0002:00000008       __imp_QueryPerformanceCounter 0000000180051008     kernel32:KERNEL32.dll
 0002:00000010       __imp_GetCurrentProcessId  0000000180051010     kernel32:KERNEL32.dll
 0002:00000018       __imp_GetCurrentThreadId   0000000180051018     kernel32:KERNEL32.dll
 0002:00000020       __imp_GetSystemTimeAsFileTime 0000000180051020     kernel32:KERNEL32.dll
 0002:00000028       __imp_DisableThreadLibraryCalls 0000000180051028     kernel32:KERNEL32.dll
 0002:00000030       __imp_RtlCaptureContext    0000000180051030     kernel32:KERNEL32.dll
 0002:00000038       __imp_LoadLibraryA         0000000180051038     kernel32:KERNEL32.dll
 0002:00000040       __imp_RtlLookupFunctionEntry 0000000180051040     kernel32:KERNEL32.dll
 0002:00000048       __imp_RtlVirtualUnwind     0000000180051048     kernel32:KERNEL32.dll
 0002:00000050       __imp_IsDebuggerPresent    0000000180051050     kernel32:KERNEL32.dll
 0002:00000058       __imp_UnhandledExceptionFilter 0000000180051058     kernel32:KERNEL32.dll
 0002:00000060       __imp_SetUnhandledExceptionFilter 0000000180051060     kernel32:KERNEL32.dll
 0002:00000068       __imp_GetStartupInfoW      0000000180051068     kernel32:KERNEL32.dll
 0002:00000070       __imp_IsProcessorFeaturePresent 0000000180051070     kernel32:KERNEL32.dll
 0002:00000078       __imp_GetModuleHandleW     0000000180051078     kernel32:KERNEL32.dll
 0002:00000080       __imp_RaiseException       0000000180051080     kernel32:KERNEL32.dll
 0002:00000088       __imp_MultiByteToWideChar  0000000180051088     kernel32:KERNEL32.dll
 0002:00000090       __imp_WideCharToMultiByte  0000000180051090     kernel32:KERNEL32.dll
 0002:00000098       __imp_GetLastError         0000000180051098     kernel32:KERNEL32.dll
 0002:000000a0       __imp_HeapAlloc            00000001800510a0     kernel32:KERNEL32.dll
 0002:000000a8       __imp_HeapFree             00000001800510a8     kernel32:KERNEL32.dll
 0002:000000b0       __imp_GetProcessHeap       00000001800510b0     kernel32:KERNEL32.dll
 0002:000000b8       __imp_VirtualQuery         00000001800510b8     kernel32:KERNEL32.dll
 0002:000000c0       __imp_FreeLibrary          00000001800510c0     kernel32:KERNEL32.dll
 0002:000000c8       __imp_GetProcAddress       00000001800510c8     kernel32:KERNEL32.dll
 0002:000000d0       __imp_GetCurrentProcess    00000001800510d0     kernel32:KERNEL32.dll
 0002:000000d8       __imp_InitializeSListHead  00000001800510d8     kernel32:KERNEL32.dll
 0002:000000e0       \177KERNEL32_NULL_THUNK_DATA 00000001800510e0     kernel32:KERNEL32.dll
 0002:000000e8       __imp_?storeIndices@physx@@YAXIIPEBIAEAVPxOutputStream@1@_N@Z 00000001800510e8     PhysXCommon_64:PhysXCommon_64d.dll
 0002:000000f0       __imp_?BuildBV4Ex@Gu@physx@@YA_NAEAVBV4Tree@12@AEAVSourceMesh@12@MI@Z 00000001800510f0     PhysXCommon_64:PhysXCommon_64d.dll
 0002:000000f8       __imp_?BuildBV32Ex@Gu@physx@@YA_NAEAVBV32Tree@12@AEAVSourceMesh@12@MI@Z 00000001800510f8     PhysXCommon_64:PhysXCommon_64d.dll
 0002:00000100       __imp_?computeMaxIndex@physx@@YAGPEBGI@Z 0000000180051100     PhysXCommon_64:PhysXCommon_64d.dll
 0002:00000108       __imp_?writeWordBuffer@physx@@YAXPEBGI_NAEAVPxOutputStream@1@@Z 0000000180051108     PhysXCommon_64:PhysXCommon_64d.dll
 0002:00000110       __imp_?StoreIndices@Gu@physx@@YAXGIPEBGAEAVPxOutputStream@2@_N@Z 0000000180051110     PhysXCommon_64:PhysXCommon_64d.dll
 0002:00000118       __imp_?CreateOffsets@BigConvexData@physx@@IEAAXXZ 0000000180051118     PhysXCommon_64:PhysXCommon_64d.dll
 0002:00000120       __imp_?computeOBBPoints@Gu@physx@@YAXPEIAVPxVec3@2@AEBV32@1111@Z 0000000180051120     PhysXCommon_64:PhysXCommon_64d.dll
 0002:00000128       __imp_??0BigConvexData@physx@@QEAA@XZ 0000000180051128     PhysXCommon_64:PhysXCommon_64d.dll
 0002:00000130       __imp_??1BigConvexData@physx@@QEAA@XZ 0000000180051130     PhysXCommon_64:PhysXCommon_64d.dll
 0002:00000138       __imp_??1BV32Tree@Gu@physx@@QEAA@XZ 0000000180051138     PhysXCommon_64:PhysXCommon_64d.dll
 0002:00000140       __imp_??0BV32Tree@Gu@physx@@QEAA@XZ 0000000180051140     PhysXCommon_64:PhysXCommon_64d.dll
 0002:00000148       __imp_??1BV4Tree@Gu@physx@@QEAA@XZ 0000000180051148     PhysXCommon_64:PhysXCommon_64d.dll
 0002:00000150       __imp_??0BV4Tree@Gu@physx@@QEAA@XZ 0000000180051150     PhysXCommon_64:PhysXCommon_64d.dll
 0002:00000158       __imp_??1SourceMesh@Gu@physx@@QEAA@XZ 0000000180051158     PhysXCommon_64:PhysXCommon_64d.dll
 0002:00000160       __imp_??0SourceMesh@Gu@physx@@QEAA@XZ 0000000180051160     PhysXCommon_64:PhysXCommon_64d.dll
 0002:00000168       __imp_?computeBoundsAroundVertices@Gu@physx@@YAXAEAVPxBounds3@2@IPEIBVPxVec3@2@@Z 0000000180051168     PhysXCommon_64:PhysXCommon_64d.dll
 0002:00000170       __imp_?validate@RTree@Gu@physx@@QEAAXPEAUCallbackRefit@123@@Z 0000000180051170     PhysXCommon_64:PhysXCommon_64d.dll
 0002:00000178       __imp_?writeFloat@physx@@YAXM_NAEAVPxOutputStream@1@@Z 0000000180051178     PhysXCommon_64:PhysXCommon_64d.dll
 0002:00000180       __imp_?writeWord@physx@@YAXG_NAEAVPxOutputStream@1@@Z 0000000180051180     PhysXCommon_64:PhysXCommon_64d.dll
 0002:00000188       __imp_?writeHeader@physx@@YA_NCCCCI_NAEAVPxOutputStream@1@@Z 0000000180051188     PhysXCommon_64:PhysXCommon_64d.dll
 0002:00000190       __imp_?writeFloatBuffer@physx@@YAXPEBMI_NAEAVPxOutputStream@1@@Z 0000000180051190     PhysXCommon_64:PhysXCommon_64d.dll
 0002:00000198       __imp_?writeDword@physx@@YAXI_NAEAVPxOutputStream@1@@Z 0000000180051198     PhysXCommon_64:PhysXCommon_64d.dll
 0002:000001a0       __imp_?buildAABBTree@Gu@physx@@YA_NAEAVAABBTreeBuildParams@12@AEAVNodeAllocator@12@AEAUBuildStats@12@AEAPEAI@Z 00000001800511a0     PhysXCommon_64:PhysXCommon_64d.dll
 0002:000001a8       __imp_?release@NodeAllocator@Gu@physx@@QEAAXXZ 00000001800511a8     PhysXCommon_64:PhysXCommon_64d.dll
 0002:000001b0       __imp_??1NodeAllocator@Gu@physx@@QEAA@XZ 00000001800511b0     PhysXCommon_64:PhysXCommon_64d.dll
 0002:000001b8       __imp_??0NodeAllocator@Gu@physx@@QEAA@XZ 00000001800511b8     PhysXCommon_64:PhysXCommon_64d.dll
 0002:000001c0       __imp_??1HeightField@Gu@physx@@UEAA@XZ 00000001800511c0     PhysXCommon_64:PhysXCommon_64d.dll
 0002:000001c8       __imp_?releaseMemory@HeightField@Gu@physx@@QEAAXXZ 00000001800511c8     PhysXCommon_64:PhysXCommon_64d.dll
 0002:000001d0       __imp_?computeCellCoordinates@HeightField@Gu@physx@@QEBAIMMAEAM0@Z 00000001800511d0     PhysXCommon_64:PhysXCommon_64d.dll
 0002:000001d8       __imp_?computeMaxIndex@physx@@YAIPEBII@Z 00000001800511d8     PhysXCommon_64:PhysXCommon_64d.dll
 0002:000001e0       __imp_?loadFromDesc@HeightField@Gu@physx@@QEAA_NAEBVPxHeightFieldDesc@3@@Z 00000001800511e0     PhysXCommon_64:PhysXCommon_64d.dll
 0002:000001e8       __imp_??0HeightField@Gu@physx@@QEAA@PEAVGuMeshFactory@2@@Z 00000001800511e8     PhysXCommon_64:PhysXCommon_64d.dll
 0002:000001f0       __imp_?ReadHeader@Gu@physx@@YA_NEEEEAEAIAEA_NAEAVPxInputStream@2@@Z 00000001800511f0     PhysXCommon_64:PhysXCommon_64d.dll
 0002:000001f8       __imp_?readDword@physx@@YAI_NAEAVPxInputStream@1@@Z 00000001800511f8     PhysXCommon_64:PhysXCommon_64d.dll
 0002:00000200       __imp_?Sort@RadixSortBuffered@Cm@physx@@QEAAAEAV123@PEBIIW4RadixHint@23@@Z 0000000180051200     PhysXCommon_64:PhysXCommon_64d.dll
 0002:00000208       __imp_??1RadixSortBuffered@Cm@physx@@UEAA@XZ 0000000180051208     PhysXCommon_64:PhysXCommon_64d.dll
 0002:00000210       __imp_?WriteHeader@Gu@physx@@YA_NEEEEI_NAEAVPxOutputStream@2@@Z 0000000180051210     PhysXCommon_64:PhysXCommon_64d.dll
 0002:00000218       __imp_??0RadixSortBuffered@Cm@physx@@QEAA@XZ 0000000180051218     PhysXCommon_64:PhysXCommon_64d.dll
 0002:00000220       \177PhysXCommon_64d_NULL_THUNK_DATA 0000000180051220     PhysXCommon_64:PhysXCommon_64d.dll
 0002:00000228       __imp_?deallocate@TempAllocator@shdfnd@physx@@QEAAXPEAX@Z 0000000180051228     PhysXFoundation_64:PhysXFoundation_64d.dll
 0002:00000230       __imp_?allocate@TempAllocator@shdfnd@physx@@QEAAPEAX_KPEBDH@Z 0000000180051230     PhysXFoundation_64:PhysXFoundation_64d.dll
 0002:00000238       __imp_??0NamedAllocator@shdfnd@physx@@QEAA@AEBV012@@Z 0000000180051238     PhysXFoundation_64:PhysXFoundation_64d.dll
 0002:00000240       __imp_?PxDiagonalize@physx@@YA?AVPxVec3@1@AEBVPxMat33@1@AEAVPxQuat@1@@Z 0000000180051240     PhysXFoundation_64:PhysXFoundation_64d.dll
 0002:00000248       __imp_?allocate@NamedAllocator@shdfnd@physx@@QEAAPEAX_KPEBDH@Z 0000000180051248     PhysXFoundation_64:PhysXFoundation_64d.dll
 0002:00000250       __imp_?PxGetAssertHandler@physx@@YAAEAVPxAssertHandler@1@XZ 0000000180051250     PhysXFoundation_64:PhysXFoundation_64d.dll
 0002:00000258       __imp_PxGetFoundation      0000000180051258     PhysXFoundation_64:PhysXFoundation_64d.dll
 0002:00000260       __imp_?getAllocator@shdfnd@physx@@YAAEAVPxAllocatorCallback@2@XZ 0000000180051260     PhysXFoundation_64:PhysXFoundation_64d.dll
 0002:00000268       __imp_??0NamedAllocator@shdfnd@physx@@QEAA@PEBD@Z 0000000180051268     PhysXFoundation_64:PhysXFoundation_64d.dll
 0002:00000270       __imp_?getInstance@Foundation@shdfnd@physx@@SAAEAV123@XZ 0000000180051270     PhysXFoundation_64:PhysXFoundation_64d.dll
 0002:00000278       __imp_?error@Foundation@shdfnd@physx@@QEAAXW4Enum@PxErrorCode@3@PEBDH1ZZ 0000000180051278     PhysXFoundation_64:PhysXFoundation_64d.dll
 0002:00000280       __imp_??1FPUGuard@shdfnd@physx@@QEAA@XZ 0000000180051280     PhysXFoundation_64:PhysXFoundation_64d.dll
 0002:00000288       __imp_?deallocate@NamedAllocator@shdfnd@physx@@QEAAXPEAX@Z 0000000180051288     PhysXFoundation_64:PhysXFoundation_64d.dll
 0002:00000290       __imp_?incRefCount@Foundation@shdfnd@physx@@SAXXZ 0000000180051290     PhysXFoundation_64:PhysXFoundation_64d.dll
 0002:00000298       __imp_?decRefCount@Foundation@shdfnd@physx@@SAXXZ 0000000180051298     PhysXFoundation_64:PhysXFoundation_64d.dll
 0002:000002a0       __imp_??0FPUGuard@shdfnd@physx@@QEAA@XZ 00000001800512a0     PhysXFoundation_64:PhysXFoundation_64d.dll
 0002:000002a8       __imp_??1NamedAllocator@shdfnd@physx@@QEAA@XZ 00000001800512a8     PhysXFoundation_64:PhysXFoundation_64d.dll
 0002:000002b0       \177PhysXFoundation_64d_NULL_THUNK_DATA 00000001800512b0     PhysXFoundation_64:PhysXFoundation_64d.dll
 0002:000002b8       __imp___vcrt_GetModuleHandleW 00000001800512b8     vcruntimed:VCRUNTIME140D.dll
 0002:000002c0       __imp___vcrt_GetModuleFileNameW 00000001800512c0     vcruntimed:VCRUNTIME140D.dll
 0002:000002c8       __imp___C_specific_handler_noexcept 00000001800512c8     vcruntimed:VCRUNTIME140D.dll
 0002:000002d0       __imp___current_exception_context 00000001800512d0     vcruntimed:VCRUNTIME140D.dll
 0002:000002d8       __imp___vcrt_LoadLibraryExW 00000001800512d8     vcruntimed:VCRUNTIME140D.dll
 0002:000002e0       __imp__purecall            00000001800512e0     vcruntimed:VCRUNTIME140D.dll
 0002:000002e8       __imp_memset               00000001800512e8     vcruntimed:VCRUNTIME140D.dll
 0002:000002f0       __imp___std_type_info_name 00000001800512f0     vcruntimed:VCRUNTIME140D.dll
 0002:000002f8       __imp_memcpy               00000001800512f8     vcruntimed:VCRUNTIME140D.dll
 0002:00000300       __imp_strstr               0000000180051300     vcruntimed:VCRUNTIME140D.dll
 0002:00000308       __imp___std_type_info_destroy_list 0000000180051308     vcruntimed:VCRUNTIME140D.dll
 0002:00000310       __imp___C_specific_handler 0000000180051310     vcruntimed:VCRUNTIME140D.dll
 0002:00000318       __imp___current_exception  0000000180051318     vcruntimed:VCRUNTIME140D.dll
 0002:00000320       \177VCRUNTIME140D_NULL_THUNK_DATA 0000000180051320     vcruntimed:VCRUNTIME140D.dll
 0002:00000328       __imp___stdio_common_vsprintf_s 0000000180051328     ucrtd:ucrtbased.dll
 0002:00000330       __imp__wmakepath_s         0000000180051330     ucrtd:ucrtbased.dll
 0002:00000338       __imp__wsplitpath_s        0000000180051338     ucrtd:ucrtbased.dll
 0002:00000340       __imp_wcscpy_s             0000000180051340     ucrtd:ucrtbased.dll
 0002:00000348       __imp_terminate            0000000180051348     ucrtd:ucrtbased.dll
 0002:00000350       __imp_strcpy_s             0000000180051350     ucrtd:ucrtbased.dll
 0002:00000358       __imp__cexit               0000000180051358     ucrtd:ucrtbased.dll
 0002:00000360       __imp__crt_at_quick_exit   0000000180051360     ucrtd:ucrtbased.dll
 0002:00000368       __imp__crt_atexit          0000000180051368     ucrtd:ucrtbased.dll
 0002:00000370       __imp__execute_onexit_table 0000000180051370     ucrtd:ucrtbased.dll
 0002:00000378       __imp__register_onexit_function 0000000180051378     ucrtd:ucrtbased.dll
 0002:00000380       __imp__initialize_onexit_table 0000000180051380     ucrtd:ucrtbased.dll
 0002:00000388       __imp__initialize_narrow_environment 0000000180051388     ucrtd:ucrtbased.dll
 0002:00000390       __imp__configure_narrow_argv 0000000180051390     ucrtd:ucrtbased.dll
 0002:00000398       __imp__seh_filter_dll      0000000180051398     ucrtd:ucrtbased.dll
 0002:000003a0       __imp__initterm_e          00000001800513a0     ucrtd:ucrtbased.dll
 0002:000003a8       __imp__initterm            00000001800513a8     ucrtd:ucrtbased.dll
 0002:000003b0       __imp__free_dbg            00000001800513b0     ucrtd:ucrtbased.dll
 0002:000003b8       __imp__CrtDbgReportW       00000001800513b8     ucrtd:ucrtbased.dll
 0002:000003c0       __imp__CrtDbgReport        00000001800513c0     ucrtd:ucrtbased.dll
 0002:000003c8       __imp_sinf                 00000001800513c8     ucrtd:ucrtbased.dll
 0002:000003d0       __imp_cosf                 00000001800513d0     ucrtd:ucrtbased.dll
 0002:000003d8       __imp_powf                 00000001800513d8     ucrtd:ucrtbased.dll
 0002:000003e0       __imp_abs                  00000001800513e0     ucrtd:ucrtbased.dll
 0002:000003e8       __imp__wassert             00000001800513e8     ucrtd:ucrtbased.dll
 0002:000003f0       __imp__fpclass             00000001800513f0     ucrtd:ucrtbased.dll
 0002:000003f8       __imp_floorf               00000001800513f8     ucrtd:ucrtbased.dll
 0002:00000400       __imp_sqrtf                0000000180051400     ucrtd:ucrtbased.dll
 0002:00000408       __imp_atan2f               0000000180051408     ucrtd:ucrtbased.dll
 0002:00000410       __imp_fabs                 0000000180051410     ucrtd:ucrtbased.dll
 0002:00000418       __imp_strcmp               0000000180051418     ucrtd:ucrtbased.dll
 0002:00000420       __imp_strcat_s             0000000180051420     ucrtd:ucrtbased.dll
 0002:00000428       \177ucrtbased_NULL_THUNK_DATA 0000000180051428     ucrtd:ucrtbased.dll
 0002:00000430       __guard_check_icall_fptr   0000000180051430     MSVCRTD:guard_support.obj
 0002:00000438       __guard_xfg_check_icall_fptr 0000000180051438     MSVCRTD:guard_support.obj
 0002:00000440       __guard_dispatch_icall_fptr 0000000180051440     MSVCRTD:guard_support.obj
 0002:00000448       __guard_xfg_dispatch_icall_fptr 0000000180051448     MSVCRTD:guard_support.obj
 0002:00000450       __guard_xfg_table_dispatch_icall_fptr 0000000180051450     MSVCRTD:guard_support.obj
 0002:00000458       __xc_a                     0000000180051458     MSVCRTD:initializers.obj
 0002:00000650       __xc_z                     0000000180051650     MSVCRTD:initializers.obj
 0002:00000658       __xi_a                     0000000180051658     MSVCRTD:initializers.obj
 0002:00000660       __xi_z                     0000000180051660     MSVCRTD:initializers.obj
 0002:00000668       __xp_a                     0000000180051668     MSVCRTD:initializers.obj
 0002:00000670       __xp_z                     0000000180051670     MSVCRTD:initializers.obj
 0002:00000678       __xt_a                     0000000180051678     MSVCRTD:initializers.obj
 0002:00000680       __xt_z                     0000000180051680     MSVCRTD:initializers.obj
 0002:00000690       ??_7PxFoundation@physx@@6B@ 0000000180051690     Adjacencies.obj
 0002:000006d0       ??_C@_0DC@DMHHONHL@Adjacencies?3?3GetBoundaryVertice@ 00000001800516d0     Adjacencies.obj
 0002:00000710       ??_C@_0GC@ONFFLBDK@C?3?2Users?2codec?2OneDrive?2?$LJ?Y?E?A?5?H?$KN@ 0000000180051710     Adjacencies.obj
 0002:00000778       ??_C@_0CK@KKNAOLHI@Adjacencies?3?3MakeLastRef?3?5NULL?5@ 0000000180051778     Adjacencies.obj
 0002:000007a8       ??_C@_0DA@FMEHLBKI@Adjacencies?3?3UpdateLink?3?5invali@ 00000001800517a8     Adjacencies.obj
 0002:000007e0       ??_C@_0EA@CPHOACLK@Adjacencies?3?3CreateDatabase?3?5ca@ 00000001800517e0     Adjacencies.obj
 0002:00000820       ??_C@_0BE@LIEIDFLP@NbEdges?$DN?$DNmNbFaces?$CK3@ 0000000180051820     Adjacencies.obj
 0002:00000840       ??_C@_0JH@OAGDEHEP@?$CIGu?3?3EdgeTriangleAC?3?3HasActiveE@ 0000000180051840     Adjacencies.obj
 0002:000008e0       ??_C@_0JH@GOIKPHAD@?$CIGu?3?3EdgeTriangleAC?3?3HasActiveE@ 00000001800518e0     Adjacencies.obj
 0002:00000980       ??_C@_0JH@OMLLOEFP@?$CIGu?3?3EdgeTriangleAC?3?3HasActiveE@ 0000000180051980     Adjacencies.obj
 0002:00000a18       ??_C@_0BM@OIFKLHDN@?$DMallocation?5names?5disabled?$DO@ 0000000180051a18     Adjacencies.obj
 0002:00000a34       __real@3dcccccd            0000000180051a34     Adjacencies.obj
 0002:00000a40       ?g_PXSinCoefficients0@aos@shdfnd@physx@@3UPX_VECTORF32@123@B 0000000180051a40     Cooking.obj
 0002:00000a50       ?g_PXSinCoefficients1@aos@shdfnd@physx@@3UPX_VECTORF32@123@B 0000000180051a50     Cooking.obj
 0002:00000a60       ?g_PXSinCoefficients2@aos@shdfnd@physx@@3UPX_VECTORF32@123@B 0000000180051a60     Cooking.obj
 0002:00000a70       ?g_PXCosCoefficients0@aos@shdfnd@physx@@3UPX_VECTORF32@123@B 0000000180051a70     Cooking.obj
 0002:00000a80       ?g_PXCosCoefficients1@aos@shdfnd@physx@@3UPX_VECTORF32@123@B 0000000180051a80     Cooking.obj
 0002:00000a90       ?g_PXCosCoefficients2@aos@shdfnd@physx@@3UPX_VECTORF32@123@B 0000000180051a90     Cooking.obj
 0002:00000aa0       ?g_PXTanCoefficients0@aos@shdfnd@physx@@3UPX_VECTORF32@123@B 0000000180051aa0     Cooking.obj
 0002:00000ab0       ?g_PXTanCoefficients1@aos@shdfnd@physx@@3UPX_VECTORF32@123@B 0000000180051ab0     Cooking.obj
 0002:00000ac0       ?g_PXTanCoefficients2@aos@shdfnd@physx@@3UPX_VECTORF32@123@B 0000000180051ac0     Cooking.obj
 0002:00000ad0       ?g_PXASinCoefficients0@aos@shdfnd@physx@@3UPX_VECTORF32@123@B 0000000180051ad0     Cooking.obj
 0002:00000ae0       ?g_PXASinCoefficients1@aos@shdfnd@physx@@3UPX_VECTORF32@123@B 0000000180051ae0     Cooking.obj
 0002:00000af0       ?g_PXASinCoefficients2@aos@shdfnd@physx@@3UPX_VECTORF32@123@B 0000000180051af0     Cooking.obj
 0002:00000b00       ?g_PXATanCoefficients0@aos@shdfnd@physx@@3UPX_VECTORF32@123@B 0000000180051b00     Cooking.obj
 0002:00000b10       ?g_PXATanCoefficients1@aos@shdfnd@physx@@3UPX_VECTORF32@123@B 0000000180051b10     Cooking.obj
 0002:00000b20       ?g_PXATanCoefficients2@aos@shdfnd@physx@@3UPX_VECTORF32@123@B 0000000180051b20     Cooking.obj
 0002:00000b30       ?g_PXSinEstCoefficients@aos@shdfnd@physx@@3UPX_VECTORF32@123@B 0000000180051b30     Cooking.obj
 0002:00000b40       ?g_PXCosEstCoefficients@aos@shdfnd@physx@@3UPX_VECTORF32@123@B 0000000180051b40     Cooking.obj
 0002:00000b50       ?g_PXTanEstCoefficients@aos@shdfnd@physx@@3UPX_VECTORF32@123@B 0000000180051b50     Cooking.obj
 0002:00000b60       ?g_PXATanEstCoefficients@aos@shdfnd@physx@@3UPX_VECTORF32@123@B 0000000180051b60     Cooking.obj
 0002:00000b70       ?g_PXASinEstCoefficients@aos@shdfnd@physx@@3UPX_VECTORF32@123@B 0000000180051b70     Cooking.obj
 0002:00000b80       ?g_PXASinEstConstants@aos@shdfnd@physx@@3UPX_VECTORF32@123@B 0000000180051b80     Cooking.obj
 0002:00000b90       ?g_PXPiConstants0@aos@shdfnd@physx@@3UPX_VECTORF32@123@B 0000000180051b90     Cooking.obj
 0002:00000ba0       ?g_PXReciprocalTwoPi@aos@shdfnd@physx@@3UPX_VECTORF32@123@B 0000000180051ba0     Cooking.obj
 0002:00000bb0       ?g_PXTwoPi@aos@shdfnd@physx@@3UPX_VECTORF32@123@B 0000000180051bb0     Cooking.obj
 0002:00000be0       ?sBufferSize@DebugText@Cm@physx@@2HB 0000000180051be0     Cooking.obj
 0002:00000be4       ??_C@_06EJKDJEDO@PxBase@   0000000180051be4     Cooking.obj
 0002:00000bf0       ??_C@_0N@CDGINLLF@PxConvexMesh@ 0000000180051bf0     Cooking.obj
 0002:00000c00       ??_C@_0O@PBAKPCEC@PxHeightField@ 0000000180051c00     Cooking.obj
 0002:00000c10       ??_7PxBase@physx@@6B@      0000000180051c10     Cooking.obj
 0002:00000c38       ??_7PxConvexMesh@physx@@6B@ 0000000180051c38     Cooking.obj
 0002:00000cb0       ??_7PxCooking@physx@@6B@   0000000180051cb0     Cooking.obj
 0002:00000d30       ??_7Cooking@physx@@6B@     0000000180051d30     Cooking.obj
 0002:00000db0       ??_7PxHeightField@physx@@6B@ 0000000180051db0     Cooking.obj
 0002:00000e50       ??_C@_0GC@FAAIJCMM@C?3?2Users?2codec?2OneDrive?2?$LJ?Y?E?A?5?H?$KN@ 0000000180051e50     Cooking.obj
 0002:00000eb8       ??_C@_0BL@KDIAIEJL@isValidVertex?$CIvertexIndex?$CJ@ 0000000180051eb8     Cooking.obj
 0002:00000ee0       ??_C@_0FC@PJIHAFK@Cooking?3?3validateTriangleMesh?3?5@ 0000000180051ee0     Cooking.obj
 0002:00000f40       ??_C@_0FO@PKIJBFMI@C?3?2Users?2codec?2OneDrive?2?$LJ?Y?E?A?5?H?$KN@ 0000000180051f40     Cooking.obj
 0002:00000fa0       ??_C@_0EK@EKAIJEBL@Cooking?3?3cookConvexMesh?3?5user?9p@ 0000000180051fa0     Cooking.obj
 0002:00000ff0       ??_C@_0FA@GFFGAPML@Cooking?3?3cookConvexMesh?3?5provid@ 0000000180051ff0     Cooking.obj
 0002:00001040       ??_C@_0EP@PKDCPNNO@Cooking?3?3cookConvexMesh?3?5provid@ 0000000180052040     Cooking.obj
 0002:00001090       ??_C@_07MFHICPHG@hullLib@  0000000180052090     Cooking.obj
 0002:000010a0       ??_C@_0EO@LKFMMDE@Cooking?3?3cookConvexMesh?3?5user?9p@ 00000001800520a0     Cooking.obj
 0002:000010f0       ??_C@_0EN@FCEPCAFC@Cooking?3?3createHeightField?3?5use@ 00000001800520f0     Cooking.obj
 0002:00001140       ??_C@_0EM@MHLLDEBI@static_cast?$DMPs?3?3Foundation?$CK?$DO?$CI?$CGf@ 0000000180052140     Cooking.obj
 0002:00001190       ??_C@_0FO@PBOBHBKF@C?3?2Users?2codec?2OneDrive?2?$LJ?Y?E?A?5?H?$KN@ 0000000180052190     Cooking.obj
 0002:000011f0       ??_C@_0CP@CPGGIPKL@?$CI?$CBcapacity?$CJ?5?$HM?$HM?5?$CInewData?5?$CG?$CG?5?$CInew@ 00000001800521f0     Cooking.obj
 0002:00001220       ??_C@_0BC@GKLGGHPD@size?5?$DM?$DN?5mCapacity@ 0000000180052220     Cooking.obj
 0002:00001238       ??_C@_0BM@BMFMDKFG@this?9?$DOcapacity?$CI?$CJ?5?$DM?5capacity@ 0000000180052238     Cooking.obj
 0002:00001254       __real@00000000            0000000180052254     Cooking.obj
 0002:00001258       __real@3a83126f            0000000180052258     Cooking.obj
 0002:0000125c       __real@3f800000            000000018005225c     Cooking.obj
 0002:00001260       __real@ba83126f            0000000180052260     Cooking.obj
 0002:00001264       __real@bf800000            0000000180052264     Cooking.obj
 0002:00001270       ??_C@_0GD@BKINAHKD@C?3?2Users?2codec?2OneDrive?2?$LJ?Y?E?A?5?H?$KN@ 0000000180052270     CookingUtils.obj
 0002:000012d4       ??_C@_06KDGGGLIJ@PxVec3@   00000001800522d4     CookingUtils.obj
 0002:000012e0       ??_C@_08MOINBLFP@EdgeData@ 00000001800522e0     EdgeList.obj
 0002:000012f0       ??_C@_0FP@NBOPCJHE@C?3?2Users?2codec?2OneDrive?2?$LJ?Y?E?A?5?H?$KN@ 00000001800522f0     EdgeList.obj
 0002:00001350       ??_C@_0BB@OMGANHJB@EdgeTriangleData@ 0000000180052350     EdgeList.obj
 0002:00001368       ??_C@_0N@HMDODPCO@EdgeDescData@ 0000000180052368     EdgeList.obj
 0002:00001378       ??_C@_0BG@GLJDPFLF@EdgeList?5FacesByEdges@ 0000000180052378     EdgeList.obj
 0002:00001390       ??_C@_0CO@GBNJFPN@EdgeList?3?3CreateFacesToEdges?3?5N@ 0000000180052390     EdgeList.obj
 0002:000013c0       ??_C@_0BN@EPPJDECF@EdgeListBuilder?5FacesByEdges@ 00000001800523c0     EdgeList.obj
 0002:000013e0       ??_C@_0CO@EHJBBMNK@EdgeList?3?3ComputeActiveEdges?3?5N@ 00000001800523e0     EdgeList.obj
 0002:00001410       ??_C@_0DI@GBHLFOFP@ActiveEdges?3?3ComputeConvexEdges@ 0000000180052410     EdgeList.obj
 0002:00001448       ??_C@_0DM@JOGBLHDI@ActiveEdges?3?3ComputeConvexEdges@ 0000000180052448     EdgeList.obj
 0002:00001490       ??_C@_0ED@FEMJKPEL@ActiveEdges?3?3ComputeConvexEdges@ 0000000180052490     EdgeList.obj
 0002:000014e0       ??_C@_0EB@BFDPMFCD@ActiveEdges?3?3ComputeConvexEdges@ 00000001800524e0     EdgeList.obj
 0002:00001524       ??_C@_04DDKJGDCM@bool@     0000000180052524     EdgeList.obj
 0002:0000152c       ??_C@_06FCDOAHIN@wfaces@   000000018005252c     EdgeList.obj
 0002:00001538       ??_C@_0BB@KCPJALAK@dfaces?5?$HM?$HM?5wfaces@ 0000000180052538     EdgeList.obj
 0002:0000154c       ??_C@_04CJNNGFMA@j?$DN?$DN2@ 000000018005254c     EdgeList.obj
 0002:00001554       __real@bf7fbe77            0000000180052554     EdgeList.obj
 0002:00001560       __xmm@80000000800000008000000080000000 0000000180052560     EdgeList.obj
 0002:00001570       ??_C@_0M@GOCDBJNH@MeshCleaner@ 0000000180052570     MeshCleaner.obj
 0002:00001580       ??_C@_0GC@MIAOJMGO@C?3?2Users?2codec?2OneDrive?2?$LJ?Y?E?A?5?H?$KN@ 0000000180052580     MeshCleaner.obj
 0002:000015e8       ??_C@_0L@FKHAJINL@cleanVerts@ 00000001800525e8     MeshCleaner.obj
 0002:000015f8       ??_C@_09PEPOFECJ@hashTable@ 00000001800525f8     MeshCleaner.obj
 0002:00001608       ??_C@_0BB@EKDFPEDB@nbCleanedTris?$DM?$DNi@ 0000000180052608     MeshCleaner.obj
 0002:0000161c       __real@3f000000            000000018005261c     MeshCleaner.obj
 0002:00001620       ??_7Quantizer@physx@@6B@   0000000180052620     Quantizer.obj
 0002:00001650       ??_C@_1KE@FDNPGPAF@?$AAC?$AA?3?$AA?2?$AAU?$AAs?$AAe?$AAr?$AAs?$AA?2?$AAc?$AAo?$AAd?$AAe?$AAc?$AA?2@ 0000000180052650     Quantizer.obj
 0002:000016f8       ??_C@_1BG@NCGFCOOL@?$AAi?$AAn?$AAd?$AAe?$AAx?$AA?5?$AA?$DM?$AA?$DN?$AA?5?$AA2@ 00000001800526f8     Quantizer.obj
 0002:00001710       ??_C@_1KK@POHOLPM@?$AAC?$AA?3?$AA?2?$AAU?$AAs?$AAe?$AAr?$AAs?$AA?2?$AAc?$AAo?$AAd?$AAe?$AAc?$AA?2@ 0000000180052710     Quantizer.obj
 0002:000017c0       ??_C@_1BE@OMKIDIPD@?$AAi?$AAs?$AAV?$AAa?$AAl?$AAi?$AAd?$AA?$CI?$AA?$CJ@ 00000001800527c0     Quantizer.obj
 0002:000017d8       ??_7QuantizerImpl@@6B@     00000001800527d8     Quantizer.obj
 0002:00001800       ??_C@_0GA@JOFECPOO@C?3?2Users?2codec?2OneDrive?2?$LJ?Y?E?A?5?H?$KN@ 0000000180052800     Quantizer.obj
 0002:00001860       ??_C@_05LMJPANIN@PxU32@    0000000180052860     Quantizer.obj
 0002:00001868       ??_C@_09GCLCCGEM@i?5?$DM?5mSize@ 0000000180052868     Quantizer.obj
 0002:00001878       ??_C@_0BD@IDLOIMGI@index?5?$DM?5inputCount@ 0000000180052878     Quantizer.obj
 0002:0000188c       __real@38d1b717            000000018005288c     Quantizer.obj
 0002:00001890       __real@3c23d70a            0000000180052890     Quantizer.obj
 0002:00001894       __real@3f8020c5            0000000180052894     Quantizer.obj
 0002:00001898       __real@7e7fffff            0000000180052898     Quantizer.obj
 0002:0000189c       __real@7f7fffff            000000018005289c     Quantizer.obj
 0002:000018a0       __real@fe7fffff            00000001800528a0     Quantizer.obj
 0002:000018d0       ??_C@_0HB@BCGKNMNP@C?3?2Users?2codec?2OneDrive?2?$LJ?Y?E?A?5?H?$KN@ 00000001800528d0     BVHStructureBuilder.obj
 0002:00001948       ??_C@_0BG@JKJBBGNK@isAligned16?$CI?$CIvoid?$CK?$CJf?$CJ@ 0000000180052948     BVHStructureBuilder.obj
 0002:00001960       ??_C@_0GK@KFLIOIED@C?3?2Users?2codec?2OneDrive?2?$LJ?Y?E?A?5?H?$KN@ 0000000180052960     BVHStructureBuilder.obj
 0002:000019d0       ??_C@_0M@EIOGEGJH@nbPrims?$DM?$DN16@ 00000001800529d0     BVHStructureBuilder.obj
 0002:000019e0       ??_C@_0N@LFHPCCPM@pool?$FLi?$FN?4mPos@ 00000001800529e0     BVHStructureBuilder.obj
 0002:000019f0       ??_C@_0P@BDBEGIPP@desc?4isValid?$CI?$CJ@ 00000001800529f0     BVHStructureBuilder.obj
 0002:00001a00       ??_C@_09JDCJAPKD@PxBounds3@ 0000000180052a00     BVHStructureBuilder.obj
 0002:00001a10       ??_C@_0M@JIJLJDLI@buildStatus@ 0000000180052a10     BVHStructureBuilder.obj
 0002:00001a20       ??_C@_0BA@KPLGFFHA@AABB?5tree?5nodes@ 0000000180052a20     BVHStructureBuilder.obj
 0002:00001a30       ??_C@_0CH@HHDIGKLP@mNumNodes?$DN?$DNnodeAllocator?4mTotal@ 0000000180052a30     BVHStructureBuilder.obj
 0002:00001a58       __real@3ba3d70a            0000000180052a58     BVHStructureBuilder.obj
 0002:00001b00       ?reductionFactors@SubSortQuick@physx@@2QBMB 0000000180052b00     RTreeCooking.obj
 0002:00001b10       ?stopAtTrisPerLeaf1@SubSortQuick@physx@@2QBIB 0000000180052b10     RTreeCooking.obj
 0002:00001b38       ??_C@_1DG@HINPBGLP@?$AAi?$AAs?$AAV?$AAa?$AAl?$AAi?$AAd?$AA?$CI?$AA?$CJ?$AA?5?$AA?$CG?$AA?$CG?$AA?5?$AAb?$AAo@ 0000000180052b38     RTreeCooking.obj
 0002:00001b70       ??_C@_0BA@DLCJDKDM@NonTrackedAlloc@ 0000000180052b70     RTreeCooking.obj
 0002:00001b80       ??_C@_0BB@OMCPGIOD@isValidFloatV?$CIa?$CJ@ 0000000180052b80     RTreeCooking.obj
 0002:00001b98       ??_C@_0BH@MCAIKHPH@isAligned16?$CI?$CIvoid?$CK?$CJ?$CGf?$CJ@ 0000000180052b98     RTreeCooking.obj
 0002:00001bb0       ??_C@_0BB@OJGAHOGG@isValidFloatV?$CIf?$CJ@ 0000000180052bb0     RTreeCooking.obj
 0002:00001bc8       ??_C@_0BA@EMELBPPG@isValidVec3V?$CIa?$CJ@ 0000000180052bc8     RTreeCooking.obj
 0002:00001bd8       ??_C@_0BA@EOANKBKP@isValidVec3V?$CIb?$CJ@ 0000000180052bd8     RTreeCooking.obj
 0002:00001bf0       ??_C@_0GI@BJGKENOJ@C?3?2Users?2codec?2OneDrive?2?$LJ?Y?E?A?5?H?$KN@ 0000000180052bf0     RTreeCooking.obj
 0002:00001c58       ??_C@_0DP@MOLEKNBA@Input?5mesh?5triangle?8s?5vertex?5in@ 0000000180052c58     RTreeCooking.obj
 0002:00001c98       ??_C@_0CE@OPCEFGPD@permute?5?$CL?5clusterSize?5?$DM?$DN?5permut@ 0000000180052c98     RTreeCooking.obj
 0002:00001cc0       ??_C@_0CC@IFBCLGG@maxBoundsPerLeafPage?5?$DO?$DN?5RTREE_N@ 0000000180052cc0     RTreeCooking.obj
 0002:00001ce8       ??_C@_0BA@DLODHOME@clusterSize?5?$DO?50@ 0000000180052ce8     RTreeCooking.obj
 0002:00001cf8       ??_C@_0CB@HNMOHOIM@permute?$FL0?$FN?5?$DM?5boundCenters?4size?$CI@ 0000000180052cf8     RTreeCooking.obj
 0002:00001d20       ??_C@_0CB@BHHEMBKC@permute?$FLi?$FN?5?$DM?5boundCenters?4size?$CI@ 0000000180052d20     RTreeCooking.obj
 0002:00001d48       ??_C@_0DE@FNPGHHHI@leftover?5?$DN?$DN?50?5?$HM?$HM?5cluster4?$CKi?5?$CL?5c@ 0000000180052d48     RTreeCooking.obj
 0002:00001d80       ??_C@_07ELGPMHDP@metricL@  0000000180052d80     RTreeCooking.obj
 0002:00001d88       ??_C@_07JPCOPIOA@metricR@  0000000180052d88     RTreeCooking.obj
 0002:00001d90       ??_C@_0M@OKCMHFAG@tempPermute@ 0000000180052d90     RTreeCooking.obj
 0002:00001da0       ??_C@_09CMNIGKAE@tempRanks@ 0000000180052da0     RTreeCooking.obj
 0002:00001db0       ??_C@_0CP@DKNKGHIK@splitEndL?9splitStartL?5?$DN?$DN?5splitS@ 0000000180052db0     RTreeCooking.obj
 0002:00001de0       ??_C@_0BJ@DBNEPNIE@splitStartL?5?$DM?$DN?5splitEndL@ 0000000180052de0     RTreeCooking.obj
 0002:00001e00       ??_C@_0BJ@CMNIPACK@splitStartR?5?$DO?$DN?5splitEndR@ 0000000180052e00     RTreeCooking.obj
 0002:00001e20       ??_C@_0P@FDBOEJDH@splitEndR?5?$DO?$DN?51@ 0000000180052e20     RTreeCooking.obj
 0002:00001e30       ??_C@_0BP@OBBGEEJF@splitEndL?5?$DM?5PxI32?$CIclusterSize?$CJ@ 0000000180052e30     RTreeCooking.obj
 0002:00001e50       ??_C@_0EE@HMDFAMJJ@?$CIcountL0?5?$DN?$DN?5countR0?$CJ?5?$CG?$CG?5?$CIcountL@ 0000000180052e50     RTreeCooking.obj
 0002:00001e98       ??_C@_0CG@HKJJBOBJ@PxU32?$CIcountL?5?$CL?5countR?$CJ?5?$DN?$DN?5clust@ 0000000180052e98     RTreeCooking.obj
 0002:00001ec0       ??_C@_0BB@BLBBKHCG@split?4count?5?$DO?$DN?51@ 0000000180052ec0     RTreeCooking.obj
 0002:00001ed8       ??_C@_0BH@CPBDCMGA@maxSplit?5?$CB?$DN?50xFFFFffff@ 0000000180052ed8     RTreeCooking.obj
 0002:00001ef0       ??_C@_0O@KGFPNKLN@old?4count?5?$DO?51@ 0000000180052ef0     RTreeCooking.obj
 0002:00001f00       ??_C@_0BA@MHFPJACL@splitLocal?5?$DO?$DN?51@ 0000000180052f00     RTreeCooking.obj
 0002:00001f10       ??_C@_0BK@HBDDGBBB@old?4count?9splitLocal?5?$DO?$DN?51@ 0000000180052f10     RTreeCooking.obj
 0002:00001f30       ??_C@_0BJ@CFFGDPAB@splits?4size?$CI?$CJ?5?$DN?$DN?5RTREE_N@ 0000000180052f30     RTreeCooking.obj
 0002:00001f50       ??_C@_0BD@CJCBODNJ@sum?5?$DN?$DN?5clusterSize@ 0000000180052f50     RTreeCooking.obj
 0002:00001f68       ??_C@_0CB@OOGGJCCO@splitStarts?$FLj?91?$FN?$DM?$DNsplitStarts?$FLj@ 0000000180052f68     RTreeCooking.obj
 0002:00001f90       ??_C@_0CM@MIFOAGPK@splitCounts?$FLj?$FN?5?$DO?50?5?$HM?$HM?5clusterSi@ 0000000180052f90     RTreeCooking.obj
 0002:00001fc0       ??_C@_0DC@FKLAKLHP@splitStarts?$FLj?91?$FN?$CLsplitCounts?$FLj?9@ 0000000180052fc0     RTreeCooking.obj
 0002:00001ff8       ??_C@_0BJ@KOIGDPK@sumCounts?5?$DN?$DN?5clusterSize@ 0000000180052ff8     RTreeCooking.obj
 0002:00002018       ??_C@_0DL@DKLKFAKJ@splitStarts?$FLRTREE_N?91?$FN?$CLsplitCou@ 0000000180053018     RTreeCooking.obj
 0002:00002058       ??_C@_0BB@EAGMBNDP@splitCount?5?$DM?$DN?516@ 0000000180053058     RTreeCooking.obj
 0002:00002070       ??_C@_0BA@FINHNEIC@splitCount?5?$DN?$DN?50@ 0000000180053070     RTreeCooking.obj
 0002:00002080       ??_C@_0DA@DMMOJMPK@hint?5?$DN?$DN?5PxMeshCookingHint?3?3eCOO@ 0000000180053080     RTreeCooking.obj
 0002:000020b0       ??_C@_0BP@JDMAEMGC@permute?$FLnumBounds?$FN?5?$DN?$DN?5sentinel@ 00000001800530b0     RTreeCooking.obj
 0002:000020d0       ??_C@_0BB@FMHDLFFI@?$CIq?4ptr?5?$CG?51?$CJ?5?$DN?$DN?50@ 00000001800530d0     RTreeCooking.obj
 0002:000020e8       ??_C@_0L@DLMKKOLK@q?4isLeaf?$CI?$CJ@ 00000001800530e8     RTreeCooking.obj
 0002:000020f8       ??_C@_0DJ@FPPKJOAC@child?4leafCount?5?$DN?$DN?5?91?5?$HM?$HM?5child?4@ 00000001800530f8     RTreeCooking.obj
 0002:00002138       ??_C@_0BF@NIPNCMBP@q?4ptr?5?$CF?5RTREE_N?5?$DN?$DN?50@ 0000000180053138     RTreeCooking.obj
 0002:00002150       ??_C@_0CB@PPFJJKOM@qtreeNodes?4size?$CI?$CJ?5?$CF?5RTREE_N?5?$DN?$DN?5@ 0000000180053150     RTreeCooking.obj
 0002:00002178       ??_C@_0CD@GGMNBOAH@result?4mTotalNodes?5?$CF?5pageSize?5?$DN@ 0000000180053178     RTreeCooking.obj
 0002:0000219c       ??_C@_05ICCGDNCO@mSize@    000000018005319c     RTreeCooking.obj
 0002:000021b0       ??_C@_0GF@CNNFEGAM@C?3?2Users?2codec?2OneDrive?2?$LJ?Y?E?A?5?H?$KN@ 00000001800531b0     RTreeCooking.obj
 0002:00002218       ??_C@_0BC@IFJJKIC@k?5?$DM?$DN?5right?9left?$CL1@ 0000000180053218     RTreeCooking.obj
 0002:00002230       ??_C@_0BC@KALADCPB@pivotNewIndex?5?$DO?50@ 0000000180053230     RTreeCooking.obj
 0002:00002248       ??_C@_0CK@HLNPMLG@pivotIndex?5?$DO?$DN?5left?5?$CG?$CG?5pivotInde@ 0000000180053248     RTreeCooking.obj
 0002:00002278       ??_C@_0BN@MBNGPAEL@cmpLtEq?$CIa?$FLi?$FN?0?5a?$FLstoreIndex?$FN?$CJ@ 0000000180053278     RTreeCooking.obj
 0002:00002298       ??_C@_0BN@PDFALILH@cmpLtEq?$CIa?$FLstoreIndex?$FN?0?5a?$FLi?$FN?$CJ@ 0000000180053298     RTreeCooking.obj
 0002:000022c0       ??_C@_0FN@JBOEOFAC@C?3?2Users?2codec?2OneDrive?2?$LJ?Y?E?A?5?H?$KN@ 00000001800532c0     RTreeCooking.obj
 0002:00002320       ??_C@_0CE@KHOCKGAK@first?5?$DO?$DN?50?5?$CG?$CG?5last?5?$DM?5int32_t?$CIco@ 0000000180053320     RTreeCooking.obj
 0002:00002348       ??_C@_0CH@IDCBKFGC@?$CBcompare?$CIelements?$FLi?$FN?0?5elements?$FL@ 0000000180053348     RTreeCooking.obj
 0002:00002370       ??_C@_0GG@NFNBIIHN@C?3?2Users?2codec?2OneDrive?2?$LJ?Y?E?A?5?H?$KN@ 0000000180053370     RTreeCooking.obj
 0002:000023d8       ??_C@_08JNEJNCCA@?$CBempty?$CI?$CJ@ 00000001800533d8     RTreeCooking.obj
 0002:000023e8       ??_C@_0BI@CKODGONH@i?5?$DM?$DN?5last?5?$CG?$CG?5j?5?$DO?$DN?5first@ 00000001800533e8     RTreeCooking.obj
 0002:00002400       ??_C@_0CB@GKHFJDAL@i?5?$DM?$DN?5last?5?$CG?$CG?5first?5?$DM?$DN?5?$CIlast?5?9?51@ 0000000180053400     RTreeCooking.obj
 0002:00002424       __real@3a03126f            0000000180053424     RTreeCooking.obj
 0002:00002428       __real@41100000            0000000180053428     RTreeCooking.obj
 0002:0000242c       __real@41700000            000000018005342c     RTreeCooking.obj
 0002:00002430       __real@42200000            0000000180053430     RTreeCooking.obj
 0002:00002434       __real@477fff00            0000000180053434     RTreeCooking.obj
 0002:00002438       __real@ff7fffff            0000000180053438     RTreeCooking.obj
 0002:00002460       __real@40000000            0000000180053460     MeshBuilder.obj
 0002:00002464       __real@c1b00000            0000000180053464     MeshBuilder.obj
 0002:00002490       ??_C@_0FO@IMPGFLKA@C?3?2Users?2codec?2OneDrive?2?$LJ?Y?E?A?5?H?$KN@ 0000000180053490     TriangleMeshBuilder.obj
 0002:000024f0       ??_C@_0P@JLLGKKGO@nb?$DO0?5?$CG?$CG?5nb?$DM?$DN16@ 00000001800534f0     TriangleMeshBuilder.obj
 0002:00002500       ??_C@_0BA@IGNEICFC@index?5?$DM?5?$CI1?$DM?$DM27?$CJ@ 0000000180053500     TriangleMeshBuilder.obj
 0002:00002510       ??_7MeshDataBase@Gu@physx@@6B@ 0000000180053510     TriangleMeshBuilder.obj
 0002:00002520       ??_C@_0GB@MMBBLMPC@C?3?2Users?2codec?2OneDrive?2?$LJ?Y?E?A?5?H?$KN@ 0000000180053520     TriangleMeshBuilder.obj
 0002:00002588       ??_C@_0L@HCMLOHBN@?$CBmVertices@ 0000000180053588     TriangleMeshBuilder.obj
 0002:00002598       ??_7TriangleMeshData@Gu@physx@@6B@ 0000000180053598     TriangleMeshBuilder.obj
 0002:000025a0       ??_C@_0N@MGGDNHNI@mNbTriangles@ 00000001800535a0     TriangleMeshBuilder.obj
 0002:000025b0       ??_C@_0M@OGEDMEAL@mNbVertices@ 00000001800535b0     TriangleMeshBuilder.obj
 0002:000025c0       ??_C@_0M@DCCDOKKK@?$CBmTriangles@ 00000001800535c0     TriangleMeshBuilder.obj
 0002:000025d0       ??_C@_0L@KBOFAKLO@mTriangles@ 00000001800535d0     TriangleMeshBuilder.obj
 0002:000025e0       ??_C@_0BA@OCOIGPII@mGRB_triIndices@ 00000001800535e0     TriangleMeshBuilder.obj
 0002:000025f0       ??_C@_0BC@JJFONCPB@?$CBmMaterialIndices@ 00000001800535f0     TriangleMeshBuilder.obj
 0002:00002608       ??_C@_0N@BIOECAPM@mAdjacencies@ 0000000180053608     TriangleMeshBuilder.obj
 0002:00002618       ??_7RTreeTriangleData@Gu@physx@@6B@ 0000000180053618     TriangleMeshBuilder.obj
 0002:00002620       ??_7BV4TriangleData@Gu@physx@@6B@ 0000000180053620     TriangleMeshBuilder.obj
 0002:00002628       ??_7RemapCallback@RTreeCooker@physx@@6B@ 0000000180053628     TriangleMeshBuilder.obj
 0002:00002638       ??_7TriangleMeshBuilder@physx@@6B@ 0000000180053638     TriangleMeshBuilder.obj
 0002:00002660       ??_7RTreeTriangleMeshBuilder@physx@@6B@ 0000000180053660     TriangleMeshBuilder.obj
 0002:00002688       ??_7BV4TriangleMeshBuilder@physx@@6B@ 0000000180053688     TriangleMeshBuilder.obj
 0002:000026b0       ??_C@_0GC@OMBOEDIC@C?3?2Users?2codec?2OneDrive?2?$LJ?Y?E?A?5?H?$KN@ 00000001800536b0     TriangleMeshBuilder.obj
 0002:00002718       ??_C@_0BA@DPPPOJBK@value?5?$DM?$DN?50xffff@ 0000000180053718     TriangleMeshBuilder.obj
 0002:00002728       ??_C@_09BADCAJNG@?$CBmismatch@ 0000000180053728     TriangleMeshBuilder.obj
 0002:00002738       ??_C@_0M@OJJHBOGG@edgeLookups@ 0000000180053738     TriangleMeshBuilder.obj
 0002:00002750       ??_C@_0HA@MKPFAEPC@C?3?2Users?2codec?2OneDrive?2?$LJ?Y?E?A?5?H?$KN@ 0000000180053750     TriangleMeshBuilder.obj
 0002:000027c0       ??_C@_0BF@CCKBOJFO@Gu?3?3TriangleT?$DMPxU32?$DO@ 00000001800537c0     TriangleMeshBuilder.obj
 0002:000027e0       ??_C@_0GP@HACACJOM@C?3?2Users?2codec?2OneDrive?2?$LJ?Y?E?A?5?H?$KN@ 00000001800537e0     TriangleMeshBuilder.obj
 0002:00002850       ??_C@_0BN@CIBFOBD@mMeshData?4mFaceRemap?5?$DN?$DN?5NULL@ 0000000180053850     TriangleMeshBuilder.obj
 0002:00002870       ??_C@_0DJ@IGODLHLP@TriangleMesh?3?5Enable?5mesh?5weldi@ 0000000180053870     TriangleMeshBuilder.obj
 0002:000028b0       ??_C@_0DK@FCJMKOOB@?$CB?$CImMeshData?4mFlags?5?$CG?5PxTriangle@ 00000001800538b0     TriangleMeshBuilder.obj
 0002:000028f0       ??_C@_0CN@PJHOIFC@vref0?$CB?$DNvref1?5?$CG?$CG?5vref0?$CB?$DNvref2?5?$CG?$CG@ 00000001800538f0     TriangleMeshBuilder.obj
 0002:00002920       ??_C@_0FJ@HHJLKGDF@TriangleMesh?3?5triangles?5are?5too@ 0000000180053920     TriangleMeshBuilder.obj
 0002:00002980       ??_C@_0CB@EMMCJFHN@mMeshData?4mExtraTrigData?5?$DN?$DN?5NUL@ 0000000180053980     TriangleMeshBuilder.obj
 0002:000029a8       ??_C@_0BP@CKKNCBK@mMeshData?4mAdjacencies?5?$DN?$DN?5NULL@ 00000001800539a8     TriangleMeshBuilder.obj
 0002:000029c8       ??_C@_0CN@KGPHHHLK@TriangleMesh?3?5mesh?5is?5too?5big?5f@ 00000001800539c8     TriangleMeshBuilder.obj
 0002:000029f8       ??_C@_0CP@JJMFODMC@edgeList?9?$DOgetNbFaces?$CI?$CJ?$DN?$DNmMeshDa@ 00000001800539f8     TriangleMeshBuilder.obj
 0002:00002a30       ??_C@_0MN@KDBIPDPP@?$CIGu?3?3EdgeTriangleAC?3?3HasActiveE@ 0000000180053a30     TriangleMeshBuilder.obj
 0002:00002b00       ??_C@_0MN@OEBKAMJJ@?$CIGu?3?3EdgeTriangleAC?3?3HasActiveE@ 0000000180053b00     TriangleMeshBuilder.obj
 0002:00002bd0       ??_C@_0MN@BBNOFGBG@?$CIGu?3?3EdgeTriangleAC?3?3HasActiveE@ 0000000180053bd0     TriangleMeshBuilder.obj
 0002:00002ca0       ??_C@_0BL@EFKFMMFJ@mMeshData?4mGRB_primIndices@ 0000000180053ca0     TriangleMeshBuilder.obj
 0002:00002cc0       ??_C@_0BL@DLEDFNFP@tempNormalsPerTri_prealloc@ 0000000180053cc0     TriangleMeshBuilder.obj
 0002:00002ce0       ??_C@_0BD@NDAFHHFF@GRB_triAdjacencies@ 0000000180053ce0     TriangleMeshBuilder.obj
 0002:00002cf8       ??_C@_0BF@LOHPHEEH@mMeshData?4mFaceRemap@ 0000000180053cf8     TriangleMeshBuilder.obj
 0002:00002d10       ??_C@_0BO@FKDPIHHM@index?5?$DM?5originalTriangleCount@ 0000000180053d10     TriangleMeshBuilder.obj
 0002:00002d30       ??_C@_0DD@CMJGDCNN@TriangleMesh?3?3loadFromDesc?3?5des@ 0000000180053d30     TriangleMeshBuilder.obj
 0002:00002d70       ??_C@_0ED@ILJJNHIP@TriangleMesh?3?3loadFromDesc?3?5mPa@ 0000000180053d70     TriangleMeshBuilder.obj
 0002:00002db8       ??_C@_0CK@BJFFGDPK@input?5mesh?5contains?5corrupted?5v@ 0000000180053db8     TriangleMeshBuilder.obj
 0002:00002de8       ??_C@_0BF@DKJOKPOK@materials?$FLi?$FN?$CB?$DN0xffff@ 0000000180053de8     TriangleMeshBuilder.obj
 0002:00002e00       ??_C@_0BJ@BKHDBBHO@cleaning?5the?5mesh?5failed@ 0000000180053e00     TriangleMeshBuilder.obj
 0002:00002e20       ??_C@_0BE@EBMJPKKK@m?4has16BitIndices?$CI?$CJ@ 0000000180053e20     TriangleMeshBuilder.obj
 0002:00002e38       ??_C@_0BK@JIDHMMCE@BV4?5tree?5failed?5to?5build?4@ 0000000180053e38     TriangleMeshBuilder.obj
 0002:00002e58       ??_C@_0DJ@MIBEECJD@?$CB?$CImeshData?4mFlags?5?$CG?5PxTriangleM@ 0000000180053e58     TriangleMeshBuilder.obj
 0002:00002e98       ??_C@_0BL@DHNECNBE@BV32?5tree?5failed?5to?5build?4@ 0000000180053e98     TriangleMeshBuilder.obj
 0002:00002eb8       ??_C@_0BN@IOHKHAPP@bv32Tree?9?$DOmNbPackedNodes?5?$DO?50@ 0000000180053eb8     TriangleMeshBuilder.obj
 0002:00002ed8       ??_7RTreeCookerRemap@physx@@6B@ 0000000180053ed8     TriangleMeshBuilder.obj
 0002:00002ee8       ??_C@_0O@PPMFEIKF@leafCount?5?$DO?50@ 0000000180053ee8     TriangleMeshBuilder.obj
 0002:00002ef8       ??_C@_0BA@ICGDMFLO@leafCount?5?$DM?$DN?516@ 0000000180053ef8     TriangleMeshBuilder.obj
 0002:00002f08       ??_C@_0BA@KGAJLAMO@start?5?$DM?5mNbTris@ 0000000180053f08     TriangleMeshBuilder.obj
 0002:00002f18       ??_C@_0BL@MHKJAFOE@start?$CLleafCount?5?$DM?$DN?5mNbTris@ 0000000180053f18     TriangleMeshBuilder.obj
 0002:00002f34       ??_C@_03BALCFKBP@val@      0000000180053f34     TriangleMeshBuilder.obj
 0002:00002f38       ??_C@_0CP@NNHNDAFC@resultPermute?4size?$CI?$CJ?5?$DN?$DN?5mMeshDa@ 0000000180053f38     TriangleMeshBuilder.obj
 0002:00002f68       __real@3951b717            0000000180053f68     TriangleMeshBuilder.obj
 0002:00002f6c       __real@48742400            0000000180053f6c     TriangleMeshBuilder.obj
 0002:00002f90       ??_C@_0HC@OCLHMJKH@C?3?2Users?2codec?2OneDrive?2?$LJ?Y?E?A?5?H?$KN@ 0000000180053f90     BigConvexDataBuilder.obj
 0002:00003008       ??_C@_0BD@PGLLAGCI@BigConvexData?5data@ 0000000180054008     BigConvexDataBuilder.obj
 0002:00003020       ??_C@_0DB@BBDOGGPJ@mSVM?9?$DOmData?4mValencies?$FLData?$FLj?$FN?$FN@ 0000000180054020     BigConvexDataBuilder.obj
 0002:00003060       ??_C@_0EC@HLPJABEO@mSVM?9?$DOmData?4mNbAdjVerts?5?$DN?$DN?5PxU3@ 0000000180054060     BigConvexDataBuilder.obj
 0002:000030a8       ??_C@_0CA@DDINCBKD@offset?5?$DM?5mSVM?9?$DOmData?4mNbSamples@ 00000001800540a8     BigConvexDataBuilder.obj
 0002:000030c8       ??_C@_0CB@LJJCNLLL@offset2?5?$DM?5mSVM?9?$DOmData?4mNbSample@ 00000001800540c8     BigConvexDataBuilder.obj
 0002:00003110       ??_C@_0O@JELDCDGP@value?5?$DM?$DN?50xff@ 0000000180054110     ConvexHullBuilder.obj
 0002:00003120       ??_C@_0GN@NLFMMNLH@C?3?2Users?2codec?2OneDrive?2?$LJ?Y?E?A?5?H?$KN@ 0000000180054120     ConvexHullBuilder.obj
 0002:00003190       ??_C@_0BD@KIEABJPI@mHull?9?$DOmNbPolygons@ 0000000180054190     ConvexHullBuilder.obj
 0002:000031b0       ??_C@_0GP@OCJOMLIJ@C?3?2Users?2codec?2OneDrive?2?$LJ?Y?E?A?5?H?$KN@ 00000001800541b0     ConvexHullBuilder.obj
 0002:00003220       ??_C@_07OKCKIPNN@indices@  0000000180054220     ConvexHullBuilder.obj
 0002:00003228       ??_C@_05FEEIMKBD@verts@    0000000180054228     ConvexHullBuilder.obj
 0002:00003230       ??_C@_0N@JMCJKPEF@hullPolygons@ 0000000180054230     ConvexHullBuilder.obj
 0002:00003240       ??_C@_07FOEMFOKK@nbVerts@  0000000180054240     ConvexHullBuilder.obj
 0002:00003248       ??_C@_0L@FGGGCOIO@nbPolygons@ 0000000180054248     ConvexHullBuilder.obj
 0002:00003260       ??_C@_0EB@DCEIFDGC@ConvexHullBuilder?3?3init?3?5convex@ 0000000180054260     ConvexHullBuilder.obj
 0002:000032a8       ??_C@_0BE@KOOOMNLC@Gu?3?3HullPolygonData@ 00000001800542a8     ConvexHullBuilder.obj
 0002:000032c0       ??_C@_0M@OKHMOJHP@numVerts?$DO?$DN3@ 00000001800542c0     ConvexHullBuilder.obj
 0002:000032d0       ??_C@_0FM@KICBLCBH@Gu?3?3ConvexMesh?3?3checkHullPolygo@ 00000001800542d0     ConvexHullBuilder.obj
 0002:00003330       ??_C@_0GO@HBFIOGLL@Gu?3?3ConvexMesh?3?3checkHullPolygo@ 0000000180054330     ConvexHullBuilder.obj
 0002:000033a0       ??_C@_0CC@KHGCOLNH@mHull?9?$DOmNbEdges?5?$DM?$CI?5?$CI1?5?$DM?$DM?515?$CJ?5?9?5@ 00000001800543a0     ConvexHullBuilder.obj
 0002:000033c8       ??_C@_0CB@DAIGCNKP@mHull?9?$DOmNbEdges?5?$DM?$CI?$CI1?5?$DM?$DM?515?$CJ?5?9?51@ 00000001800543c8     ConvexHullBuilder.obj
 0002:000033f0       ??_C@_0BE@EJGGFHND@ConvexHullData?5data@ 00000001800543f0     ConvexHullBuilder.obj
 0002:00003408       ??_C@_0CN@FMCHMHF@?$CB?$CIsize_t?$CIdataHullVertices?$CJ?5?$CF?5si@ 0000000180054408     ConvexHullBuilder.obj
 0002:00003438       ??_C@_0CP@PEBAMPKB@?$CB?$CIsize_t?$CIhullData?4mPolygons?$CJ?5?$CF?5@ 0000000180054438     ConvexHullBuilder.obj
 0002:00003468       ??_C@_0DE@PBHJOBNJ@size_t?$CIaddress?$CJ?5?$DM?$DN?5size_t?$CIdataM@ 0000000180054468     ConvexHullBuilder.obj
 0002:000034a0       ??_C@_0BG@MJLOHHDN@mHullDataHullVertices@ 00000001800544a0     ConvexHullBuilder.obj
 0002:000034b8       ??_C@_0BC@JILNBNOE@mHullDataPolygons@ 00000001800544b8     ConvexHullBuilder.obj
 0002:000034d0       ??_C@_0BF@MHHBBNAJ@mHullDataVertexData8@ 00000001800544d0     ConvexHullBuilder.obj
 0002:000034e8       ??_C@_0BH@KMEGFGPF@mHullDataFacesByEdges8@ 00000001800544e8     ConvexHullBuilder.obj
 0002:00003500       ??_C@_0BK@EOBPJLJJ@mHullDataFacesByVertices8@ 0000000180054500     ConvexHullBuilder.obj
 0002:00003520       ??_C@_0HF@OLJFBIEL@ConvexHullBuilder?3?5convex?5hull?5@ 0000000180054520     ConvexHullBuilder.obj
 0002:000035a0       ??_C@_0OG@JNHFOIL@ConvexHullBuilder?3?5convex?5hull?5@ 00000001800545a0     ConvexHullBuilder.obj
 0002:00003690       ??_C@_0EJ@NIOIBAKH@Cooking?3?3cookConvexMesh?3?5non?9ma@ 0000000180054690     ConvexHullBuilder.obj
 0002:000036e0       ??_C@_0CE@OELJDBDC@PxU32?$CIrun0?9vRefs0?$CJ?$DN?$DNnbEdgesUnsh@ 00000001800546e0     ConvexHullBuilder.obj
 0002:00003708       ??_C@_0CE@OPFCBBDF@PxU32?$CIrun1?9vRefs1?$CJ?$DN?$DNnbEdgesUnsh@ 0000000180054708     ConvexHullBuilder.obj
 0002:0000372c       __real@3ca3d70a            000000018005472c     ConvexHullBuilder.obj
 0002:00003730       __real@3eaaaaab            0000000180054730     ConvexHullBuilder.obj
 0002:00003738       ??_7ConvexHullLib@physx@@6B@ 0000000180054738     ConvexHullLib.obj
 0002:00003760       ??_C@_0GL@CIJGAEGL@C?3?2Users?2codec?2OneDrive?2?$LJ?Y?E?A?5?H?$KN@ 0000000180054760     ConvexHullLib.obj
 0002:000037d0       ??_C@_0DG@JCINKFOO@mConvexMeshDesc?4flags?5?$CG?5PxConve@ 00000001800547d0     ConvexHullLib.obj
 0002:00003810       ??_C@_0JE@PABBNGEL@ConvexHullLib?3?3cleanupVertices?3@ 0000000180054810     ConvexHullLib.obj
 0002:000038a8       ??_C@_0CA@ENKNMFDJ@indexBase?5?$DN?$DN?5desc?4indices?4count@ 00000001800548a8     ConvexHullLib.obj
 0002:000038c8       __real@358637bd            00000001800548c8     ConvexHullLib.obj
 0002:000038cc       __real@3d4ccccd            00000001800548cc     ConvexHullLib.obj
 0002:000038f0       ??_C@_1KE@BNKHDDPA@?$AAC?$AA?3?$AA?2?$AAU?$AAs?$AAe?$AAr?$AAs?$AA?2?$AAc?$AAo?$AAd?$AAe?$AAc?$AA?2@ 00000001800548f0     ConvexHullUtils.obj
 0002:000039a0       ??_C@_1FG@MGJMFNCP@?$AAP?$AAx?$AAA?$AAb?$AAs?$AA?$CI?$AA1?$AA?4?$AA0?$AAf?$AA?5?$AA?9?$AA?5?$AAu?$AAn@ 00000001800549a0     ConvexHullUtils.obj
 0002:00003a00       ??_C@_1KO@DKIFEIBL@?$AAC?$AA?3?$AA?2?$AAU?$AAs?$AAe?$AAr?$AAs?$AA?2?$AAc?$AAo?$AAd?$AAe?$AAc?$AA?2@ 0000000180054a00     ConvexHullUtils.obj
 0002:00003ab0       ??_C@_1BI@DIANAMGA@?$AAq?$AA0?$AA?4?$AAi?$AAs?$AAS?$AAa?$AAn?$AAe?$AA?$CI?$AA?$CJ@ 0000000180054ab0     ConvexHullUtils.obj
 0002:00003ac8       ??_C@_0BB@OOGJNGLK@isValidFloatV?$CIb?$CJ@ 0000000180054ac8     ConvexHullUtils.obj
 0002:00003ae0       ??_C@_0BB@OPKLLMIN@isValidFloatV?$CIc?$CJ@ 0000000180054ae0     ConvexHullUtils.obj
 0002:00003af8       ??_C@_0BA@EPMPMLJI@isValidVec3V?$CIc?$CJ@ 0000000180054af8     ConvexHullUtils.obj
 0002:00003b10       ??_C@_0GN@DEDJLDAH@C?3?2Users?2codec?2OneDrive?2?$LJ?Y?E?A?5?H?$KN@ 0000000180054b10     ConvexHullUtils.obj
 0002:00003b80       ??_C@_06CNNCFCIO@vcount@   0000000180054b80     ConvexHullUtils.obj
 0002:00003b88       ??_C@_0BP@BOGLBFED@mEdges?$FLinext?$FN?4p?5?$DN?$DN?5mEdges?$FLi?$FN?4p@ 0000000180054b88     ConvexHullUtils.obj
 0002:00003ba8       ??_C@_08BDJPPIKG@nb?5?$CB?$DN?5?91@ 0000000180054ba8     ConvexHullUtils.obj
 0002:00003bb8       ??_C@_0CB@CFEGKNLC@i?5?$DN?$DN?5PxU32?$CImEdges?$FLPxU32?$CInb?$CJ?$FN?4ea@ 0000000180054bb8     ConvexHullUtils.obj
 0002:00003be0       ??_C@_0CH@ICNMLFBK@mEdges?$FLPxU32?$CInb?$CJ?$FN?4v?5?$DN?$DN?5mEdges?$FLi@ 0000000180054be0     ConvexHullUtils.obj
 0002:00003c10       ??_C@_0FM@BNLOICHG@local?3?3eCOPLANAR?5?$DN?$DN?5local?3?3plan@ 0000000180054c10     ConvexHullUtils.obj
 0002:00003c70       ??_C@_0BP@JDJHBJAJ@convex?4getEdges?$CI?$CJ?4size?$CI?$CJ?5?$DM?5480@ 0000000180054c70     ConvexHullUtils.obj
 0002:00003c90       ??_C@_0DA@PGDOKAKB@tmpUnderEdges?$FLunderEdgeCount?$FN?4v@ 0000000180054c90     ConvexHullUtils.obj
 0002:00003cc0       ??_C@_0CM@NCLAMEIG@edgeFlag?$FLedge0?4ea?$FN?4undermap?5?$CB?$DN?5@ 0000000180054cc0     ConvexHullUtils.obj
 0002:00003cf0       ??_C@_0BF@KEHLOIPL@vout?5?$CB?$DN?5invalidIndex@ 0000000180054cf0     ConvexHullUtils.obj
 0002:00003d08       ??_C@_0BF@OKMJIKEK@vin?5?$DM?5vertCountUnder@ 0000000180054d08     ConvexHullUtils.obj
 0002:00003d20       ??_C@_0CI@OACGEIKL@edgeFlag?$FLe0?$FN?4undermap?5?$DN?$DN?5underE@ 0000000180054d20     ConvexHullUtils.obj
 0002:00003d48       ??_C@_0BE@ODINDNNF@vin?5?$CB?$DN?5invalidIndex@ 0000000180054d48     ConvexHullUtils.obj
 0002:00003d60       ??_C@_0BE@CEIFINGH@coplanarEdge?5?$CB?$DN?5511@ 0000000180054d60     ConvexHullUtils.obj
 0002:00003d78       ??_C@_0BJ@HIGNANEP@i?5?$DN?$DN?5createdVerts?4size?$CI?$CJ@ 0000000180054d78     ConvexHullUtils.obj
 0002:00003d94       ??_C@_04NCKNBPPK@PxU8@     0000000180054d94     ConvexHullUtils.obj
 0002:00003d9c       ??_C@_05CDCIKCPI@Vec4V@    0000000180054d9c     ConvexHullUtils.obj
 0002:00003da4       __real@00800000            0000000180054da4     ConvexHullUtils.obj
 0002:00003da8       __real@3c8efa35            0000000180054da8     ConvexHullUtils.obj
 0002:00003dac       __real@40400000            0000000180054dac     ConvexHullUtils.obj
 0002:00003db0       __real@41900000            0000000180054db0     ConvexHullUtils.obj
 0002:00003db4       __real@4e6e6b28            0000000180054db4     ConvexHullUtils.obj
 0002:00003db8       __real@bf000000            0000000180054db8     ConvexHullUtils.obj
 0002:00003de0       ??_C@_0DF@LLFJIJGM@Gu?3?3ConvexMesh?3?3loadFromDesc?3?5d@ 0000000180054de0     ConvexMeshBuilder.obj
 0002:00003e20       ??_C@_0GP@CMDKGLNM@C?3?2Users?2codec?2OneDrive?2?$LJ?Y?E?A?5?H?$KN@ 0000000180054e20     ConvexMeshBuilder.obj
 0002:00003e90       ??_C@_0HK@JOGKIEAA@Gu?3?3ConvexMesh?3?5Mesh?5has?5a?5nega@ 0000000180054e90     ConvexMeshBuilder.obj
 0002:00003f10       ??_C@_0DH@NJPPHFFD@Gu?3?3ConvexMesh?3?5Error?5computing@ 0000000180054f10     ConvexMeshBuilder.obj
 0002:00003f48       ??_C@_0DJ@LJDLGLDJ@Gu?3?3ConvexMesh?3?3loadConvexHull?3@ 0000000180054f48     ConvexMeshBuilder.obj
 0002:00003f90       ??_C@_0HJ@KJANPPOE@ConvexMeshBuilder?3?3computeHullP@ 0000000180054f90     ConvexMeshBuilder.obj
 0002:00004010       ??_C@_0O@JMAGMMGG@PxHullPolygon@ 0000000180055010     ConvexMeshBuilder.obj
 0002:00004020       ??_C@_0FN@IODHNLIE@indices?$FLoutPolygon?4mIndexBase?5?$CL@ 0000000180055020     ConvexMeshBuilder.obj
 0002:00004080       __real@0000000000000000    0000000180055080     ConvexMeshBuilder.obj
 0002:00004088       __real@33d6bf95            0000000180055088     ConvexMeshBuilder.obj
 0002:0000408c       __real@b3d6bf95            000000018005508c     ConvexMeshBuilder.obj
 0002:00004090       __xmm@80000000000000008000000000000000 0000000180055090     ConvexMeshBuilder.obj
 0002:000040a0       ??_C@_0HD@MMPODJMN@C?3?2Users?2codec?2OneDrive?2?$LJ?Y?E?A?5?H?$KN@ 00000001800550a0     ConvexPolygonsBuilder.obj
 0002:00004118       ??_C@_0P@BKHDFID@Copy?4size?$CI?$CJ?$DO?$DN2@ 0000000180055118     ConvexPolygonsBuilder.obj
 0002:00004128       ??_C@_0P@CKIKGGEA@Copy?4size?$CI?$CJ?$DO?$DN1@ 0000000180055128     ConvexPolygonsBuilder.obj
 0002:00004138       ??_C@_0L@EHJBDJOI@nbVerts?$DO?$DN3@ 0000000180055138     ConvexPolygonsBuilder.obj
 0002:00004148       ??_C@_0BB@KAJHDBOL@wFaces?5?$HM?$HM?5dFaces@ 0000000180055148     ConvexPolygonsBuilder.obj
 0002:00004160       ??_C@_0BM@BGNOFOOP@entries?$FL0?$FN?5?$DN?$DN?5entries?$FLnb?91?$FN@ 0000000180055160     ConvexPolygonsBuilder.obj
 0002:00004180       ??_C@_0DP@PJBJBEGF@Meshmerizer?3?3extractHullPolygon@ 0000000180055180     ConvexPolygonsBuilder.obj
 0002:000041c0       ??_C@_09PNPFALML@triangles@ 00000001800551c0     ConvexPolygonsBuilder.obj
 0002:000041d0       ??_C@_0BJ@CIDDLGFP@triangles?$FLi?$CK3?$CL0?$FN?$DM?$DN0xffff@ 00000001800551d0     ConvexPolygonsBuilder.obj
 0002:000041f0       ??_C@_0BJ@OJLNGJJP@triangles?$FLi?$CK3?$CL1?$FN?$DM?$DN0xffff@ 00000001800551f0     ConvexPolygonsBuilder.obj
 0002:00004210       ??_C@_0BJ@HAFPAPJO@triangles?$FLi?$CK3?$CL2?$FN?$DM?$DN0xffff@ 0000000180055210     ConvexPolygonsBuilder.obj
 0002:00004230       ??_C@_0BA@OMHMECP@nbHullVerts?$DM256@ 0000000180055230     ConvexPolygonsBuilder.obj
 0002:00004240       ??_C@_0BL@MFNKFFFN@Reduced?5vertices?5hull?5data@ 0000000180055240     ConvexPolygonsBuilder.obj
 0002:00004260       ??_C@_0CK@GNGILODA@currentIndex?5?$DM?5numReducedHullDa@ 0000000180055260     ConvexPolygonsBuilder.obj
 0002:00004290       ??_C@_0CB@EODAHBEL@data?$FLj?$FN?5?$DM?5mHull?9?$DOmNbHullVertice@ 0000000180055290     ConvexPolygonsBuilder.obj
 0002:000042b8       ??_C@_0DL@IAFKOCCK@ConvexHullBuilder?3?5convex?5hull?5@ 00000001800552b8     ConvexPolygonsBuilder.obj
 0002:000042f8       ??_C@_0BG@OHLOGHMG@triIndex?$DMmNbHullFaces@ 00000001800552f8     ConvexPolygonsBuilder.obj
 0002:00004310       ??_C@_0DH@CAGLLON@mHullDataPolygons?$FLi?$FN?4mPlane?4dis@ 0000000180055310     ConvexPolygonsBuilder.obj
 0002:00004350       ??_C@_0GF@OJLJHAMH@ConvexHullBuilder?3?3CreateTriang@ 0000000180055350     ConvexPolygonsBuilder.obj
 0002:000043b8       ??_C@_0BO@MMNNDACD@nbTriangles?5?$DM?$DN?5maxNbTriangles@ 00000001800553b8     ConvexPolygonsBuilder.obj
 0002:000043d8       ??_7QuickHullConvexHullLib@physx@@6B@ 00000001800553d8     QuickHullConvexHullLib.obj
 0002:00004400       ??_C@_0HE@OJIGLCA@C?3?2Users?2codec?2OneDrive?2?$LJ?Y?E?A?5?H?$KN@ 0000000180055400     QuickHullConvexHullLib.obj
 0002:00004474       ??_C@_04HPBPGAEO@twin@     0000000180055474     QuickHullConvexHullLib.obj
 0002:0000447c       ??_C@_04IJFJNCMM@edge@     000000018005547c     QuickHullConvexHullLib.obj
 0002:00004488       ??_C@_09CKAEOABB@startEdge@ 0000000180055488     QuickHullConvexHullLib.obj
 0002:00004494       ??_C@_04POCOPAPC@face@     0000000180055494     QuickHullConvexHullLib.obj
 0002:000044a0       ??_C@_0BH@KGKKNPGB@checkFaceConsistency?$CI?$CJ@ 00000001800554a0     QuickHullConvexHullLib.obj
 0002:000044b8       ??_C@_08FKPFFPGN@numv?5?$DO?52@ 00000001800554b8     QuickHullConvexHullLib.obj
 0002:000044c8       ??_C@_0BB@NPIGJJFH@hedgeOpp?5?$CB?$DN?5NULL@ 00000001800554c8     QuickHullConvexHullLib.obj
 0002:000044e0       ??_C@_0BI@NAILLODC@hedgeOpp?9?$DOtwin?5?$DN?$DN?5hedge@ 00000001800554e0     QuickHullConvexHullLib.obj
 0002:000044f8       ??_C@_0BA@FPNCCKDI@oppFace?5?$CB?$DN?5NULL@ 00000001800554f8     QuickHullConvexHullLib.obj
 0002:00004508       ??_C@_0CK@HJJJCJME@oppFace?9?$DOstate?5?$CB?$DN?5QuickHullFace@ 0000000180055508     QuickHullConvexHullLib.obj
 0002:00004538       ??_C@_0BE@PPJFDAEE@hedge?9?$DOface?5?$DN?$DN?5this@ 0000000180055538     QuickHullConvexHullLib.obj
 0002:00004550       ??_C@_0BA@IIKLDFLI@numVertices?5?$DO?50@ 0000000180055550     QuickHullConvexHullLib.obj
 0002:00004560       ??_C@_0BA@BPKNMKIA@QuickHullVertex@ 0000000180055560     QuickHullConvexHullLib.obj
 0002:00004570       ??_C@_0BJ@FCCFKLOA@numVerts?5?$DM?$DN?5mMaxVertices@ 0000000180055570     QuickHullConvexHullLib.obj
 0002:00004590       ??_C@_0GA@EPPAEJPM@QuickHullConvexHullLib?3?3findSim@ 0000000180055590     QuickHullConvexHullLib.obj
 0002:000045f0       ??_C@_0FB@NEBIJMML@QuickHullConvexHullLib?3?3findSim@ 00000001800555f0     QuickHullConvexHullLib.obj
 0002:00004650       ??_C@_0FB@CLLCBEMM@QuickHullConvexHullLib?3?3findSim@ 0000000180055650     QuickHullConvexHullLib.obj
 0002:000046a8       ??_C@_07DDJOPBBG@simplex@  00000001800556a8     QuickHullConvexHullLib.obj
 0002:000046b0       ??_C@_0BC@EMKMAMDK@face?4conflictList@ 00000001800556b0     QuickHullConvexHullLib.obj
 0002:000046c8       ??_C@_0BM@MDABMKAO@face?4conflictList?5?$DN?$DN?5vertex@ 00000001800556c8     QuickHullConvexHullLib.obj
 0002:000046e8       ??_C@_0BM@KELCFLC@face?4checkFaceConsistency?$CI?$CJ@ 00000001800556e8     QuickHullConvexHullLib.obj
 0002:00004708       ??_C@_07CFCNFCEM@eyeFace@  0000000180055708     QuickHullConvexHullLib.obj
 0002:00004710       ??_C@_06FPAPLEC@heTwin@    0000000180055710     QuickHullConvexHullLib.obj
 0002:00004718       ??_C@_0L@EIPELJHI@mQuickHull@ 0000000180055718     QuickHullConvexHullLib.obj
 0002:00004728       ??_C@_0CI@BFGCKDAG@face?4index?5?$DN?$DN?5expandPoint?4plane@ 0000000180055728     QuickHullConvexHullLib.obj
 0002:00004750       ??_C@_0CA@KDJNIAHF@c?9?$DOassertIntact?$CIplaneTolerance?$CJ@ 0000000180055750     QuickHullConvexHullLib.obj
 0002:00004770       ??_C@_0CC@DCDPKPID@?$CKoutHullDataFacesByEdges8?5?$DN?$DN?5NU@ 0000000180055770     QuickHullConvexHullLib.obj
 0002:00004798       ??_C@_0BC@EMEFDIJK@?$CKoutEdges?5?$DN?$DN?5NULL@ 0000000180055798     QuickHullConvexHullLib.obj
 0002:000047b0       ??_C@_0BH@CPAKOOBA@?$CKoutEdgeData16?5?$DN?$DN?5NULL@ 00000001800557b0     QuickHullConvexHullLib.obj
 0002:000047c8       ??_C@_0CN@JGCPHPKN@face?4state?5?$DN?$DN?5local?3?3QuickHullF@ 00000001800557c8     QuickHullConvexHullLib.obj
 0002:000047f8       ??_C@_0P@OFIBMBPE@ConvexMeshDesc@ 00000001800557f8     QuickHullConvexHullLib.obj
 0002:00004808       ??_C@_0CJ@ICHEGJCB@mQuickHull?9?$DOmNumHullFaces?5?$DN?$DN?5nu@ 0000000180055808     QuickHullConvexHullLib.obj
 0002:00004838       ??_C@_0BC@NAPMPBH@mCropedConvexHull@ 0000000180055838     QuickHullConvexHullLib.obj
 0002:00004850       ??_C@_0CL@BEOIBIJC@k?5?$DN?$DN?5mCropedConvexHull?9?$DOgetFace@ 0000000180055850     QuickHullConvexHullLib.obj
 0002:00004880       ??_C@_0BB@PMGJMJHA@mPreallocateSize@ 0000000180055880     QuickHullConvexHullLib.obj
 0002:00004898       ??_C@_0BD@NDHBJDBB@Quickhull?5MemBlock@ 0000000180055898     QuickHullConvexHullLib.obj
 0002:000048b0       ??_C@_0BH@IGECNJKJ@block?5?$DM?$DN?5mCurrentBlock@ 00000001800558b0     QuickHullConvexHullLib.obj
 0002:000048c8       ??_C@_0BN@MOAOIDAG@itemIndex?5?$DM?5mPreallocateSize@ 00000001800558c8     QuickHullConvexHullLib.obj
 0002:000048e8       ??_C@_0BA@KPFJPMPJ@preallocateSize@ 00000001800558e8     QuickHullConvexHullLib.obj
 0002:000048f8       __real@34c00000            00000001800558f8     QuickHullConvexHullLib.obj
 0002:000048fc       __real@40800000            00000001800558fc     QuickHullConvexHullLib.obj
 0002:00004920       ??_C@_0GP@HLEBADFF@C?3?2Users?2codec?2OneDrive?2?$LJ?Y?E?A?5?H?$KN@ 0000000180055920     VolumeIntegration.obj
 0002:00004990       ??_C@_0M@JAODDECG@nbVerts?5?$DO?52@ 0000000180055990     VolumeIntegration.obj
 0002:0000499c       __real@3c088889            000000018005599c     VolumeIntegration.obj
 0002:000049a0       __real@3c888889            00000001800559a0     VolumeIntegration.obj
 0002:000049a4       __real@3d2aaaab            00000001800559a4     VolumeIntegration.obj
 0002:000049a8       __real@3e2aaaab            00000001800559a8     VolumeIntegration.obj
 0002:000049b0       __real@3f81111111111111    00000001800559b0     VolumeIntegration.obj
 0002:000049b8       __real@3f91111111111111    00000001800559b8     VolumeIntegration.obj
 0002:000049c0       __real@3fa5555555555555    00000001800559c0     VolumeIntegration.obj
 0002:000049c8       __real@3fc5555555555555    00000001800559c8     VolumeIntegration.obj
 0002:000049d0       __real@3ff0000000000000    00000001800559d0     VolumeIntegration.obj
 0002:000049d8       __real@4000000000000000    00000001800559d8     VolumeIntegration.obj
 0002:000049e0       __real@4008000000000000    00000001800559e0     VolumeIntegration.obj
 0002:000049e8       __real@4010000000000000    00000001800559e8     VolumeIntegration.obj
 0002:000049f0       __real@4018000000000000    00000001800559f0     VolumeIntegration.obj
 0002:000049f8       __real@4028000000000000    00000001800559f8     VolumeIntegration.obj
 0002:00004a00       __real@4034000000000000    0000000180055a00     VolumeIntegration.obj
 0002:00004a08       __real@4038000000000000    0000000180055a08     VolumeIntegration.obj
 0002:00004a10       __real@404e000000000000    0000000180055a10     VolumeIntegration.obj
 0002:00004a18       __real@c018000000000000    0000000180055a18     VolumeIntegration.obj
 0002:00004a20       __real@c028000000000000    0000000180055a20     VolumeIntegration.obj
 0002:00004a28       __real@c034000000000000    0000000180055a28     VolumeIntegration.obj
 0002:00004a30       __real@c04e000000000000    0000000180055a30     VolumeIntegration.obj
 0002:00004a38       ??_C@_0BA@EGLNOO@PhysXFoundation@ 0000000180055a38     WindowsCookingDelayLoadHook.obj
 0002:00004a48       ??_C@_0M@ILKNCJKN@PhysXCommon@ 0000000180055a48     WindowsCookingDelayLoadHook.obj
 0002:00004a60       ??_7type_info@@6B@         0000000180055a60     MSVCRTD:std_type_info_static.obj
 0002:00004a68       _pRawDllMain               0000000180055a68     MSVCRTD:dll_dllmain.obj
 0002:00004a68       _pDefaultRawDllMain        0000000180055a68     MSVCRTD:dll_dllmain.obj
 0002:00004a98       ??_C@_0BJ@HEGAHDFO@Stack?5pointer?5corruption@ 0000000180055a98     MSVCRTD:userapi.obj
 0002:00004ab8       ??_C@_0CK@FEGOIOPB@Cast?5to?5smaller?5type?5causing?5lo@ 0000000180055ab8     MSVCRTD:userapi.obj
 0002:00004ae8       ??_C@_0BI@CIGMDCBH@Stack?5memory?5corruption@ 0000000180055ae8     MSVCRTD:userapi.obj
 0002:00004b00       ??_C@_0CK@CNLNOEPB@Local?5variable?5used?5before?5init@ 0000000180055b00     MSVCRTD:userapi.obj
 0002:00004b30       ??_C@_0BP@OGBCLIBO@Stack?5around?5_alloca?5corrupted@ 0000000180055b30     MSVCRTD:userapi.obj
 0002:00004c10       ??_C@_0NN@JMPELKLB@The?5value?5of?5ESP?5was?5not?5proper@ 0000000180055c10     MSVCRTD:error.obj
 0002:00004cf0       ??_C@_0BBN@ELNNILBE@A?5cast?5to?5a?5smaller?5data?5type?5h@ 0000000180055cf0     MSVCRTD:error.obj
 0002:00004e10       ??_C@_0BN@BPOGFMJL@Stack?5memory?5was?5corrupted?$AN?6@ 0000000180055e10     MSVCRTD:error.obj
 0002:00004e30       ??_C@_0DG@DAJCDLPN@A?5local?5variable?5was?5used?5befor@ 0000000180055e30     MSVCRTD:error.obj
 0002:00004e68       ??_C@_0CM@JMIDGKLA@Stack?5memory?5around?5_alloca?5was@ 0000000180055e68     MSVCRTD:error.obj
 0002:00004e98       ??_C@_0BO@CHIONIOI@Unknown?5Runtime?5Check?5Error?$AN?6@ 0000000180055e98     MSVCRTD:error.obj
 0002:00004ec0       ??_C@_1GM@CNOOJIHC@?$AAR?$AAu?$AAn?$AAt?$AAi?$AAm?$AAe?$AA?5?$AAC?$AAh?$AAe?$AAc?$AAk?$AA?5?$AAE@ 0000000180055ec0     MSVCRTD:error.obj
 0002:00004f30       ??_C@_1EA@NFKNIFJP@?$AAR?$AAu?$AAn?$AA?9?$AAT?$AAi?$AAm?$AAe?$AA?5?$AAC?$AAh?$AAe?$AAc?$AAk?$AA?5@ 0000000180055f30     MSVCRTD:error.obj
 0002:00004f70       ??_C@_0BB@PFFGGCJP@Unknown?5Filename@ 0000000180055f70     MSVCRTD:error.obj
 0002:00004f88       ??_C@_0BE@GNBOBNCK@Unknown?5Module?5Name@ 0000000180055f88     MSVCRTD:error.obj
 0002:00004fa0       ??_C@_0CA@IODNCDPG@Run?9Time?5Check?5Failure?5?$CD?$CFd?5?9?5?$CFs@ 0000000180055fa0     MSVCRTD:error.obj
 0002:00004fc0       ??_C@_0CG@IAFNJNEE@Stack?5corrupted?5near?5unknown?5va@ 0000000180055fc0     MSVCRTD:error.obj
 0002:00004fe8       ??_C@_05MKKEDADM@?$CF?42X?5@ 0000000180055fe8     MSVCRTD:error.obj
 0002:00004ff0       ??_C@_0EJ@LJKNEOLN@Stack?5area?5around?5_alloca?5memor@ 0000000180055ff0     MSVCRTD:error.obj
 0002:0000503c       ??_C@_01EEMJAFIK@?6@       000000018005603c     MSVCRTD:error.obj
 0002:00005040       ??_C@_02LLMPMKNF@?$DO?5@   0000000180056040     MSVCRTD:error.obj
 0002:00005048       ??_C@_08OMAHNMHJ@?6Data?3?5?$DM@ 0000000180056048     MSVCRTD:error.obj
 0002:00005058       ??_C@_0CK@DKGBICFE@?6Allocation?5number?5within?5this?5@ 0000000180056058     MSVCRTD:error.obj
 0002:00005088       ??_C@_07DFDJCKFN@?6Size?3?5@ 0000000180056088     MSVCRTD:error.obj
 0002:00005090       ??_C@_0N@MHFFIMFG@?6Address?3?50x@ 0000000180056090     MSVCRTD:error.obj
 0002:000050a0       ??_C@_0EI@CLEPFNGI@Stack?5area?5around?5_alloca?5memor@ 00000001800560a0     MSVCRTD:error.obj
 0002:000050e8       ??_C@_0BK@ODNDAGKB@?$CFs?$CFs?$CFp?$CFs?$CFzd?$CFs?$CFd?$CFs?$CFs?$CFs?$CFs?$CFs@ 00000001800560e8     MSVCRTD:error.obj
 0002:00005108       ??_C@_0DE@OHJBPMBP@A?5variable?5is?5being?5used?5withou@ 0000000180056108     MSVCRTD:error.obj
 0002:000051a0       ??_C@_1EI@MLPKHBGE@?$AAa?$AAp?$AAi?$AA?9?$AAm?$AAs?$AA?9?$AAw?$AAi?$AAn?$AA?9?$AAc?$AAo?$AAr?$AAe@ 00000001800561a0     MSVCRTD:pdblkup.obj
 0002:000051e8       ??_C@_1BK@JHLNAEJL@?$AAa?$AAd?$AAv?$AAa?$AAp?$AAi?$AA3?$AA2?$AA?4?$AAd?$AAl?$AAl@ 00000001800561e8     MSVCRTD:pdblkup.obj
 0002:00005208       ??_C@_0O@COHOBMLB@RegOpenKeyExW@ 0000000180056208     MSVCRTD:pdblkup.obj
 0002:00005218       ??_C@_0BB@GLNAEDBD@RegQueryValueExW@ 0000000180056218     MSVCRTD:pdblkup.obj
 0002:00005230       ??_C@_0M@HLOHPNFA@RegCloseKey@ 0000000180056230     MSVCRTD:pdblkup.obj
 0002:00005240       ??_C@_1HE@EBEAGLFB@?$AAS?$AAO?$AAF?$AAT?$AAW?$AAA?$AAR?$AAE?$AA?2?$AAW?$AAo?$AAw?$AA6?$AA4?$AA3@ 0000000180056240     MSVCRTD:pdblkup.obj
 0002:000052b8       ??_C@_1BG@EABPBLLF@?$AAP?$AAr?$AAo?$AAd?$AAu?$AAc?$AAt?$AAD?$AAi?$AAr@ 00000001800562b8     MSVCRTD:pdblkup.obj
 0002:000052f0       ??_C@_1BC@JINFINNJ@?$AAM?$AAS?$AAP?$AAD?$AAB?$AA1?$AA4?$AA0@ 00000001800562f0     MSVCRTD:pdblkup.obj
 0002:00005308       ??_C@_0BB@KCIACLNC@PDBOpenValidate5@ 0000000180056308     MSVCRTD:pdblkup.obj
 0002:0000531c       ??_C@_01KDCPPGHE@r@        000000018005631c     MSVCRTD:pdblkup.obj
 0002:00005390       _load_config_used          0000000180056390     MSVCRTD:loadcfg.obj
 0002:00005500       __CastGuardVftablesStart   0000000180056500     MSVCRTD:guard_support.obj
 0002:00005508       __CastGuardVftablesEnd     0000000180056508     MSVCRTD:guard_support.obj
 0002:00005510       ??_R4type_info@@6B@        0000000180056510     MSVCRTD:std_type_info_static.obj
 0002:00005538       ??_R3type_info@@8          0000000180056538     MSVCRTD:std_type_info_static.obj
 0002:00005550       ??_R2type_info@@8          0000000180056550     MSVCRTD:std_type_info_static.obj
 0002:00005560       ??_R1A@?0A@EA@type_info@@8 0000000180056560     MSVCRTD:std_type_info_static.obj
 0002:00005938       __rtc_iaa                  0000000180056938     MSVCRTD:initsect.obj
 0002:000059e0       __rtc_izz                  00000001800569e0     MSVCRTD:initsect.obj
 0002:000059e8       __rtc_taa                  00000001800569e8     MSVCRTD:initsect.obj
 0002:00005a90       __rtc_tzz                  0000000180056a90     MSVCRTD:initsect.obj
 0002:00009d14       __IMPORT_DESCRIPTOR_PhysXCommon_64d 000000018005ad14     PhysXCommon_64:PhysXCommon_64d.dll
 0002:00009d28       __IMPORT_DESCRIPTOR_PhysXFoundation_64d 000000018005ad28     PhysXFoundation_64:PhysXFoundation_64d.dll
 0002:00009d3c       __IMPORT_DESCRIPTOR_KERNEL32 000000018005ad3c     kernel32:KERNEL32.dll
 0002:00009d50       __IMPORT_DESCRIPTOR_VCRUNTIME140D 000000018005ad50     vcruntimed:VCRUNTIME140D.dll
 0002:00009d64       __IMPORT_DESCRIPTOR_ucrtbased 000000018005ad64     ucrtd:ucrtbased.dll
 0002:00009d78       __NULL_IMPORT_DESCRIPTOR   000000018005ad78     PhysXCommon_64:PhysXCommon_64d.dll
 0003:00000000       __pfnDliNotifyHook2        000000018005d000     WindowsCookingDelayLoadHook.obj
 0003:00000008       _fltused                   000000018005d008     MSVCRTD:fltused.obj
 0003:00000010       __scrt_native_dllmain_reason 000000018005d010     MSVCRTD:utility.obj
 0003:00000018       ?_RTC_ErrorLevels@@3PAHA   000000018005d018     MSVCRTD:error.obj
 0003:00000030       __security_cookie_complement 000000018005d030     MSVCRTD:gs_cookie.obj
 0003:00000038       __security_cookie          000000018005d038     MSVCRTD:gs_cookie.obj
 0003:00000040       __isa_available            000000018005d040     MSVCRTD:cpu_disp.obj
 0003:00000044       __isa_enabled              000000018005d044     MSVCRTD:cpu_disp.obj
 0003:00000048       __memcpy_nt_iters          000000018005d048     MSVCRTD:cpu_disp.obj
 0003:00000050       __memset_nt_iters          000000018005d050     MSVCRTD:cpu_disp.obj
 0003:00000060       __scrt_ucrt_dll_is_in_use  000000018005d060     MSVCRTD:ucrt_stubs.obj
 0003:00000068       ??_R0?AVAdjEdge@@@8        000000018005d068     Adjacencies.obj
 0003:00000088       ??_R0I@8                   000000018005d088     Adjacencies.obj
 0003:000000a0       ??_R0?AVAdjTriangle@physx@@@8 000000018005d0a0     Adjacencies.obj
 0003:000000c8       ??_R0?AVHeightField@Gu@physx@@@8 000000018005d0c8     Cooking.obj
 0003:000000f8       ??_R0?AVCooking@physx@@@8  000000018005d0f8     Cooking.obj
 0003:00000120       ??_R0?AVQuickHullConvexHullLib@physx@@@8 000000018005d120     Cooking.obj
 0003:00000158       ??_R0M@8                   000000018005d158     CookingUtils.obj
 0003:00000170       ??_R0?AUEdgeData@Gu@physx@@@8 000000018005d170     EdgeList.obj
 0003:00000198       ??_R0?AUEdgeTriangleData@Gu@physx@@@8 000000018005d198     EdgeList.obj
 0003:000001c8       ??_R0?AVQuantizerImpl@@@8  000000018005d1c8     Quantizer.obj
 0003:000001f0       ??_R0?AVEdgeListBuilder@Gu@physx@@@8 000000018005d1f0     TriangleMeshBuilder.obj
 0003:00000220       ??_R0?AVBV32Tree@Gu@physx@@@8 000000018005d220     TriangleMeshBuilder.obj
 0003:00000248       ??_R0E@8                   000000018005d248     TriangleMeshBuilder.obj
 0003:00000260       ??_R0G@8                   000000018005d260     TriangleMeshBuilder.obj
 0003:00000278       ??_R0?AUEdgeDescData@Gu@physx@@@8 000000018005d278     ConvexHullBuilder.obj
 0003:000002a8       ??_R0_N@8                  000000018005d2a8     ConvexHullBuilder.obj
 0003:000002c0       ??_R0?AVConvexHull@physx@@@8 000000018005d2c0     ConvexHullUtils.obj
 0003:000002e8       ??_R0?AVBigConvexData@physx@@@8 000000018005d2e8     ConvexMeshBuilder.obj
 0003:00000318       ??_R0?AUHullTriangleData@physx@@@8 000000018005d318     ConvexPolygonsBuilder.obj
 0003:00000348       ??_R0?AVQuickHull@local@@@8 000000018005d348     QuickHullConvexHullLib.obj
 0003:00000370       ??_R0?AVtype_info@@@8      000000018005d370     MSVCRTD:std_type_info_static.obj
 0003:00000400       ?_ignore@?2??getSample@HeightField@Gu@physx@@QEBAAEBUPxHeightFieldSample@4@I@Z@4_NA 000000018005d400     Cooking.obj
 0003:00000403       ?_ignore@?2??forceSize_Unsafe@?$Array@UPxDebugLine@physx@@VNamedAllocator@shdfnd@2@@shdfnd@physx@@QEAAXI@Z@4_NA 000000018005d403     Cooking.obj
 0003:00000404       ?_ignore@?2??grow@?$Array@UPxDebugLine@physx@@VNamedAllocator@shdfnd@2@@shdfnd@physx@@IEAAXI@Z@4_NA 000000018005d404     Cooking.obj
 0003:00000405       ?_ignore@?2??recreate@?$Array@UPxDebugLine@physx@@VNamedAllocator@shdfnd@2@@shdfnd@physx@@IEAAXI@Z@4_NA 000000018005d405     Cooking.obj
 0003:0000040f       ?_ignore@?2???A?$Array@VPxVec3@physx@@VNamedAllocator@shdfnd@2@@shdfnd@physx@@QEAAAEAVPxVec3@3@I@Z@4_NA 000000018005d40f     Quantizer.obj
 0003:00000410       ?_ignore@?P@???$kmeans_cluster@VPxVec3@physx@@M@@YAIPEBVPxVec3@physx@@IIPEAV12@PEAIMM@Z@4_NA 000000018005d410     Quantizer.obj
 0003:00000411       ?_ignore@?2??growAndPushBack@?$Array@VPxVec3@physx@@VNamedAllocator@shdfnd@2@@shdfnd@physx@@IEAAAEAVPxVec3@4@AEBV54@@Z@4_NA 000000018005d411     Quantizer.obj
 0003:00000480       ?_ignore@?2??V4StoreA@aos@shdfnd@physx@@YAXT__m128@@PEAM@Z@4_NA 000000018005d480     BVHStructureBuilder.obj
 0003:00000486       ?_ignore@?2???A?$Array@USlab@NodeAllocator@Gu@physx@@VNamedAllocator@shdfnd@4@@shdfnd@physx@@QEBAAEBUSlab@NodeAllocator@Gu@3@I@Z@4_NA 000000018005d486     BVHStructureBuilder.obj
 0003:00000487       ?_ignore@?2??grow@?$Array@USlab@NodeAllocator@Gu@physx@@VNamedAllocator@shdfnd@4@@shdfnd@physx@@IEAAXI@Z@4_NA 000000018005d487     BVHStructureBuilder.obj
 0003:00000488       ?_ignore@?2??recreate@?$Array@USlab@NodeAllocator@Gu@physx@@VNamedAllocator@shdfnd@4@@shdfnd@physx@@IEAAXI@Z@4_NA 000000018005d488     BVHStructureBuilder.obj
 0003:000004f0       ?_ignore@?2??FStore@aos@shdfnd@physx@@YAXT__m128@@PEIAM@Z@4_NA 000000018005d4f0     RTreeCooking.obj
 0003:000004f1       ?_ignore@?2??V3StoreA@aos@shdfnd@physx@@YAXT__m128@@AEAVPxVec3@4@@Z@4_NA 000000018005d4f1     RTreeCooking.obj
 0003:000004f2       ?_ignore@?2??V3Splat@aos@shdfnd@physx@@YA?AT__m128@@T5@@Z@4_NA 000000018005d4f2     RTreeCooking.obj
 0003:000004f3       ?_ignore@?2??V3Add@aos@shdfnd@physx@@YA?AT__m128@@T5@0@Z@4_NA 000000018005d4f3     RTreeCooking.obj
 0003:000004f4       ?_ignore@?3??V3Add@aos@shdfnd@physx@@YA?AT__m128@@T5@0@Z@4_NA 000000018005d4f4     RTreeCooking.obj
 0003:000004f5       ?_ignore@?2??V3Sub@aos@shdfnd@physx@@YA?AT__m128@@T5@0@Z@4_NA 000000018005d4f5     RTreeCooking.obj
 0003:000004f6       ?_ignore@?3??V3Sub@aos@shdfnd@physx@@YA?AT__m128@@T5@0@Z@4_NA 000000018005d4f6     RTreeCooking.obj
 0003:000004f7       ?_ignore@?2??V3Dot@aos@shdfnd@physx@@YA?AT__m128@@T5@0@Z@4_NA 000000018005d4f7     RTreeCooking.obj
 0003:000004f8       ?_ignore@?3??V3Dot@aos@shdfnd@physx@@YA?AT__m128@@T5@0@Z@4_NA 000000018005d4f8     RTreeCooking.obj
 0003:000004f9       ?_ignore@?2??V3Max@aos@shdfnd@physx@@YA?AT__m128@@T5@0@Z@4_NA 000000018005d4f9     RTreeCooking.obj
 0003:000004fa       ?_ignore@?3??V3Max@aos@shdfnd@physx@@YA?AT__m128@@T5@0@Z@4_NA 000000018005d4fa     RTreeCooking.obj
 0003:000004fb       ?_ignore@?2??V3Min@aos@shdfnd@physx@@YA?AT__m128@@T5@0@Z@4_NA 000000018005d4fb     RTreeCooking.obj
 0003:000004fc       ?_ignore@?3??V3Min@aos@shdfnd@physx@@YA?AT__m128@@T5@0@Z@4_NA 000000018005d4fc     RTreeCooking.obj
 0003:000004fd       ?_ignore@?2??V3PermZXY@aos@shdfnd@physx@@YA?AT__m128@@T5@@Z@4_NA 000000018005d4fd     RTreeCooking.obj
 0003:000004ff       ?_ignore@?5??sort4@SubSortQuick@physx@@QEAAXPEIAIIAEAV?$Array@URTreeNodeNQ@physx@@VNamedAllocator@shdfnd@2@@shdfnd@3@AEAIAEAUPxBounds3V@3@I@Z@4_NA 000000018005d4ff     RTreeCooking.obj
 0003:00000500       ?_ignore@?6??sort4@SubSortQuick@physx@@QEAAXPEIAIIAEAV?$Array@URTreeNodeNQ@physx@@VNamedAllocator@shdfnd@2@@shdfnd@3@AEAIAEAUPxBounds3V@3@I@Z@4_NA 000000018005d500     RTreeCooking.obj
 0003:00000501       ?_ignore@?7??sort4@SubSortQuick@physx@@QEAAXPEIAIIAEAV?$Array@URTreeNodeNQ@physx@@VNamedAllocator@shdfnd@2@@shdfnd@3@AEAIAEAUPxBounds3V@3@I@Z@4_NA 000000018005d501     RTreeCooking.obj
 0003:00000502       ?_ignore@?8??sort4@SubSortQuick@physx@@QEAAXPEIAIIAEAV?$Array@URTreeNodeNQ@physx@@VNamedAllocator@shdfnd@2@@shdfnd@3@AEAIAEAUPxBounds3V@3@I@Z@4_NA 000000018005d502     RTreeCooking.obj
 0003:00000503       ?_ignore@?M@??sort4@SubSortQuick@physx@@QEAAXPEIAIIAEAV?$Array@URTreeNodeNQ@physx@@VNamedAllocator@shdfnd@2@@shdfnd@3@AEAIAEAUPxBounds3V@3@I@Z@4_NA 000000018005d503     RTreeCooking.obj
 0003:00000504       ?_ignore@?BH@??sort4@SubSortQuick@physx@@QEAAXPEIAIIAEAV?$Array@URTreeNodeNQ@physx@@VNamedAllocator@shdfnd@2@@shdfnd@3@AEAIAEAUPxBounds3V@3@I@Z@4_NA 000000018005d504     RTreeCooking.obj
 0003:00000505       ?_ignore@?6??split@SubSortSAH@physx@@QEAAIPEAII@Z@4_NA 000000018005d505     RTreeCooking.obj
 0003:00000506       ?_ignore@?7??split@SubSortSAH@physx@@QEAAIPEAII@Z@4_NA 000000018005d506     RTreeCooking.obj
 0003:00000507       ?_ignore@?8??split@SubSortSAH@physx@@QEAAIPEAII@Z@4_NA 000000018005d507     RTreeCooking.obj
 0003:00000508       ?_ignore@?9??split@SubSortSAH@physx@@QEAAIPEAII@Z@4_NA 000000018005d508     RTreeCooking.obj
 0003:00000509       ?_ignore@?L@??split@SubSortSAH@physx@@QEAAIPEAII@Z@4_NA 000000018005d509     RTreeCooking.obj
 0003:0000050a       ?_ignore@?BO@??split@SubSortSAH@physx@@QEAAIPEAII@Z@4_NA 000000018005d50a     RTreeCooking.obj
 0003:0000050b       ?_ignore@?CB@??split@SubSortSAH@physx@@QEAAIPEAII@Z@4_NA 000000018005d50b     RTreeCooking.obj
 0003:0000050c       ?_ignore@?2??computeSA@SubSortSAH@physx@@QEAAMPEBIAEBUInterval@3@@Z@4_NA 000000018005d50c     RTreeCooking.obj
 0003:0000050d       ?_ignore@?BD@??sort4@SubSortSAH@physx@@QEAAXPEAIIAEAV?$Array@URTreeNodeNQ@physx@@VNamedAllocator@shdfnd@2@@shdfnd@3@AEAIIPEAURTreeNodeNQ@3@@Z@4_NA 000000018005d50d     RTreeCooking.obj
 0003:0000050e       ?_ignore@?BE@??sort4@SubSortSAH@physx@@QEAAXPEAIIAEAV?$Array@URTreeNodeNQ@physx@@VNamedAllocator@shdfnd@2@@shdfnd@3@AEAIIPEAURTreeNodeNQ@3@@Z@4_NA 000000018005d50e     RTreeCooking.obj
 0003:0000050f       ?_ignore@?BF@??sort4@SubSortSAH@physx@@QEAAXPEAIIAEAV?$Array@URTreeNodeNQ@physx@@VNamedAllocator@shdfnd@2@@shdfnd@3@AEAIIPEAURTreeNodeNQ@3@@Z@4_NA 000000018005d50f     RTreeCooking.obj
 0003:00000510       ?_ignore@?BG@??sort4@SubSortSAH@physx@@QEAAXPEAIIAEAV?$Array@URTreeNodeNQ@physx@@VNamedAllocator@shdfnd@2@@shdfnd@3@AEAIIPEAURTreeNodeNQ@3@@Z@4_NA 000000018005d510     RTreeCooking.obj
 0003:00000511       ?_ignore@?BH@??sort4@SubSortSAH@physx@@QEAAXPEAIIAEAV?$Array@URTreeNodeNQ@physx@@VNamedAllocator@shdfnd@2@@shdfnd@3@AEAIIPEAURTreeNodeNQ@3@@Z@4_NA 000000018005d511     RTreeCooking.obj
 0003:00000512       ?_ignore@?BJ@??sort4@SubSortSAH@physx@@QEAAXPEAIIAEAV?$Array@URTreeNodeNQ@physx@@VNamedAllocator@shdfnd@2@@shdfnd@3@AEAIIPEAURTreeNodeNQ@3@@Z@4_NA 000000018005d512     RTreeCooking.obj
 0003:00000513       ?_ignore@?BP@??sort4@SubSortSAH@physx@@QEAAXPEAIIAEAV?$Array@URTreeNodeNQ@physx@@VNamedAllocator@shdfnd@2@@shdfnd@3@AEAIIPEAURTreeNodeNQ@3@@Z@4_NA 000000018005d513     RTreeCooking.obj
 0003:00000514       ?_ignore@?CA@??sort4@SubSortSAH@physx@@QEAAXPEAIIAEAV?$Array@URTreeNodeNQ@physx@@VNamedAllocator@shdfnd@2@@shdfnd@3@AEAIIPEAURTreeNodeNQ@3@@Z@4_NA 000000018005d514     RTreeCooking.obj
 0003:00000515       ?_ignore@?CB@??sort4@SubSortSAH@physx@@QEAAXPEAIIAEAV?$Array@URTreeNodeNQ@physx@@VNamedAllocator@shdfnd@2@@shdfnd@3@AEAIIPEAURTreeNodeNQ@3@@Z@4_NA 000000018005d515     RTreeCooking.obj
 0003:00000516       ?_ignore@?CC@??sort4@SubSortSAH@physx@@QEAAXPEAIIAEAV?$Array@URTreeNodeNQ@physx@@VNamedAllocator@shdfnd@2@@shdfnd@3@AEAIIPEAURTreeNodeNQ@3@@Z@4_NA 000000018005d516     RTreeCooking.obj
 0003:00000517       ?_ignore@?CD@??sort4@SubSortSAH@physx@@QEAAXPEAIIAEAV?$Array@URTreeNodeNQ@physx@@VNamedAllocator@shdfnd@2@@shdfnd@3@AEAIIPEAURTreeNodeNQ@3@@Z@4_NA 000000018005d517     RTreeCooking.obj
 0003:00000518       ?_ignore@?DD@??sort4@SubSortSAH@physx@@QEAAXPEAIIAEAV?$Array@URTreeNodeNQ@physx@@VNamedAllocator@shdfnd@2@@shdfnd@3@AEAIIPEAURTreeNodeNQ@3@@Z@4_NA 000000018005d518     RTreeCooking.obj
 0003:00000519       ?_ignore@?DI@??sort4@SubSortSAH@physx@@QEAAXPEAIIAEAV?$Array@URTreeNodeNQ@physx@@VNamedAllocator@shdfnd@2@@shdfnd@3@AEAIIPEAURTreeNodeNQ@3@@Z@4_NA 000000018005d519     RTreeCooking.obj
 0003:00000522       ?_ignore@?2???A?$Array@URTreeNodeQ@Gu@physx@@VNamedAllocator@shdfnd@3@@shdfnd@physx@@QEAAAEAURTreeNodeQ@Gu@3@I@Z@4_NA 000000018005d522     RTreeCooking.obj
 0003:00000523       ?_ignore@?2??replaceWithLast@?$Array@UInterval@physx@@V?$InlineAllocator@$0CAAA@VNamedAllocator@shdfnd@physx@@@shdfnd@2@@shdfnd@physx@@QEAAXI@Z@4_NA 000000018005d523     RTreeCooking.obj
 0003:00000524       ?_ignore@?2???A?$Array@UInterval@physx@@V?$InlineAllocator@$0CAAA@VNamedAllocator@shdfnd@physx@@@shdfnd@2@@shdfnd@physx@@QEAAAEAUInterval@3@I@Z@4_NA 000000018005d524     RTreeCooking.obj
 0003:00000525       ?_ignore@?2???A?$Array@URTreeNodeNQ@physx@@VNamedAllocator@shdfnd@2@@shdfnd@physx@@QEAAAEAURTreeNodeNQ@3@I@Z@4_NA 000000018005d525     RTreeCooking.obj
 0003:00000526       ?_ignore@?2??popBack@?$Array@IVNamedAllocator@shdfnd@physx@@@shdfnd@physx@@QEAAIXZ@4_NA 000000018005d526     RTreeCooking.obj
 0003:00000527       ?_ignore@?2???A?$Array@IVNamedAllocator@shdfnd@physx@@@shdfnd@physx@@QEAAAEAII@Z@4_NA 000000018005d527     RTreeCooking.obj
 0003:00000528       ?_ignore@?2??grow@?$Array@URTreeNodeQ@Gu@physx@@VNamedAllocator@shdfnd@3@@shdfnd@physx@@IEAAXI@Z@4_NA 000000018005d528     RTreeCooking.obj
 0003:00000529       ?_ignore@?2??grow@?$Array@URTreeNodeNQ@physx@@VNamedAllocator@shdfnd@2@@shdfnd@physx@@IEAAXI@Z@4_NA 000000018005d529     RTreeCooking.obj
 0003:0000052a       ?_ignore@?2??grow@?$Array@VPxVec3@physx@@VNamedAllocator@shdfnd@2@@shdfnd@physx@@IEAAXI@Z@4_NA 000000018005d52a     RTreeCooking.obj
 0003:0000052b       ?_ignore@?2??grow@?$Array@IVNamedAllocator@shdfnd@physx@@@shdfnd@physx@@IEAAXI@Z@4_NA 000000018005d52b     RTreeCooking.obj
 0003:0000052c       ?_ignore@?2??grow@?$Array@UPxBounds3V@physx@@VNamedAllocator@shdfnd@2@@shdfnd@physx@@IEAAXI@Z@4_NA 000000018005d52c     RTreeCooking.obj
 0003:0000052d       ?_ignore@?2??growAndPushBack@?$Array@IVNamedAllocator@shdfnd@physx@@@shdfnd@physx@@IEAAAEAIAEBI@Z@4_NA 000000018005d52d     RTreeCooking.obj
 0003:0000052e       ?_ignore@?2??recreate@?$Array@IVNamedAllocator@shdfnd@physx@@@shdfnd@physx@@IEAAXI@Z@4_NA 000000018005d52e     RTreeCooking.obj
 0003:0000052f       ?_ignore@?2??growAndPushBack@?$Array@UPxBounds3V@physx@@VNamedAllocator@shdfnd@2@@shdfnd@physx@@IEAAAEAUPxBounds3V@4@AEBU54@@Z@4_NA 000000018005d52f     RTreeCooking.obj
 0003:00000530       ?_ignore@?2??recreate@?$Array@UPxBounds3V@physx@@VNamedAllocator@shdfnd@2@@shdfnd@physx@@IEAAXI@Z@4_NA 000000018005d530     RTreeCooking.obj
 0003:00000531       ?_ignore@?2??recreate@?$Array@VPxVec3@physx@@VNamedAllocator@shdfnd@2@@shdfnd@physx@@IEAAXI@Z@4_NA 000000018005d531     RTreeCooking.obj
 0003:00000532       ?_ignore@?2??growAndPushBack@?$Array@URTreeNodeNQ@physx@@VNamedAllocator@shdfnd@2@@shdfnd@physx@@IEAAAEAURTreeNodeNQ@4@AEBU54@@Z@4_NA 000000018005d532     RTreeCooking.obj
 0003:00000533       ?_ignore@?2??recreate@?$Array@URTreeNodeNQ@physx@@VNamedAllocator@shdfnd@2@@shdfnd@physx@@IEAAXI@Z@4_NA 000000018005d533     RTreeCooking.obj
 0003:00000534       ?_ignore@?2???$quickSelectFirstK@UBoundsLTE@physx@@@quickSelect@physx@@YAXPEIAIIIIAEBUBoundsLTE@2@@Z@4_NA 000000018005d534     RTreeCooking.obj
 0003:00000535       ?_ignore@?M@???$quickSelectFirstK@UBoundsLTE@physx@@@quickSelect@physx@@YAXPEIAIIIIAEBUBoundsLTE@2@@Z@4_NA 000000018005d535     RTreeCooking.obj
 0003:00000536       ?_ignore@?2??growAndPushBack@?$Array@UInterval@physx@@V?$InlineAllocator@$0CAAA@VNamedAllocator@shdfnd@physx@@@shdfnd@2@@shdfnd@physx@@IEAAAEAUInterval@4@AEBU54@@Z@4_NA 000000018005d536     RTreeCooking.obj
 0003:00000537       ?_ignore@?2??growAndPushBack@?$Array@URTreeNodeQ@Gu@physx@@VNamedAllocator@shdfnd@3@@shdfnd@physx@@IEAAAEAURTreeNodeQ@Gu@4@AEBU564@@Z@4_NA 000000018005d537     RTreeCooking.obj
 0003:00000538       ?_ignore@?2??recreate@?$Array@URTreeNodeQ@Gu@physx@@VNamedAllocator@shdfnd@3@@shdfnd@physx@@IEAAXI@Z@4_NA 000000018005d538     RTreeCooking.obj
 0003:00000539       ?_ignore@?2???$partition@UBoundsLTE@physx@@@quickSelect@physx@@YAIPEIAIIIIAEBUBoundsLTE@2@@Z@4_NA 000000018005d539     RTreeCooking.obj
 0003:0000053a       ?_ignore@?M@???$partition@UBoundsLTE@physx@@@quickSelect@physx@@YAIPEIAIIIIAEBUBoundsLTE@2@@Z@4_NA 000000018005d53a     RTreeCooking.obj
 0003:0000053b       ?_ignore@?O@???$partition@UBoundsLTE@physx@@@quickSelect@physx@@YAIPEIAIIIIAEBUBoundsLTE@2@@Z@4_NA 000000018005d53b     RTreeCooking.obj
 0003:0000053c       ?_ignore@?O@???$sort@IU?$Less@I@shdfnd@physx@@VNamedAllocator@23@@shdfnd@physx@@YAXPEAIIAEBU?$Less@I@12@AEBVNamedAllocator@12@I@Z@4_NA 000000018005d53c     RTreeCooking.obj
 0003:0000053d       ?_ignore@?BM@???$sort@IU?$Less@I@shdfnd@physx@@VNamedAllocator@23@@shdfnd@physx@@YAXPEAIIAEBU?$Less@I@12@AEBVNamedAllocator@12@I@Z@4_NA 000000018005d53d     RTreeCooking.obj
 0003:0000053e       ?_ignore@?O@???$sort@IUSortBoundsPredicate@physx@@VNamedAllocator@shdfnd@2@@shdfnd@physx@@YAXPEAIIAEBUSortBoundsPredicate@2@AEBVNamedAllocator@12@I@Z@4_NA 000000018005d53e     RTreeCooking.obj
 0003:0000053f       ?_ignore@?BM@???$sort@IUSortBoundsPredicate@physx@@VNamedAllocator@shdfnd@2@@shdfnd@physx@@YAXPEAIIAEBUSortBoundsPredicate@2@AEBVNamedAllocator@12@I@Z@4_NA 000000018005d53f     RTreeCooking.obj
 0003:00000540       ?_ignore@?2??pop@?$Stack@VNamedAllocator@shdfnd@physx@@@internal@shdfnd@physx@@QEAAXAEAH0@Z@4_NA 000000018005d540     RTreeCooking.obj
 0003:00000541       ?_ignore@?8???$partition@I$$CBU?$Less@I@shdfnd@physx@@@internal@shdfnd@physx@@YAHPEAIHHAEBU?$Less@I@23@@Z@4_NA 000000018005d541     RTreeCooking.obj
 0003:00000542       ?_ignore@?9???$partition@I$$CBU?$Less@I@shdfnd@physx@@@internal@shdfnd@physx@@YAHPEAIHHAEBU?$Less@I@23@@Z@4_NA 000000018005d542     RTreeCooking.obj
 0003:00000543       ?_ignore@?8???$partition@I$$CBUSortBoundsPredicate@physx@@@internal@shdfnd@physx@@YAHPEAIHHAEBUSortBoundsPredicate@3@@Z@4_NA 000000018005d543     RTreeCooking.obj
 0003:00000544       ?_ignore@?9???$partition@I$$CBUSortBoundsPredicate@physx@@@internal@shdfnd@physx@@YAHPEAIHHAEBUSortBoundsPredicate@3@@Z@4_NA 000000018005d544     RTreeCooking.obj
 0003:00000610       ?_ignore@?2??LeafSetData@Gu@physx@@YAIII@Z@4_NA 000000018005d610     TriangleMeshBuilder.obj
 0003:00000611       ?_ignore@?3??LeafSetData@Gu@physx@@YAIII@Z@4_NA 000000018005d611     TriangleMeshBuilder.obj
 0003:00000612       ?_ignore@?2??allocateVertices@MeshDataBase@Gu@physx@@QEAAPEAVPxVec3@4@I@Z@4_NA 000000018005d612     TriangleMeshBuilder.obj
 0003:00000613       ?_ignore@?2??allocateTriangles@TriangleMeshData@Gu@physx@@QEAAPEAXI_NI@Z@4_NA 000000018005d613     TriangleMeshBuilder.obj
 0003:00000614       ?_ignore@?3??allocateTriangles@TriangleMeshData@Gu@physx@@QEAAPEAXI_NI@Z@4_NA 000000018005d614     TriangleMeshBuilder.obj
 0003:00000615       ?_ignore@?2??allocateMaterials@TriangleMeshData@Gu@physx@@QEAAPEAGXZ@4_NA 000000018005d615     TriangleMeshBuilder.obj
 0003:00000616       ?_ignore@?3??allocateMaterials@TriangleMeshData@Gu@physx@@QEAAPEAGXZ@4_NA 000000018005d616     TriangleMeshBuilder.obj
 0003:00000617       ?_ignore@?2??setTriangleAdjacency@TriangleMeshData@Gu@physx@@QEAAXIII@Z@4_NA 000000018005d617     TriangleMeshBuilder.obj
 0003:00000618       ?_ignore@?2??to16@shdfnd@physx@@YAGI@Z@4_NA 000000018005d618     TriangleMeshBuilder.obj
 0003:0000062e       ?_ignore@?2??remap@RTreeCookerRemap@physx@@UEAAXPEAIII@Z@4_NA 000000018005d62e     TriangleMeshBuilder.obj
 0003:0000062f       ?_ignore@?3??remap@RTreeCookerRemap@physx@@UEAAXPEAIII@Z@4_NA 000000018005d62f     TriangleMeshBuilder.obj
 0003:00000630       ?_ignore@?4??remap@RTreeCookerRemap@physx@@UEAAXPEAIII@Z@4_NA 000000018005d630     TriangleMeshBuilder.obj
 0003:00000631       ?_ignore@?5??remap@RTreeCookerRemap@physx@@UEAAXPEAIII@Z@4_NA 000000018005d631     TriangleMeshBuilder.obj
 0003:00000632       ?_ignore@?6??remap@RTreeCookerRemap@physx@@UEAAXPEAIII@Z@4_NA 000000018005d632     TriangleMeshBuilder.obj
 0003:00000634       ?_ignore@?2???A?$Array@USharpEdgeRange@GrbTrimeshCookerHelper@physx@@VNamedAllocator@shdfnd@3@@shdfnd@physx@@QEAAAEAUSharpEdgeRange@GrbTrimeshCookerHelper@3@I@Z@4_NA 000000018005d634     TriangleMeshBuilder.obj
 0003:00000635       ?_ignore@?2???A?$Array@USortedNeighbor@GrbTrimeshCookerHelper@physx@@VNamedAllocator@shdfnd@3@@shdfnd@physx@@QEAAAEAUSortedNeighbor@GrbTrimeshCookerHelper@3@I@Z@4_NA 000000018005d635     TriangleMeshBuilder.obj
 0003:00000636       ?_ignore@?2??growAndPushBack@?$Array@USortedNeighbor@GrbTrimeshCookerHelper@physx@@VNamedAllocator@shdfnd@3@@shdfnd@physx@@IEAAAEAUSortedNeighbor@GrbTrimeshCookerHelper@4@AEBU564@@Z@4_NA 000000018005d636     TriangleMeshBuilder.obj
 0003:00000637       ?_ignore@?2??grow@?$Array@USharpEdgeRange@GrbTrimeshCookerHelper@physx@@VNamedAllocator@shdfnd@3@@shdfnd@physx@@IEAAXI@Z@4_NA 000000018005d637     TriangleMeshBuilder.obj
 0003:00000638       ?_ignore@?2??grow@?$Array@USortedNeighbor@GrbTrimeshCookerHelper@physx@@VNamedAllocator@shdfnd@3@@shdfnd@physx@@IEAAXI@Z@4_NA 000000018005d638     TriangleMeshBuilder.obj
 0003:00000639       ?_ignore@?2??recreate@?$Array@USortedNeighbor@GrbTrimeshCookerHelper@physx@@VNamedAllocator@shdfnd@3@@shdfnd@physx@@IEAAXI@Z@4_NA 000000018005d639     TriangleMeshBuilder.obj
 0003:0000063a       ?_ignore@?2??recreate@?$Array@USharpEdgeRange@GrbTrimeshCookerHelper@physx@@VNamedAllocator@shdfnd@3@@shdfnd@physx@@IEAAXI@Z@4_NA 000000018005d63a     TriangleMeshBuilder.obj
 0003:0000063b       ?_ignore@?O@???$sort@UEdgeTriLookup@physx@@U?$Less@UEdgeTriLookup@physx@@@shdfnd@2@VNamedAllocator@42@@shdfnd@physx@@YAXPEAUEdgeTriLookup@2@IAEBU?$Less@UEdgeTriLookup@physx@@@12@AEBVNamedAllocator@12@I@Z@4_NA 000000018005d63b     TriangleMeshBuilder.obj
 0003:0000063c       ?_ignore@?BM@???$sort@UEdgeTriLookup@physx@@U?$Less@UEdgeTriLookup@physx@@@shdfnd@2@VNamedAllocator@42@@shdfnd@physx@@YAXPEAUEdgeTriLookup@2@IAEBU?$Less@UEdgeTriLookup@physx@@@12@AEBVNamedAllocator@12@I@Z@4_NA 000000018005d63c     TriangleMeshBuilder.obj
 0003:0000063d       ?_ignore@?O@???$sort@USortedNeighbor@GrbTrimeshCookerHelper@physx@@U?$Less@USortedNeighbor@GrbTrimeshCookerHelper@physx@@@shdfnd@3@VNamedAllocator@53@@shdfnd@physx@@YAXPEAUSortedNeighbor@GrbTrimeshCookerHelper@2@IAEBU?$Less@USortedNeighbor@GrbTrimeshCookerHelper@physx@@@12@AEBVNamedAllocator@12@I@Z@4_NA 000000018005d63d     TriangleMeshBuilder.obj
 0003:0000063e       ?_ignore@?BM@???$sort@USortedNeighbor@GrbTrimeshCookerHelper@physx@@U?$Less@USortedNeighbor@GrbTrimeshCookerHelper@physx@@@shdfnd@3@VNamedAllocator@53@@shdfnd@physx@@YAXPEAUSortedNeighbor@GrbTrimeshCookerHelper@2@IAEBU?$Less@USortedNeighbor@GrbTrimeshCookerHelper@physx@@@12@AEBVNamedAllocator@12@I@Z@4_NA 000000018005d63e     TriangleMeshBuilder.obj
 0003:0000063f       ?_ignore@?8???$partition@UEdgeTriLookup@physx@@$$CBU?$Less@UEdgeTriLookup@physx@@@shdfnd@2@@internal@shdfnd@physx@@YAHPEAUEdgeTriLookup@3@HHAEBU?$Less@UEdgeTriLookup@physx@@@23@@Z@4_NA 000000018005d63f     TriangleMeshBuilder.obj
 0003:00000640       ?_ignore@?9???$partition@UEdgeTriLookup@physx@@$$CBU?$Less@UEdgeTriLookup@physx@@@shdfnd@2@@internal@shdfnd@physx@@YAHPEAUEdgeTriLookup@3@HHAEBU?$Less@UEdgeTriLookup@physx@@@23@@Z@4_NA 000000018005d640     TriangleMeshBuilder.obj
 0003:00000641       ?_ignore@?8???$partition@USortedNeighbor@GrbTrimeshCookerHelper@physx@@$$CBU?$Less@USortedNeighbor@GrbTrimeshCookerHelper@physx@@@shdfnd@3@@internal@shdfnd@physx@@YAHPEAUSortedNeighbor@GrbTrimeshCookerHelper@3@HHAEBU?$Less@USortedNeighbor@GrbTrimeshCookerHelper@physx@@@23@@Z@4_NA 000000018005d641     TriangleMeshBuilder.obj
 0003:00000642       ?_ignore@?9???$partition@USortedNeighbor@GrbTrimeshCookerHelper@physx@@$$CBU?$Less@USortedNeighbor@GrbTrimeshCookerHelper@physx@@@shdfnd@3@@internal@shdfnd@physx@@YAHPEAUSortedNeighbor@GrbTrimeshCookerHelper@3@HHAEBU?$Less@USortedNeighbor@GrbTrimeshCookerHelper@physx@@@23@@Z@4_NA 000000018005d642     TriangleMeshBuilder.obj
 0003:000006b4       ?_ignore@?2??to8@shdfnd@physx@@YAEI@Z@4_NA 000000018005d6b4     ConvexHullBuilder.obj
 0003:000006b5       ?_ignore@?2??computeNbPolygons@ConvexHullBuilder@physx@@QEBAIXZ@4_NA 000000018005d6b5     ConvexHullBuilder.obj
 0003:00000734       ?_ignore@?2??to8@shdfnd@physx@@YAEG@Z@4_NA 000000018005d734     ConvexHullUtils.obj
 0003:000007b0       ?_ignore@?2??FAdd@aos@shdfnd@physx@@YA?AT__m128@@T5@0@Z@4_NA 000000018005d7b0     ConvexHullUtils.obj
 0003:000007b1       ?_ignore@?3??FAdd@aos@shdfnd@physx@@YA?AT__m128@@T5@0@Z@4_NA 000000018005d7b1     ConvexHullUtils.obj
 0003:000007b2       ?_ignore@?2??FMul@aos@shdfnd@physx@@YA?AT__m128@@T5@0@Z@4_NA 000000018005d7b2     ConvexHullUtils.obj
 0003:000007b3       ?_ignore@?3??FMul@aos@shdfnd@physx@@YA?AT__m128@@T5@0@Z@4_NA 000000018005d7b3     ConvexHullUtils.obj
 0003:000007b4       ?_ignore@?2??FScaleAdd@aos@shdfnd@physx@@YA?AT__m128@@T5@00@Z@4_NA 000000018005d7b4     ConvexHullUtils.obj
 0003:000007b5       ?_ignore@?3??FScaleAdd@aos@shdfnd@physx@@YA?AT__m128@@T5@00@Z@4_NA 000000018005d7b5     ConvexHullUtils.obj
 0003:000007b6       ?_ignore@?4??FScaleAdd@aos@shdfnd@physx@@YA?AT__m128@@T5@00@Z@4_NA 000000018005d7b6     ConvexHullUtils.obj
 0003:000007b7       ?_ignore@?2??V3Scale@aos@shdfnd@physx@@YA?AT__m128@@T5@0@Z@4_NA 000000018005d7b7     ConvexHullUtils.obj
 0003:000007b8       ?_ignore@?3??V3Scale@aos@shdfnd@physx@@YA?AT__m128@@T5@0@Z@4_NA 000000018005d7b8     ConvexHullUtils.obj
 0003:000007b9       ?_ignore@?2??V3ScaleAdd@aos@shdfnd@physx@@YA?AT__m128@@T5@00@Z@4_NA 000000018005d7b9     ConvexHullUtils.obj
 0003:000007ba       ?_ignore@?3??V3ScaleAdd@aos@shdfnd@physx@@YA?AT__m128@@T5@00@Z@4_NA 000000018005d7ba     ConvexHullUtils.obj
 0003:000007bb       ?_ignore@?4??V3ScaleAdd@aos@shdfnd@physx@@YA?AT__m128@@T5@00@Z@4_NA 000000018005d7bb     ConvexHullUtils.obj
 0003:000007bc       ?_ignore@?2??V3NegScaleSub@aos@shdfnd@physx@@YA?AT__m128@@T5@00@Z@4_NA 000000018005d7bc     ConvexHullUtils.obj
 0003:000007bd       ?_ignore@?3??V3NegScaleSub@aos@shdfnd@physx@@YA?AT__m128@@T5@00@Z@4_NA 000000018005d7bd     ConvexHullUtils.obj
 0003:000007be       ?_ignore@?4??V3NegScaleSub@aos@shdfnd@physx@@YA?AT__m128@@T5@00@Z@4_NA 000000018005d7be     ConvexHullUtils.obj
 0003:000007bf       ?_ignore@?2??V3Cross@aos@shdfnd@physx@@YA?AT__m128@@T5@0@Z@4_NA 000000018005d7bf     ConvexHullUtils.obj
 0003:000007c0       ?_ignore@?3??V3Cross@aos@shdfnd@physx@@YA?AT__m128@@T5@0@Z@4_NA 000000018005d7c0     ConvexHullUtils.obj
 0003:000007d3       ?_ignore@?2???A?$Array@VPxPlane@physx@@VNamedAllocator@shdfnd@2@@shdfnd@physx@@QEBAAEBVPxPlane@3@I@Z@4_NA 000000018005d7d3     ConvexHullUtils.obj
 0003:000007d4       ?_ignore@?2???A?$Array@VHalfEdge@ConvexHull@physx@@VNamedAllocator@shdfnd@3@@shdfnd@physx@@QEAAAEAVHalfEdge@ConvexHull@3@I@Z@4_NA 000000018005d7d4     ConvexHullUtils.obj
 0003:000007d5       ?_ignore@?2???A?$Array@VHalfEdge@ConvexHull@physx@@VNamedAllocator@shdfnd@3@@shdfnd@physx@@QEBAAEBVHalfEdge@ConvexHull@3@I@Z@4_NA 000000018005d7d5     ConvexHullUtils.obj
 0003:000007d6       ?_ignore@?2???A?$Array@VPxVec3@physx@@VNamedAllocator@shdfnd@2@@shdfnd@physx@@QEBAAEBVPxVec3@3@I@Z@4_NA 000000018005d7d6     ConvexHullUtils.obj
 0003:000007d7       ?_ignore@?2??growAndPushBack@?$Array@VPxPlane@physx@@VNamedAllocator@shdfnd@2@@shdfnd@physx@@IEAAAEAVPxPlane@4@AEBV54@@Z@4_NA 000000018005d7d7     ConvexHullUtils.obj
 0003:000007d8       ?_ignore@?2??growAndPushBack@?$Array@VHalfEdge@ConvexHull@physx@@VNamedAllocator@shdfnd@3@@shdfnd@physx@@IEAAAEAVHalfEdge@ConvexHull@4@AEBV564@@Z@4_NA 000000018005d7d8     ConvexHullUtils.obj
 0003:000007d9       ?_ignore@?2??grow@?$Array@VPxPlane@physx@@VNamedAllocator@shdfnd@2@@shdfnd@physx@@IEAAXI@Z@4_NA 000000018005d7d9     ConvexHullUtils.obj
 0003:000007da       ?_ignore@?2??grow@?$Array@VHalfEdge@ConvexHull@physx@@VNamedAllocator@shdfnd@3@@shdfnd@physx@@IEAAXI@Z@4_NA 000000018005d7da     ConvexHullUtils.obj
 0003:000007db       ?_ignore@?2??recreate@?$Array@VPxPlane@physx@@VNamedAllocator@shdfnd@2@@shdfnd@physx@@IEAAXI@Z@4_NA 000000018005d7db     ConvexHullUtils.obj
 0003:000007dc       ?_ignore@?2??recreate@?$Array@VHalfEdge@ConvexHull@physx@@VNamedAllocator@shdfnd@3@@shdfnd@physx@@IEAAXI@Z@4_NA 000000018005d7dc     ConvexHullUtils.obj
 0003:00000853       ?_ignore@?2??forceSize_Unsafe@?$Array@IVNamedAllocator@shdfnd@physx@@@shdfnd@physx@@QEAAXI@Z@4_NA 000000018005d853     ConvexPolygonsBuilder.obj
 0003:00000854       ?_ignore@?2??remove@?$Array@IVNamedAllocator@shdfnd@physx@@@shdfnd@physx@@QEAAXI@Z@4_NA 000000018005d854     ConvexPolygonsBuilder.obj
 0003:00000855       ?_ignore@?2??remove@?$Array@VPair@@VNamedAllocator@shdfnd@physx@@@shdfnd@physx@@QEAAXI@Z@4_NA 000000018005d855     ConvexPolygonsBuilder.obj
 0003:00000856       ?_ignore@?2???A?$Array@VPair@@VNamedAllocator@shdfnd@physx@@@shdfnd@physx@@QEAAAEAVPair@@I@Z@4_NA 000000018005d856     ConvexPolygonsBuilder.obj
 0003:00000857       ?_ignore@?2??growAndPushBack@?$Array@VPair@@VNamedAllocator@shdfnd@physx@@@shdfnd@physx@@IEAAAEAVPair@@AEBV5@@Z@4_NA 000000018005d857     ConvexPolygonsBuilder.obj
 0003:0000085c       ?_ignore@?2??getHead@QuickHullHalfEdge@local@@QEBAAEBUQuickHullVertex@3@XZ@4_NA 000000018005d85c     QuickHullConvexHullLib.obj
 0003:0000085d       ?_ignore@?2??computeNormalAndCentroid@QuickHullFace@local@@QEAAXXZ@4_NA 000000018005d85d     QuickHullConvexHullLib.obj
 0003:0000085e       ?_ignore@?8??computeNormalAndCentroid@QuickHullFace@local@@QEAAXXZ@4_NA 000000018005d85e     QuickHullConvexHullLib.obj
 0003:0000087f       ?_ignore@?2???A?$Array@UExpandPoint@local@@VNamedAllocator@shdfnd@physx@@@shdfnd@physx@@QEAAAEAUExpandPoint@local@@I@Z@4_NA 000000018005d87f     QuickHullConvexHullLib.obj
 0003:00000880       ?_ignore@?2???A?$Array@IVNamedAllocator@shdfnd@physx@@@shdfnd@physx@@QEBAAEBII@Z@4_NA 000000018005d880     QuickHullConvexHullLib.obj
 0003:00000881       ?_ignore@?2???A?$Array@PEAUQuickHullVertex@local@@VNamedAllocator@shdfnd@physx@@@shdfnd@physx@@QEAAAEAPEAUQuickHullVertex@local@@I@Z@4_NA 000000018005d881     QuickHullConvexHullLib.obj
 0003:00000882       ?_ignore@?2???A?$Array@PEAUQuickHullFace@local@@VNamedAllocator@shdfnd@physx@@@shdfnd@physx@@QEAAAEAPEAUQuickHullFace@local@@I@Z@4_NA 000000018005d882     QuickHullConvexHullLib.obj
 0003:00000883       ?_ignore@?2???A?$Array@PEAUQuickHullFace@local@@VNamedAllocator@shdfnd@physx@@@shdfnd@physx@@QEBAAEBQEAUQuickHullFace@local@@I@Z@4_NA 000000018005d883     QuickHullConvexHullLib.obj
 0003:00000884       ?_ignore@?2??getFreeItem@?$MemBlock@UQuickHullFace@local@@$00@local@@QEAAPEAUQuickHullFace@3@XZ@4_NA 000000018005d884     QuickHullConvexHullLib.obj
 0003:00000885       ?_ignore@?2??getItem@?$MemBlock@UQuickHullFace@local@@$00@local@@QEAAPEAUQuickHullFace@3@I@Z@4_NA 000000018005d885     QuickHullConvexHullLib.obj
 0003:00000886       ?_ignore@?3??getItem@?$MemBlock@UQuickHullFace@local@@$00@local@@QEAAPEAUQuickHullFace@3@I@Z@4_NA 000000018005d886     QuickHullConvexHullLib.obj
 0003:00000887       ?_ignore@?2??init@?$MemBlock@UQuickHullFace@local@@$00@local@@QEAAXI@Z@4_NA 000000018005d887     QuickHullConvexHullLib.obj
 0003:00000888       ?_ignore@?2???A?$Array@PEAUQuickHullHalfEdge@local@@VNamedAllocator@shdfnd@physx@@@shdfnd@physx@@QEBAAEBQEAUQuickHullHalfEdge@local@@I@Z@4_NA 000000018005d888     QuickHullConvexHullLib.obj
 0003:00000889       ?_ignore@?2??getFreeItem@?$MemBlock@UQuickHullHalfEdge@local@@$0A@@local@@QEAAPEAUQuickHullHalfEdge@3@XZ@4_NA 000000018005d889     QuickHullConvexHullLib.obj
 0003:0000088a       ?_ignore@?2??init@?$MemBlock@UQuickHullHalfEdge@local@@$0A@@local@@QEAAXI@Z@4_NA 000000018005d88a     QuickHullConvexHullLib.obj
 0003:0000088b       ?_ignore@?2???A?$Array@VPxPlane@physx@@VNamedAllocator@shdfnd@2@@shdfnd@physx@@QEAAAEAVPxPlane@3@I@Z@4_NA 000000018005d88b     QuickHullConvexHullLib.obj
 0003:0000088c       ?_ignore@?2??grow@?$Array@UExpandPoint@local@@VNamedAllocator@shdfnd@physx@@@shdfnd@physx@@IEAAXI@Z@4_NA 000000018005d88c     QuickHullConvexHullLib.obj
 0003:0000088d       ?_ignore@?2??grow@?$Array@PEAUQuickHullVertex@local@@VNamedAllocator@shdfnd@physx@@@shdfnd@physx@@IEAAXI@Z@4_NA 000000018005d88d     QuickHullConvexHullLib.obj
 0003:0000088e       ?_ignore@?2??grow@?$Array@PEAUQuickHullFace@local@@VNamedAllocator@shdfnd@physx@@@shdfnd@physx@@IEAAXI@Z@4_NA 000000018005d88e     QuickHullConvexHullLib.obj
 0003:0000088f       ?_ignore@?2??grow@?$Array@PEAUQuickHullHalfEdge@local@@VNamedAllocator@shdfnd@physx@@@shdfnd@physx@@IEAAXI@Z@4_NA 000000018005d88f     QuickHullConvexHullLib.obj
 0003:00000890       ?_ignore@?2???A?$Array@PEAUQuickHullHalfEdge@local@@VNamedAllocator@shdfnd@physx@@@shdfnd@physx@@QEAAAEAPEAUQuickHullHalfEdge@local@@I@Z@4_NA 000000018005d890     QuickHullConvexHullLib.obj
 0003:00000891       ?_ignore@?2??growAndPushBack@?$Array@PEAUQuickHullVertex@local@@VNamedAllocator@shdfnd@physx@@@shdfnd@physx@@IEAAAEAPEAUQuickHullVertex@local@@AEBQEAU56@@Z@4_NA 000000018005d891     QuickHullConvexHullLib.obj
 0003:00000892       ?_ignore@?2??recreate@?$Array@PEAUQuickHullVertex@local@@VNamedAllocator@shdfnd@physx@@@shdfnd@physx@@IEAAXI@Z@4_NA 000000018005d892     QuickHullConvexHullLib.obj
 0003:00000893       ?_ignore@?2??growAndPushBack@?$Array@PEAUQuickHullHalfEdge@local@@VNamedAllocator@shdfnd@physx@@@shdfnd@physx@@IEAAAEAPEAUQuickHullHalfEdge@local@@AEBQEAU56@@Z@4_NA 000000018005d893     QuickHullConvexHullLib.obj
 0003:00000894       ?_ignore@?2??recreate@?$Array@PEAUQuickHullHalfEdge@local@@VNamedAllocator@shdfnd@physx@@@shdfnd@physx@@IEAAXI@Z@4_NA 000000018005d894     QuickHullConvexHullLib.obj
 0003:00000895       ?_ignore@?2??growAndPushBack@?$Array@PEAUQuickHullFace@local@@VNamedAllocator@shdfnd@physx@@@shdfnd@physx@@IEAAAEAPEAUQuickHullFace@local@@AEBQEAU56@@Z@4_NA 000000018005d895     QuickHullConvexHullLib.obj
 0003:00000896       ?_ignore@?2??recreate@?$Array@PEAUQuickHullFace@local@@VNamedAllocator@shdfnd@physx@@@shdfnd@physx@@IEAAXI@Z@4_NA 000000018005d896     QuickHullConvexHullLib.obj
 0003:00000897       ?_ignore@?2??growAndPushBack@?$Array@UExpandPoint@local@@VNamedAllocator@shdfnd@physx@@@shdfnd@physx@@IEAAAEAUExpandPoint@local@@AEBU56@@Z@4_NA 000000018005d897     QuickHullConvexHullLib.obj
 0003:00000898       ?_ignore@?2??recreate@?$Array@UExpandPoint@local@@VNamedAllocator@shdfnd@physx@@@shdfnd@physx@@IEAAXI@Z@4_NA 000000018005d898     QuickHullConvexHullLib.obj
 0003:00000900       ?_ignore@?2??FAllGrtr@aos@shdfnd@physx@@YAIT__m128@@0@Z@4_NA 000000018005d900     VolumeIntegration.obj
 0003:00000901       ?_ignore@?3??FAllGrtr@aos@shdfnd@physx@@YAIT__m128@@0@Z@4_NA 000000018005d901     VolumeIntegration.obj
 0003:00000902       ?_ignore@?2??V4ScaleInv@aos@shdfnd@physx@@YA?AT__m128@@T5@0@Z@4_NA 000000018005d902     VolumeIntegration.obj
 0003:00000920       ?__type_info_root_node@@3U__type_info_node@@A 000000018005d920     MSVCRTD:tncleanup.obj
 0003:00000948       ?_OptionsStorage@?1??__local_stdio_printf_options@@9@4_KA 000000018005d948     MSVCRTD:default_local_stdio_options.obj
 0003:00000950       ?_OptionsStorage@?1??__local_stdio_scanf_options@@9@4_KA 000000018005d950     MSVCRTD:default_local_stdio_options.obj
 0003:00000958       __scrt_current_native_startup_state 000000018005d958     MSVCRTD:utility.obj
 0003:00000960       __scrt_native_startup_lock 000000018005d960     MSVCRTD:utility.obj
 0003:000009a0       __scrt_debugger_hook_flag  000000018005d9a0     MSVCRTD:utility_desktop.obj
 0003:000009a8       __castguard_check_failure_os_handled_fptr 000000018005d9a8     MSVCRTD:guard_support.obj
 0003:000009b0       __favor                    000000018005d9b0     MSVCRTD:cpu_disp.obj
 0003:00000f40       __dyn_tls_init_callback    000000018005df40     <common>

 entry point at        0001:0004d0b0

 Static symbols

 0000:fff9c000       .debug$S                   0000000180000000     PhysXCooking_64.exp
 0002:fffaf000       $unwind$??0PxBounds3@physx@@QEAA@XZ 0000000180000000     BVHStructureBuilder.obj
 0002:fffaf000       $unwind$??1PxConvexMesh@physx@@MEAA@XZ 0000000180000000     BVHStructureBuilder.obj
 0002:fffaf000       $unwind$??1PxHeightField@physx@@MEAA@XZ 0000000180000000     BVHStructureBuilder.obj
 0002:fffaf000       $unwind$??B?$PxFlags@W4Enum@PxBaseFlag@physx@@G@physx@@QEBA_NXZ 0000000180000000     BVHStructureBuilder.obj
 0002:fffaf000       $unwind$??I?$PxFlags@W4Enum@PxBaseFlag@physx@@G@physx@@QEBA?AV01@W4Enum@PxBaseFlag@1@@Z 0000000180000000     BVHStructureBuilder.obj
 0002:fffaf000       $unwind$??_EPxConvexMesh@physx@@MEAAPEAXI@Z 0000000180000000     BVHStructureBuilder.obj
 0002:fffaf000       $unwind$??_EPxFoundation@physx@@MEAAPEAXI@Z 0000000180000000     BVHStructureBuilder.obj
 0002:fffaf000       $unwind$??_EPxHeightField@physx@@MEAAPEAXI@Z 0000000180000000     BVHStructureBuilder.obj
 0002:fffaf000       $unwind$??_FAllocator@shdfnd@physx@@QEAAXXZ 0000000180000000     BVHStructureBuilder.obj
 0002:fffaf000       $unwind$??_FNamedAllocator@shdfnd@physx@@QEAAXXZ 0000000180000000     BVHStructureBuilder.obj
 0002:fffaf000       $unwind$??_GPxBase@physx@@MEAAPEAXI@Z 0000000180000000     BVHStructureBuilder.obj
 0002:fffaf000       $unwind$??_GPxFoundation@physx@@MEAAPEAXI@Z 0000000180000000     BVHStructureBuilder.obj
 0002:fffaf000       $unwind$??_I@YAXPEAX_K1P6AX0@Z@Z 0000000180000000     BVHStructureBuilder.obj
 0002:fffaf000       $unwind$?FLoad@aos@shdfnd@physx@@YA?AT__m128@@M@Z 0000000180000000     BVHStructureBuilder.obj
 0002:fffaf000       $unwind$?V3Load@aos@shdfnd@physx@@YA?AT__m128@@M@Z 0000000180000000     BVHStructureBuilder.obj
 0002:fffaf000       $unwind$?V4Load@aos@shdfnd@physx@@YA?AT__m128@@M@Z 0000000180000000     BVHStructureBuilder.obj
 0002:fffaf000       $unwind$?deallocate@NonTrackingAllocator@shdfnd@physx@@QEAAXPEAX@Z 0000000180000000     BVHStructureBuilder.obj
 0002:fffaf000       $unwind$?isKindOf@PxBase@physx@@MEBA_NPEBD@Z 0000000180000000     BVHStructureBuilder.obj
 0002:fffaf000       $unwind$?isKindOf@PxConvexMesh@physx@@MEBA_NPEBD@Z 0000000180000000     BVHStructureBuilder.obj
 0002:fffaf000       $unwind$?isKindOf@PxHeightField@physx@@MEBA_NPEBD@Z 0000000180000000     BVHStructureBuilder.obj
 0002:fffaf000       $unwind$?isReleasable@PxBase@physx@@UEBA_NXZ 0000000180000000     BVHStructureBuilder.obj
 0002:fffaf000       $unwind$??$?_UE@@YAPEAX_KV?$ReflectionAllocator@E@shdfnd@physx@@PEBDH@Z 0000000180000000     BigConvexDataBuilder.obj
 0002:fffaf000       $unwind$??$?_UG@@YAPEAX_KV?$ReflectionAllocator@G@shdfnd@physx@@PEBDH@Z 0000000180000000     BigConvexDataBuilder.obj
 0002:fffaf000       $unwind$??1PxConvexMesh@physx@@MEAA@XZ 0000000180000000     BigConvexDataBuilder.obj
 0002:fffaf000       $unwind$??B?$PxFlags@W4Enum@PxBaseFlag@physx@@G@physx@@QEBA_NXZ 0000000180000000     BigConvexDataBuilder.obj
 0002:fffaf000       $unwind$??I?$PxFlags@W4Enum@PxBaseFlag@physx@@G@physx@@QEBA?AV01@W4Enum@PxBaseFlag@1@@Z 0000000180000000     BigConvexDataBuilder.obj
 0002:fffaf000       $unwind$??_EPxConvexMesh@physx@@MEAAPEAXI@Z 0000000180000000     BigConvexDataBuilder.obj
 0002:fffaf000       $unwind$??_EPxFoundation@physx@@MEAAPEAXI@Z 0000000180000000     BigConvexDataBuilder.obj
 0002:fffaf000       $unwind$??_FAllocator@shdfnd@physx@@QEAAXXZ 0000000180000000     BigConvexDataBuilder.obj
 0002:fffaf000       $unwind$??_FNamedAllocator@shdfnd@physx@@QEAAXXZ 0000000180000000     BigConvexDataBuilder.obj
 0002:fffaf000       $unwind$??_GPxBase@physx@@MEAAPEAXI@Z 0000000180000000     BigConvexDataBuilder.obj
 0002:fffaf000       $unwind$??_GPxFoundation@physx@@MEAAPEAXI@Z 0000000180000000     BigConvexDataBuilder.obj
 0002:fffaf000       $unwind$??_I@YAXPEAX_K1P6AX0@Z@Z 0000000180000000     BigConvexDataBuilder.obj
 0002:fffaf000       $unwind$?FLoad@aos@shdfnd@physx@@YA?AT__m128@@M@Z 0000000180000000     BigConvexDataBuilder.obj
 0002:fffaf000       $unwind$?PxMemZero@physx@@YAPEAXPEAXI@Z 0000000180000000     BigConvexDataBuilder.obj
 0002:fffaf000       $unwind$?PxSqrt@physx@@YAMM@Z 0000000180000000     BigConvexDataBuilder.obj
 0002:fffaf000       $unwind$?V3Load@aos@shdfnd@physx@@YA?AT__m128@@M@Z 0000000180000000     BigConvexDataBuilder.obj
 0002:fffaf000       $unwind$?V4Load@aos@shdfnd@physx@@YA?AT__m128@@M@Z 0000000180000000     BigConvexDataBuilder.obj
 0002:fffaf000       $unwind$?__global_array_delete@@YAXPEAX@Z 0000000180000000     BigConvexDataBuilder.obj
 0002:fffaf000       $unwind$?__global_array_delete@@YAXPEAX_K@Z 0000000180000000     BigConvexDataBuilder.obj
 0002:fffaf000       $unwind$?__global_delete@@YAXPEAX@Z 0000000180000000     BigConvexDataBuilder.obj
 0002:fffaf000       $unwind$?__global_delete@@YAXPEAX_K@Z 0000000180000000     BigConvexDataBuilder.obj
 0002:fffaf000       $unwind$?allocate@?$ReflectionAllocator@E@shdfnd@physx@@QEAAPEAX_KPEBDH@Z 0000000180000000     BigConvexDataBuilder.obj
 0002:fffaf000       $unwind$?allocate@?$ReflectionAllocator@G@shdfnd@physx@@QEAAPEAX_KPEBDH@Z 0000000180000000     BigConvexDataBuilder.obj
 0002:fffaf000       $unwind$?deallocate@NonTrackingAllocator@shdfnd@physx@@QEAAXPEAX@Z 0000000180000000     BigConvexDataBuilder.obj
 0002:fffaf000       $unwind$?getName@?$ReflectionAllocator@E@shdfnd@physx@@CAPEBDXZ 0000000180000000     BigConvexDataBuilder.obj
 0002:fffaf000       $unwind$?getName@?$ReflectionAllocator@G@shdfnd@physx@@CAPEBDXZ 0000000180000000     BigConvexDataBuilder.obj
 0002:fffaf000       $unwind$?isKindOf@PxBase@physx@@MEBA_NPEBD@Z 0000000180000000     BigConvexDataBuilder.obj
 0002:fffaf000       $unwind$?isKindOf@PxConvexMesh@physx@@MEBA_NPEBD@Z 0000000180000000     BigConvexDataBuilder.obj
 0002:fffaf000       $unwind$?isReleasable@PxBase@physx@@UEBA_NXZ 0000000180000000     BigConvexDataBuilder.obj
 0002:fffaf000       $unwind$?magnitude@PxVec3@physx@@QEBAMXZ 0000000180000000     BigConvexDataBuilder.obj
 0002:fffaf000       $unwind$?memZero@intrinsics@physx@@YAPEAXPEAXI@Z 0000000180000000     BigConvexDataBuilder.obj
 0002:fffaf000       $unwind$?name@type_info@@QEBAPEBDXZ 0000000180000000     BigConvexDataBuilder.obj
 0002:fffaf000       $unwind$?normalize@PxVec3@physx@@QEAAMXZ 0000000180000000     BigConvexDataBuilder.obj
 0002:fffaf000       $unwind$?sqrt@intrinsics@physx@@YAMM@Z 0000000180000000     BigConvexDataBuilder.obj
 0002:fffaf000       $unwind$?to16@shdfnd@physx@@YAGI@Z 0000000180000000     BigConvexDataBuilder.obj
 0002:fffaf000       $unwind$??$?_UE@@YAPEAX_KV?$ReflectionAllocator@E@shdfnd@physx@@PEBDH@Z 0000000180000000     ConvexHullBuilder.obj
 0002:fffaf000       $unwind$??$?_UG@@YAPEAX_KV?$ReflectionAllocator@G@shdfnd@physx@@PEBDH@Z 0000000180000000     ConvexHullBuilder.obj
 0002:fffaf000       $unwind$??$?_UI@@YAPEAX_KV?$ReflectionAllocator@I@shdfnd@physx@@PEBDH@Z 0000000180000000     ConvexHullBuilder.obj
 0002:fffaf000       $unwind$??$PxMax@I@physx@@YAIII@Z 0000000180000000     ConvexHullBuilder.obj
 0002:fffaf000       $unwind$??$PxMax@M@physx@@YAMMM@Z 0000000180000000     ConvexHullBuilder.obj
 0002:fffaf000       $unwind$??$swap@I@shdfnd@physx@@YAXAEAI0@Z 0000000180000000     ConvexHullBuilder.obj
 0002:fffaf000       $unwind$??0DebugText@Cm@physx@@QEAA@$$QEAU012@@Z 0000000180000000     ConvexHullBuilder.obj
 0002:fffaf000       $unwind$??0DebugText@Cm@physx@@QEAA@AEBU012@@Z 0000000180000000     ConvexHullBuilder.obj
 0002:fffaf000       $unwind$??0PxDebugLine@physx@@QEAA@AEBU01@@Z 0000000180000000     ConvexHullBuilder.obj
 0002:fffaf000       $unwind$??0PxMat44@physx@@QEAA@AEBV01@@Z 0000000180000000     ConvexHullBuilder.obj
 0002:fffaf000       $unwind$??0PxMat44@physx@@QEAA@W4PxIDENTITY@1@@Z 0000000180000000     ConvexHullBuilder.obj
 0002:fffaf000       $unwind$??0RenderOutput@Cm@physx@@QEAA@AEAVRenderBuffer@12@@Z 0000000180000000     ConvexHullBuilder.obj
 0002:fffaf000       $unwind$??0RenderOutput@Cm@physx@@QEAA@AEBV012@@Z 0000000180000000     ConvexHullBuilder.obj
 0002:fffaf000       $unwind$??1PxConvexMesh@physx@@MEAA@XZ 0000000180000000     ConvexHullBuilder.obj
 0002:fffaf000       $unwind$??4DebugText@Cm@physx@@QEAAAEAU012@$$QEAU012@@Z 0000000180000000     ConvexHullBuilder.obj
 0002:fffaf000       $unwind$??4DebugText@Cm@physx@@QEAAAEAU012@AEBU012@@Z 0000000180000000     ConvexHullBuilder.obj
 0002:fffaf000       $unwind$??B?$PxFlags@W4Enum@PxBaseFlag@physx@@G@physx@@QEBA_NXZ 0000000180000000     ConvexHullBuilder.obj
 0002:fffaf000       $unwind$??DPxVec3@physx@@QEBA?AV01@M@Z 0000000180000000     ConvexHullBuilder.obj
 0002:fffaf000       $unwind$??GPxVec3@physx@@QEBA?AV01@AEBV01@@Z 0000000180000000     ConvexHullBuilder.obj
 0002:fffaf000       $unwind$??HPxVec3@physx@@QEBA?AV01@AEBV01@@Z 0000000180000000     ConvexHullBuilder.obj
 0002:fffaf000       $unwind$??I?$PxFlags@W4Enum@PxBaseFlag@physx@@G@physx@@QEBA?AV01@W4Enum@PxBaseFlag@1@@Z 0000000180000000     ConvexHullBuilder.obj
 0002:fffaf000       $unwind$??_EPxConvexMesh@physx@@MEAAPEAXI@Z 0000000180000000     ConvexHullBuilder.obj
 0002:fffaf000       $unwind$??_EPxFoundation@physx@@MEAAPEAXI@Z 0000000180000000     ConvexHullBuilder.obj
 0002:fffaf000       $unwind$??_FAllocator@shdfnd@physx@@QEAAXXZ 0000000180000000     ConvexHullBuilder.obj
 0002:fffaf000       $unwind$??_FNamedAllocator@shdfnd@physx@@QEAAXXZ 0000000180000000     ConvexHullBuilder.obj
 0002:fffaf000       $unwind$??_GPxBase@physx@@MEAAPEAXI@Z 0000000180000000     ConvexHullBuilder.obj
 0002:fffaf000       $unwind$??_GPxFoundation@physx@@MEAAPEAXI@Z 0000000180000000     ConvexHullBuilder.obj
 0002:fffaf000       $unwind$??_H@YAXPEAX_K1P6APEAX0@Z@Z 0000000180000000     ConvexHullBuilder.obj
 0002:fffaf000       $unwind$??_I@YAXPEAX_K1P6AX0@Z@Z 0000000180000000     ConvexHullBuilder.obj
 0002:fffaf000       $unwind$?FLoad@aos@shdfnd@physx@@YA?AT__m128@@M@Z 0000000180000000     ConvexHullBuilder.obj
 0002:fffaf000       $unwind$?PxAbs@physx@@YAMM@Z 0000000180000000     ConvexHullBuilder.obj
 0002:fffaf000       $unwind$?PxMemCopy@physx@@YAPEAXPEAXPEBXI@Z 0000000180000000     ConvexHullBuilder.obj
 0002:fffaf000       $unwind$?PxMemZero@physx@@YAPEAXPEAXI@Z 0000000180000000     ConvexHullBuilder.obj
 0002:fffaf000       $unwind$?PxSqrt@physx@@YAMM@Z 0000000180000000     ConvexHullBuilder.obj
 0002:fffaf000       $unwind$?V3Load@aos@shdfnd@physx@@YA?AT__m128@@M@Z 0000000180000000     ConvexHullBuilder.obj
 0002:fffaf000       $unwind$?V4Load@aos@shdfnd@physx@@YA?AT__m128@@M@Z 0000000180000000     ConvexHullBuilder.obj
 0002:fffaf000       $unwind$?abs@intrinsics@physx@@YAMM@Z 0000000180000000     ConvexHullBuilder.obj
 0002:fffaf000       $unwind$?allocate@?$Array@UPxDebugLine@physx@@VNamedAllocator@shdfnd@2@@shdfnd@physx@@IEAAPEAUPxDebugLine@3@I@Z 0000000180000000     ConvexHullBuilder.obj
 0002:fffaf000       $unwind$?allocate@?$ReflectionAllocator@E@shdfnd@physx@@QEAAPEAX_KPEBDH@Z 0000000180000000     ConvexHullBuilder.obj
 0002:fffaf000       $unwind$?allocate@?$ReflectionAllocator@G@shdfnd@physx@@QEAAPEAX_KPEBDH@Z 0000000180000000     ConvexHullBuilder.obj
 0002:fffaf000       $unwind$?allocate@?$ReflectionAllocator@I@shdfnd@physx@@QEAAPEAX_KPEBDH@Z 0000000180000000     ConvexHullBuilder.obj
 0002:fffaf000       $unwind$?copy@?$Array@UPxDebugLine@physx@@VNamedAllocator@shdfnd@2@@shdfnd@physx@@KAXPEAUPxDebugLine@3@0PEBU43@@Z 0000000180000000     ConvexHullBuilder.obj
 0002:fffaf000       $unwind$?cross@PxVec3@physx@@QEBA?AV12@AEBV12@@Z 0000000180000000     ConvexHullBuilder.obj
 0002:fffaf000       $unwind$?deallocate@?$Array@UPxDebugLine@physx@@VNamedAllocator@shdfnd@2@@shdfnd@physx@@IEAAXPEAX@Z 0000000180000000     ConvexHullBuilder.obj
 0002:fffaf000       $unwind$?deallocate@NonTrackingAllocator@shdfnd@physx@@QEAAXPEAX@Z 0000000180000000     ConvexHullBuilder.obj
 0002:fffaf000       $unwind$?distance@PxPlane@physx@@QEBAMAEBVPxVec3@2@@Z 0000000180000000     ConvexHullBuilder.obj
 0002:fffaf000       $unwind$?forceSize_Unsafe@?$Array@UPxDebugLine@physx@@VNamedAllocator@shdfnd@2@@shdfnd@physx@@QEAAXI@Z 0000000180000000     ConvexHullBuilder.obj
 0002:fffaf000       $unwind$?getFoundation@shdfnd@physx@@YAAEAVFoundation@12@XZ 0000000180000000     ConvexHullBuilder.obj
 0002:fffaf000       $unwind$?getHullVertices@ConvexHullData@Gu@physx@@QEBAPEBVPxVec3@3@XZ 0000000180000000     ConvexHullBuilder.obj
 0002:fffaf000       $unwind$?getIndexBuffer@ConvexMesh@Gu@physx@@UEBAPEBEXZ 0000000180000000     ConvexHullBuilder.obj
 0002:fffaf000       $unwind$?getName@?$ReflectionAllocator@E@shdfnd@physx@@CAPEBDXZ 0000000180000000     ConvexHullBuilder.obj
 0002:fffaf000       $unwind$?getName@?$ReflectionAllocator@G@shdfnd@physx@@CAPEBDXZ 0000000180000000     ConvexHullBuilder.obj
 0002:fffaf000       $unwind$?getName@?$ReflectionAllocator@I@shdfnd@physx@@CAPEBDXZ 0000000180000000     ConvexHullBuilder.obj
 0002:fffaf000       $unwind$?getVertexData8@ConvexHullData@Gu@physx@@QEBAPEBEXZ 0000000180000000     ConvexHullBuilder.obj
 0002:fffaf000       $unwind$?getVertices@ConvexMesh@Gu@physx@@UEBAPEBVPxVec3@3@XZ 0000000180000000     ConvexHullBuilder.obj
 0002:fffaf000       $unwind$?grow@?$Array@UPxDebugLine@physx@@VNamedAllocator@shdfnd@2@@shdfnd@physx@@IEAAXI@Z 0000000180000000     ConvexHullBuilder.obj
 0002:fffaf000       $unwind$?isKindOf@PxBase@physx@@MEBA_NPEBD@Z 0000000180000000     ConvexHullBuilder.obj
 0002:fffaf000       $unwind$?isKindOf@PxConvexMesh@physx@@MEBA_NPEBD@Z 0000000180000000     ConvexHullBuilder.obj
 0002:fffaf000       $unwind$?isReleasable@PxBase@physx@@UEBA_NXZ 0000000180000000     ConvexHullBuilder.obj
 0002:fffaf000       $unwind$?magnitude@PxVec3@physx@@QEBAMXZ 0000000180000000     ConvexHullBuilder.obj
 0002:fffaf000       $unwind$?memCopy@intrinsics@physx@@YAPEAXPEAXPEBXI@Z 0000000180000000     ConvexHullBuilder.obj
 0002:fffaf000       $unwind$?memZero@intrinsics@physx@@YAPEAXPEAXI@Z 0000000180000000     ConvexHullBuilder.obj
 0002:fffaf000       $unwind$?name@type_info@@QEBAPEBDXZ 0000000180000000     ConvexHullBuilder.obj
 0002:fffaf000       $unwind$?outputSegment@RenderOutput@Cm@physx@@QEAAXAEBVPxVec3@3@0@Z 0000000180000000     ConvexHullBuilder.obj
 0002:fffaf000       $unwind$?preExportDataReset@ConvexMesh@Gu@physx@@QEAAXXZ 0000000180000000     ConvexHullBuilder.obj
 0002:fffaf000       $unwind$?recreate@?$Array@UPxDebugLine@physx@@VNamedAllocator@shdfnd@2@@shdfnd@physx@@IEAAXI@Z 0000000180000000     ConvexHullBuilder.obj
 0002:fffaf000       $unwind$?reserve@?$Array@UPxDebugLine@physx@@VNamedAllocator@shdfnd@2@@shdfnd@physx@@QEAAXI@Z 0000000180000000     ConvexHullBuilder.obj
 0002:fffaf000       $unwind$?reserveSegments@RenderOutput@Cm@physx@@QEAAPEAUPxDebugLine@3@I@Z 0000000180000000     ConvexHullBuilder.obj
 0002:fffaf000       $unwind$?selectMax@intrinsics@physx@@YAMMM@Z 0000000180000000     ConvexHullBuilder.obj
 0002:fffaf000       $unwind$?sqrt@intrinsics@physx@@YAMM@Z 0000000180000000     ConvexHullBuilder.obj
 0002:fffaf000       $unwind$?to16@shdfnd@physx@@YAGI@Z 0000000180000000     ConvexHullBuilder.obj
 0002:fffaf000       $unwind$fabsf              0000000180000000     ConvexHullBuilder.obj
 0002:fffaf000       $unwind$??$PxMax@M@physx@@YAMMM@Z 0000000180000000     ConvexHullLib.obj
 0002:fffaf000       $unwind$??$PxMin@M@physx@@YAMMM@Z 0000000180000000     ConvexHullLib.obj
 0002:fffaf000       $unwind$??0PxBounds3@physx@@QEAA@XZ 0000000180000000     ConvexHullLib.obj
 0002:fffaf000       $unwind$??1PxConvexMesh@physx@@MEAA@XZ 0000000180000000     ConvexHullLib.obj
 0002:fffaf000       $unwind$??APxVec3@physx@@QEAAAEAMI@Z 0000000180000000     ConvexHullLib.obj
 0002:fffaf000       $unwind$??B?$PxFlags@W4Enum@PxBaseFlag@physx@@G@physx@@QEBA_NXZ 0000000180000000     ConvexHullLib.obj
 0002:fffaf000       $unwind$??B?$PxFlags@W4Enum@PxConvexFlag@physx@@G@physx@@QEBA_NXZ 0000000180000000     ConvexHullLib.obj
 0002:fffaf000       $unwind$??DPxVec3@physx@@QEBA?AV01@M@Z 0000000180000000     ConvexHullLib.obj
 0002:fffaf000       $unwind$??GPxVec3@physx@@QEBA?AV01@AEBV01@@Z 0000000180000000     ConvexHullLib.obj
 0002:fffaf000       $unwind$??HPxVec3@physx@@QEBA?AV01@AEBV01@@Z 0000000180000000     ConvexHullLib.obj
 0002:fffaf000       $unwind$??I?$PxFlags@W4Enum@PxBaseFlag@physx@@G@physx@@QEBA?AV01@W4Enum@PxBaseFlag@1@@Z 0000000180000000     ConvexHullLib.obj
 0002:fffaf000       $unwind$??I?$PxFlags@W4Enum@PxConvexFlag@physx@@G@physx@@QEBA?AV01@W4Enum@PxConvexFlag@1@@Z 0000000180000000     ConvexHullLib.obj
 0002:fffaf000       $unwind$??_EPxConvexMesh@physx@@MEAAPEAXI@Z 0000000180000000     ConvexHullLib.obj
 0002:fffaf000       $unwind$??_EPxFoundation@physx@@MEAAPEAXI@Z 0000000180000000     ConvexHullLib.obj
 0002:fffaf000       $unwind$??_FAllocator@shdfnd@physx@@QEAAXXZ 0000000180000000     ConvexHullLib.obj
 0002:fffaf000       $unwind$??_FNamedAllocator@shdfnd@physx@@QEAAXXZ 0000000180000000     ConvexHullLib.obj
 0002:fffaf000       $unwind$??_GPxBase@physx@@MEAAPEAXI@Z 0000000180000000     ConvexHullLib.obj
 0002:fffaf000       $unwind$??_GPxFoundation@physx@@MEAAPEAXI@Z 0000000180000000     ConvexHullLib.obj
 0002:fffaf000       $unwind$??_I@YAXPEAX_K1P6AX0@Z@Z 0000000180000000     ConvexHullLib.obj
 0002:fffaf000       $unwind$?PxIsFinite@physx@@YA_NM@Z 0000000180000000     ConvexHullLib.obj
 0002:fffaf000       $unwind$?PxMemCopy@physx@@YAPEAXPEAXPEBXI@Z 0000000180000000     ConvexHullLib.obj
 0002:fffaf000       $unwind$?deallocate@NonTrackingAllocator@shdfnd@physx@@QEAAXPEAX@Z 0000000180000000     ConvexHullLib.obj
 0002:fffaf000       $unwind$?getCenter@PxBounds3@physx@@QEBA?AVPxVec3@2@XZ 0000000180000000     ConvexHullLib.obj
 0002:fffaf000       $unwind$?getDimensions@PxBounds3@physx@@QEBA?AVPxVec3@2@XZ 0000000180000000     ConvexHullLib.obj
 0002:fffaf000       $unwind$?getFoundation@shdfnd@physx@@YAAEAVFoundation@12@XZ 0000000180000000     ConvexHullLib.obj
 0002:fffaf000       $unwind$?include@PxBounds3@physx@@QEAAXAEBVPxVec3@2@@Z 0000000180000000     ConvexHullLib.obj
 0002:fffaf000       $unwind$?isFinite@PxBounds3@physx@@QEBA_NXZ 0000000180000000     ConvexHullLib.obj
 0002:fffaf000       $unwind$?isFinite@PxVec3@physx@@QEBA_NXZ 0000000180000000     ConvexHullLib.obj
 0002:fffaf000       $unwind$?isFinite@intrinsics@physx@@YA_NM@Z 0000000180000000     ConvexHullLib.obj
 0002:fffaf000       $unwind$?isKindOf@PxBase@physx@@MEBA_NPEBD@Z 0000000180000000     ConvexHullLib.obj
 0002:fffaf000       $unwind$?isKindOf@PxConvexMesh@physx@@MEBA_NPEBD@Z 0000000180000000     ConvexHullLib.obj
 0002:fffaf000       $unwind$?isReleasable@PxBase@physx@@UEBA_NXZ 0000000180000000     ConvexHullLib.obj
 0002:fffaf000       $unwind$?isValid@PxBounds3@physx@@QEBA_NXZ 0000000180000000     ConvexHullLib.obj
 0002:fffaf000       $unwind$?maximum@PxVec3@physx@@QEBA?AV12@AEBV12@@Z 0000000180000000     ConvexHullLib.obj
 0002:fffaf000       $unwind$?memCopy@intrinsics@physx@@YAPEAXPEAXPEBXI@Z 0000000180000000     ConvexHullLib.obj
 0002:fffaf000       $unwind$?minimum@PxVec3@physx@@QEBA?AV12@AEBV12@@Z 0000000180000000     ConvexHullLib.obj
 0002:fffaf000       $unwind$?multiply@PxVec3@physx@@QEBA?AV12@AEBV12@@Z 0000000180000000     ConvexHullLib.obj
 0002:fffaf000       $unwind$?selectMax@intrinsics@physx@@YAMMM@Z 0000000180000000     ConvexHullLib.obj
 0002:fffaf000       $unwind$?selectMin@intrinsics@physx@@YAMMM@Z 0000000180000000     ConvexHullLib.obj
 0002:fffaf000       $unwind$?setEmpty@PxBounds3@physx@@QEAAXXZ 0000000180000000     ConvexHullLib.obj
 0002:fffaf000       $unwind$fabsf              0000000180000000     ConvexHullLib.obj
 0002:fffaf000       $unwind$??$PxMax@M@physx@@YAMMM@Z 0000000180000000     ConvexHullUtils.obj
 0002:fffaf000       $unwind$??$PxMin@M@physx@@YAMMM@Z 0000000180000000     ConvexHullUtils.obj
 0002:fffaf000       $unwind$??0?$Array@VPxVec3@physx@@VNamedAllocator@shdfnd@2@@shdfnd@physx@@QEAA@AEBVNamedAllocator@12@@Z 0000000180000000     ConvexHullUtils.obj
 0002:fffaf000       $unwind$??0PxMat33@physx@@QEAA@XZ 0000000180000000     ConvexHullUtils.obj
 0002:fffaf000       $unwind$??0PxPlane@physx@@QEAA@AEBV01@@Z 0000000180000000     ConvexHullUtils.obj
 0002:fffaf000       $unwind$??0PxPlane@physx@@QEAA@AEBVPxVec3@1@00@Z 0000000180000000     ConvexHullUtils.obj
 0002:fffaf000       $unwind$??0PxPlane@physx@@QEAA@MMMM@Z 0000000180000000     ConvexHullUtils.obj
 0002:fffaf000       $unwind$??1?$Array@VPxVec3@physx@@VNamedAllocator@shdfnd@2@@shdfnd@physx@@QEAA@XZ 0000000180000000     ConvexHullUtils.obj
 0002:fffaf000       $unwind$??1PxConvexMesh@physx@@MEAA@XZ 0000000180000000     ConvexHullUtils.obj
 0002:fffaf000       $unwind$??4PxPlane@physx@@QEAAAEAV01@$$QEAV01@@Z 0000000180000000     ConvexHullUtils.obj
 0002:fffaf000       $unwind$??A?$Array@VPxVec3@physx@@VNamedAllocator@shdfnd@2@@shdfnd@physx@@QEAAAEAVPxVec3@2@I@Z 0000000180000000     ConvexHullUtils.obj
 0002:fffaf000       $unwind$??APxVec3@physx@@QEAAAEAMI@Z 0000000180000000     ConvexHullUtils.obj
 0002:fffaf000       $unwind$??APxVec3@physx@@QEBAAEBMI@Z 0000000180000000     ConvexHullUtils.obj
 0002:fffaf000       $unwind$??B?$PxFlags@W4Enum@PxBaseFlag@physx@@G@physx@@QEBA_NXZ 0000000180000000     ConvexHullUtils.obj
 0002:fffaf000       $unwind$??B?$PxFlags@W4Enum@PxConvexFlag@physx@@G@physx@@QEBA_NXZ 0000000180000000     ConvexHullUtils.obj
 0002:fffaf000       $unwind$??DPxVec3@physx@@QEBA?AV01@M@Z 0000000180000000     ConvexHullUtils.obj
 0002:fffaf000       $unwind$??GPxVec3@physx@@QEBA?AV01@AEBV01@@Z 0000000180000000     ConvexHullUtils.obj
 0002:fffaf000       $unwind$??HPxVec3@physx@@QEBA?AV01@AEBV01@@Z 0000000180000000     ConvexHullUtils.obj
 0002:fffaf000       $unwind$??I?$PxFlags@W4Enum@PxBaseFlag@physx@@G@physx@@QEBA?AV01@W4Enum@PxBaseFlag@1@@Z 0000000180000000     ConvexHullUtils.obj
 0002:fffaf000       $unwind$??I?$PxFlags@W4Enum@PxConvexFlag@physx@@G@physx@@QEBA?AV01@W4Enum@PxConvexFlag@1@@Z 0000000180000000     ConvexHullUtils.obj
 0002:fffaf000       $unwind$??_EPxConvexMesh@physx@@MEAAPEAXI@Z 0000000180000000     ConvexHullUtils.obj
 0002:fffaf000       $unwind$??_EPxFoundation@physx@@MEAAPEAXI@Z 0000000180000000     ConvexHullUtils.obj
 0002:fffaf000       $unwind$??_FAllocator@shdfnd@physx@@QEAAXXZ 0000000180000000     ConvexHullUtils.obj
 0002:fffaf000       $unwind$??_FNamedAllocator@shdfnd@physx@@QEAAXXZ 0000000180000000     ConvexHullUtils.obj
 0002:fffaf000       $unwind$??_GPxBase@physx@@MEAAPEAXI@Z 0000000180000000     ConvexHullUtils.obj
 0002:fffaf000       $unwind$??_GPxFoundation@physx@@MEAAPEAXI@Z 0000000180000000     ConvexHullUtils.obj
 0002:fffaf000       $unwind$??_H@YAXPEAX_K1P6APEAX0@Z@Z 0000000180000000     ConvexHullUtils.obj
 0002:fffaf000       $unwind$??_I@YAXPEAX_K1P6AX0@Z@Z 0000000180000000     ConvexHullUtils.obj
 0002:fffaf000       $unwind$?FLoad@aos@shdfnd@physx@@YA?AT__m128@@M@Z 0000000180000000     ConvexHullUtils.obj
 0002:fffaf000       $unwind$?PxAbs@physx@@YAMM@Z 0000000180000000     ConvexHullUtils.obj
 0002:fffaf000       $unwind$?PxIsFinite@physx@@YA_NM@Z 0000000180000000     ConvexHullUtils.obj
 0002:fffaf000       $unwind$?PxMemCopy@physx@@YAPEAXPEAXPEBXI@Z 0000000180000000     ConvexHullUtils.obj
 0002:fffaf000       $unwind$?PxRecipSqrt@physx@@YAMM@Z 0000000180000000     ConvexHullUtils.obj
 0002:fffaf000       $unwind$?PxSqrt@physx@@YAMM@Z 0000000180000000     ConvexHullUtils.obj
 0002:fffaf000       $unwind$?V3Add@aos@shdfnd@physx@@YA?AT__m128@@T4@0@Z 0000000180000000     ConvexHullUtils.obj
 0002:fffaf000       $unwind$?V3Dot@aos@shdfnd@physx@@YA?AT__m128@@T4@0@Z 0000000180000000     ConvexHullUtils.obj
 0002:fffaf000       $unwind$?V3Load@aos@shdfnd@physx@@YA?AT__m128@@M@Z 0000000180000000     ConvexHullUtils.obj
 0002:fffaf000       $unwind$?V3StoreU@aos@shdfnd@physx@@YAXT__m128@@AEAVPxVec3@3@@Z 0000000180000000     ConvexHullUtils.obj
 0002:fffaf000       $unwind$?V3Sub@aos@shdfnd@physx@@YA?AT__m128@@T4@0@Z 0000000180000000     ConvexHullUtils.obj
 0002:fffaf000       $unwind$?V4Add@aos@shdfnd@physx@@YA?AT__m128@@T4@0@Z 0000000180000000     ConvexHullUtils.obj
 0002:fffaf000       $unwind$?V4ClearW@aos@shdfnd@physx@@YA?AT__m128@@T4@@Z 0000000180000000     ConvexHullUtils.obj
 0002:fffaf000       $unwind$?V4Load@aos@shdfnd@physx@@YA?AT__m128@@M@Z 0000000180000000     ConvexHullUtils.obj
 0002:fffaf000       $unwind$?V4LoadU@aos@shdfnd@physx@@YA?AT__m128@@QEBM@Z 0000000180000000     ConvexHullUtils.obj
 0002:fffaf000       $unwind$?V4Scale@aos@shdfnd@physx@@YA?AT__m128@@T4@0@Z 0000000180000000     ConvexHullUtils.obj
 0002:fffaf000       $unwind$?V4StoreA@aos@shdfnd@physx@@YAXT__m128@@PEAM@Z 0000000180000000     ConvexHullUtils.obj
 0002:fffaf000       $unwind$?V4Sub@aos@shdfnd@physx@@YA?AT__m128@@T4@0@Z 0000000180000000     ConvexHullUtils.obj
 0002:fffaf000       $unwind$?Vec3V_From_Vec4V@aos@shdfnd@physx@@YA?AT__m128@@T4@@Z 0000000180000000     ConvexHullUtils.obj
 0002:fffaf000       $unwind$?abs@intrinsics@physx@@YAMM@Z 0000000180000000     ConvexHullUtils.obj
 0002:fffaf000       $unwind$?allocate@?$Array@VPxVec3@physx@@VNamedAllocator@shdfnd@2@@shdfnd@physx@@IEAAPEAVPxVec3@3@I@Z 0000000180000000     ConvexHullUtils.obj
 0002:fffaf000       $unwind$?capacityIncrement@?$Array@VPxVec3@physx@@VNamedAllocator@shdfnd@2@@shdfnd@physx@@IEBAIXZ 0000000180000000     ConvexHullUtils.obj
 0002:fffaf000       $unwind$?copy@?$Array@VPxVec3@physx@@VNamedAllocator@shdfnd@2@@shdfnd@physx@@KAXPEAVPxVec3@3@0PEBV43@@Z 0000000180000000     ConvexHullUtils.obj
 0002:fffaf000       $unwind$?cross@PxVec3@physx@@QEBA?AV12@AEBV12@@Z 0000000180000000     ConvexHullUtils.obj
 0002:fffaf000       $unwind$?deallocate@?$Array@VPxVec3@physx@@VNamedAllocator@shdfnd@2@@shdfnd@physx@@IEAAXPEAX@Z 0000000180000000     ConvexHullUtils.obj
 0002:fffaf000       $unwind$?deallocate@NonTrackingAllocator@shdfnd@physx@@QEAAXPEAX@Z 0000000180000000     ConvexHullUtils.obj
 0002:fffaf000       $unwind$?getNormalized@PxVec3@physx@@QEBA?AV12@XZ 0000000180000000     ConvexHullUtils.obj
 0002:fffaf000       $unwind$?grow@?$Array@VPxVec3@physx@@VNamedAllocator@shdfnd@2@@shdfnd@physx@@IEAAXI@Z 0000000180000000     ConvexHullUtils.obj
 0002:fffaf000       $unwind$?growAndPushBack@?$Array@VPxVec3@physx@@VNamedAllocator@shdfnd@2@@shdfnd@physx@@IEAAAEAVPxVec3@3@AEBV43@@Z 0000000180000000     ConvexHullUtils.obj
 0002:fffaf000       $unwind$?isAligned16@aos@shdfnd@physx@@YA_NPEAX@Z 0000000180000000     ConvexHullUtils.obj
 0002:fffaf000       $unwind$?isFinite@intrinsics@physx@@YA_NM@Z 0000000180000000     ConvexHullUtils.obj
 0002:fffaf000       $unwind$?isKindOf@PxBase@physx@@MEBA_NPEBD@Z 0000000180000000     ConvexHullUtils.obj
 0002:fffaf000       $unwind$?isKindOf@PxConvexMesh@physx@@MEBA_NPEBD@Z 0000000180000000     ConvexHullUtils.obj
 0002:fffaf000       $unwind$?isReleasable@PxBase@physx@@UEBA_NXZ 0000000180000000     ConvexHullUtils.obj
 0002:fffaf000       $unwind$?isValidFloatV@aos@shdfnd@physx@@YA_NT__m128@@@Z 0000000180000000     ConvexHullUtils.obj
 0002:fffaf000       $unwind$?isValidVec3V@aos@shdfnd@physx@@YA_NT__m128@@@Z 0000000180000000     ConvexHullUtils.obj
 0002:fffaf000       $unwind$?magnitude@PxVec3@physx@@QEBAMXZ 0000000180000000     ConvexHullUtils.obj
 0002:fffaf000       $unwind$?memCopy@intrinsics@physx@@YAPEAXPEAXPEBXI@Z 0000000180000000     ConvexHullUtils.obj
 0002:fffaf000       $unwind$?name@type_info@@QEBAPEBDXZ 0000000180000000     ConvexHullUtils.obj
 0002:fffaf000       $unwind$?pushBack@?$Array@VPxVec3@physx@@VNamedAllocator@shdfnd@2@@shdfnd@physx@@QEAAAEAVPxVec3@3@AEBV43@@Z 0000000180000000     ConvexHullUtils.obj
 0002:fffaf000       $unwind$?recipSqrt@intrinsics@physx@@YAMM@Z 0000000180000000     ConvexHullUtils.obj
 0002:fffaf000       $unwind$?recreate@?$Array@VPxVec3@physx@@VNamedAllocator@shdfnd@2@@shdfnd@physx@@IEAAXI@Z 0000000180000000     ConvexHullUtils.obj
 0002:fffaf000       $unwind$?reserve@?$Array@VPxVec3@physx@@VNamedAllocator@shdfnd@2@@shdfnd@physx@@QEAAXI@Z 0000000180000000     ConvexHullUtils.obj
 0002:fffaf000       $unwind$?selectMax@intrinsics@physx@@YAMMM@Z 0000000180000000     ConvexHullUtils.obj
 0002:fffaf000       $unwind$?selectMin@intrinsics@physx@@YAMMM@Z 0000000180000000     ConvexHullUtils.obj
 0002:fffaf000       $unwind$?sqrt@intrinsics@physx@@YAMM@Z 0000000180000000     ConvexHullUtils.obj
 0002:fffaf000       $unwind$?to8@shdfnd@physx@@YAEI@Z 0000000180000000     ConvexHullUtils.obj
 0002:fffaf000       $unwind$fabsf              0000000180000000     ConvexHullUtils.obj
 0002:fffaf000       $unwind$??$PxMax@I@physx@@YAIII@Z 0000000180000000     ConvexMeshBuilder.obj
 0002:fffaf000       $unwind$??$PxMax@M@physx@@YAMMM@Z 0000000180000000     ConvexMeshBuilder.obj
 0002:fffaf000       $unwind$??$swap@I@shdfnd@physx@@YAXAEAI0@Z 0000000180000000     ConvexMeshBuilder.obj
 0002:fffaf000       $unwind$??0CenterExtents@Gu@physx@@QEAA@XZ 0000000180000000     ConvexMeshBuilder.obj
 0002:fffaf000       $unwind$??0ConvexHullData@Gu@physx@@QEAA@XZ 0000000180000000     ConvexMeshBuilder.obj
 0002:fffaf000       $unwind$??0DebugText@Cm@physx@@QEAA@$$QEAU012@@Z 0000000180000000     ConvexMeshBuilder.obj
 0002:fffaf000       $unwind$??0DebugText@Cm@physx@@QEAA@AEBU012@@Z 0000000180000000     ConvexMeshBuilder.obj
 0002:fffaf000       $unwind$??0PxBoundedData@physx@@QEAA@XZ 0000000180000000     ConvexMeshBuilder.obj
 0002:fffaf000       $unwind$??0PxBounds3@physx@@QEAA@XZ 0000000180000000     ConvexMeshBuilder.obj
 0002:fffaf000       $unwind$??0PxConvexMeshDesc@physx@@QEAA@XZ 0000000180000000     ConvexMeshBuilder.obj
 0002:fffaf000       $unwind$??0PxDebugLine@physx@@QEAA@AEBU01@@Z 0000000180000000     ConvexMeshBuilder.obj
 0002:fffaf000       $unwind$??0PxIntegrals@physx@@QEAA@XZ 0000000180000000     ConvexMeshBuilder.obj
 0002:fffaf000       $unwind$??0PxMat33@physx@@QEAA@AEBVPxVec3@1@00@Z 0000000180000000     ConvexMeshBuilder.obj
 0002:fffaf000       $unwind$??0PxMat33@physx@@QEAA@W4PxIDENTITY@1@@Z 0000000180000000     ConvexMeshBuilder.obj
 0002:fffaf000       $unwind$??0PxMat44@physx@@QEAA@AEBV01@@Z 0000000180000000     ConvexMeshBuilder.obj
 0002:fffaf000       $unwind$??0PxMat44@physx@@QEAA@W4PxIDENTITY@1@@Z 0000000180000000     ConvexMeshBuilder.obj
 0002:fffaf000       $unwind$??0RenderOutput@Cm@physx@@QEAA@AEAVRenderBuffer@12@@Z 0000000180000000     ConvexMeshBuilder.obj
 0002:fffaf000       $unwind$??0RenderOutput@Cm@physx@@QEAA@AEBV012@@Z 0000000180000000     ConvexMeshBuilder.obj
 0002:fffaf000       $unwind$??1ConvexHullData@Gu@physx@@QEAA@XZ 0000000180000000     ConvexMeshBuilder.obj
 0002:fffaf000       $unwind$??1PxConvexMesh@physx@@MEAA@XZ 0000000180000000     ConvexMeshBuilder.obj
 0002:fffaf000       $unwind$??3UserAllocated@shdfnd@physx@@SAXPEAX@Z 0000000180000000     ConvexMeshBuilder.obj
 0002:fffaf000       $unwind$??4BigConvexData@physx@@QEAAAEAV01@AEBV01@@Z 0000000180000000     ConvexMeshBuilder.obj
 0002:fffaf000       $unwind$??4CenterExtents@Gu@physx@@QEAAAEAV012@AEBV012@@Z 0000000180000000     ConvexMeshBuilder.obj
 0002:fffaf000       $unwind$??4DebugText@Cm@physx@@QEAAAEAU012@$$QEAU012@@Z 0000000180000000     ConvexMeshBuilder.obj
 0002:fffaf000       $unwind$??4DebugText@Cm@physx@@QEAAAEAU012@AEBU012@@Z 0000000180000000     ConvexMeshBuilder.obj
 0002:fffaf000       $unwind$??4PxMat33@physx@@QEAAAEAV01@AEBV01@@Z 0000000180000000     ConvexMeshBuilder.obj
 0002:fffaf000       $unwind$??APxVec3@physx@@QEAAAEAMI@Z 0000000180000000     ConvexMeshBuilder.obj
 0002:fffaf000       $unwind$??APxVec3@physx@@QEBAAEBMI@Z 0000000180000000     ConvexMeshBuilder.obj
 0002:fffaf000       $unwind$??B?$PxFlags@W4Enum@PxBaseFlag@physx@@G@physx@@QEBA_NXZ 0000000180000000     ConvexMeshBuilder.obj
 0002:fffaf000       $unwind$??B?$PxFlags@W4Enum@PxConvexFlag@physx@@G@physx@@QEBA_NXZ 0000000180000000     ConvexMeshBuilder.obj
 0002:fffaf000       $unwind$??DPxVec3@physx@@QEBA?AV01@M@Z 0000000180000000     ConvexMeshBuilder.obj
 0002:fffaf000       $unwind$??GPxVec3@physx@@QEBA?AV01@AEBV01@@Z 0000000180000000     ConvexMeshBuilder.obj
 0002:fffaf000       $unwind$??GPxVec3@physx@@QEBA?AV01@XZ 0000000180000000     ConvexMeshBuilder.obj
 0002:fffaf000       $unwind$??HPxVec3@physx@@QEBA?AV01@AEBV01@@Z 0000000180000000     ConvexMeshBuilder.obj
 0002:fffaf000       $unwind$??I?$PxFlags@W4Enum@PxBaseFlag@physx@@G@physx@@QEBA?AV01@W4Enum@PxBaseFlag@1@@Z 0000000180000000     ConvexMeshBuilder.obj
 0002:fffaf000       $unwind$??I?$PxFlags@W4Enum@PxConvexFlag@physx@@G@physx@@QEBA?AV01@W4Enum@PxConvexFlag@1@@Z 0000000180000000     ConvexMeshBuilder.obj
 0002:fffaf000       $unwind$??RPxMat33@physx@@QEAAAEAMII@Z 0000000180000000     ConvexMeshBuilder.obj
 0002:fffaf000       $unwind$??_EPxConvexMesh@physx@@MEAAPEAXI@Z 0000000180000000     ConvexMeshBuilder.obj
 0002:fffaf000       $unwind$??_EPxFoundation@physx@@MEAAPEAXI@Z 0000000180000000     ConvexMeshBuilder.obj
 0002:fffaf000       $unwind$??_FAllocator@shdfnd@physx@@QEAAXXZ 0000000180000000     ConvexMeshBuilder.obj
 0002:fffaf000       $unwind$??_FNamedAllocator@shdfnd@physx@@QEAAXXZ 0000000180000000     ConvexMeshBuilder.obj
 0002:fffaf000       $unwind$??_GPxBase@physx@@MEAAPEAXI@Z 0000000180000000     ConvexMeshBuilder.obj
 0002:fffaf000       $unwind$??_GPxFoundation@physx@@MEAAPEAXI@Z 0000000180000000     ConvexMeshBuilder.obj
 0002:fffaf000       $unwind$??_I@YAXPEAX_K1P6AX0@Z@Z 0000000180000000     ConvexMeshBuilder.obj
 0002:fffaf000       $unwind$?FLoad@aos@shdfnd@physx@@YA?AT__m128@@M@Z 0000000180000000     ConvexMeshBuilder.obj
 0002:fffaf000       $unwind$?PxIsFinite@physx@@YA_NM@Z 0000000180000000     ConvexMeshBuilder.obj
 0002:fffaf000       $unwind$?PxMemCopy@physx@@YAPEAXPEAXPEBXI@Z 0000000180000000     ConvexMeshBuilder.obj
 0002:fffaf000       $unwind$?V3Load@aos@shdfnd@physx@@YA?AT__m128@@M@Z 0000000180000000     ConvexMeshBuilder.obj
 0002:fffaf000       $unwind$?V4Load@aos@shdfnd@physx@@YA?AT__m128@@M@Z 0000000180000000     ConvexMeshBuilder.obj
 0002:fffaf000       $unwind$?__global_array_delete@@YAXPEAX@Z 0000000180000000     ConvexMeshBuilder.obj
 0002:fffaf000       $unwind$?__global_array_delete@@YAXPEAX_K@Z 0000000180000000     ConvexMeshBuilder.obj
 0002:fffaf000       $unwind$?__global_delete@@YAXPEAX@Z 0000000180000000     ConvexMeshBuilder.obj
 0002:fffaf000       $unwind$?__global_delete@@YAXPEAX_K@Z 0000000180000000     ConvexMeshBuilder.obj
 0002:fffaf000       $unwind$?allocate@?$Array@UPxDebugLine@physx@@VNamedAllocator@shdfnd@2@@shdfnd@physx@@IEAAPEAUPxDebugLine@3@I@Z 0000000180000000     ConvexMeshBuilder.obj
 0002:fffaf000       $unwind$?copy@?$Array@UPxDebugLine@physx@@VNamedAllocator@shdfnd@2@@shdfnd@physx@@KAXPEAUPxDebugLine@3@0PEBU43@@Z 0000000180000000     ConvexMeshBuilder.obj
 0002:fffaf000       $unwind$?deallocate@?$Array@UPxDebugLine@physx@@VNamedAllocator@shdfnd@2@@shdfnd@physx@@IEAAXPEAX@Z 0000000180000000     ConvexMeshBuilder.obj
 0002:fffaf000       $unwind$?deallocate@NonTrackingAllocator@shdfnd@physx@@QEAAXPEAX@Z 0000000180000000     ConvexMeshBuilder.obj
 0002:fffaf000       $unwind$?distance@PxPlane@physx@@QEBAMAEBVPxVec3@2@@Z 0000000180000000     ConvexMeshBuilder.obj
 0002:fffaf000       $unwind$?forceSize_Unsafe@?$Array@UPxDebugLine@physx@@VNamedAllocator@shdfnd@2@@shdfnd@physx@@QEAAXI@Z 0000000180000000     ConvexMeshBuilder.obj
 0002:fffaf000       $unwind$?gatherStrided@Cooking@physx@@SAXPEBXPEAXIII@Z 0000000180000000     ConvexMeshBuilder.obj
 0002:fffaf000       $unwind$?getCenter@PxBounds3@physx@@QEBA?AVPxVec3@2@XZ 0000000180000000     ConvexMeshBuilder.obj
 0002:fffaf000       $unwind$?getDimensions@PxBounds3@physx@@QEBA?AVPxVec3@2@XZ 0000000180000000     ConvexMeshBuilder.obj
 0002:fffaf000       $unwind$?getFoundation@shdfnd@physx@@YAAEAVFoundation@12@XZ 0000000180000000     ConvexMeshBuilder.obj
 0002:fffaf000       $unwind$?getHullVertices@ConvexHullData@Gu@physx@@QEBAPEBVPxVec3@3@XZ 0000000180000000     ConvexMeshBuilder.obj
 0002:fffaf000       $unwind$?getIndexBuffer@ConvexMesh@Gu@physx@@UEBAPEBEXZ 0000000180000000     ConvexMeshBuilder.obj
 0002:fffaf000       $unwind$?getMax@CenterExtents@Gu@physx@@QEBAMI@Z 0000000180000000     ConvexMeshBuilder.obj
 0002:fffaf000       $unwind$?getMin@CenterExtents@Gu@physx@@QEBAMI@Z 0000000180000000     ConvexMeshBuilder.obj
 0002:fffaf000       $unwind$?getOriginInertia@PxIntegrals@physx@@QEAAXAEAVPxMat33@2@@Z 0000000180000000     ConvexMeshBuilder.obj
 0002:fffaf000       $unwind$?getVertexData8@ConvexHullData@Gu@physx@@QEBAPEBEXZ 0000000180000000     ConvexMeshBuilder.obj
 0002:fffaf000       $unwind$?getVertices@ConvexMesh@Gu@physx@@UEBAPEBVPxVec3@3@XZ 0000000180000000     ConvexMeshBuilder.obj
 0002:fffaf000       $unwind$?grow@?$Array@UPxDebugLine@physx@@VNamedAllocator@shdfnd@2@@shdfnd@physx@@IEAAXI@Z 0000000180000000     ConvexMeshBuilder.obj
 0002:fffaf000       $unwind$?isFinite@PxBounds3@physx@@QEBA_NXZ 0000000180000000     ConvexMeshBuilder.obj
 0002:fffaf000       $unwind$?isFinite@PxVec3@physx@@QEBA_NXZ 0000000180000000     ConvexMeshBuilder.obj
 0002:fffaf000       $unwind$?isFinite@intrinsics@physx@@YA_NM@Z 0000000180000000     ConvexMeshBuilder.obj
 0002:fffaf000       $unwind$?isKindOf@PxBase@physx@@MEBA_NPEBD@Z 0000000180000000     ConvexMeshBuilder.obj
 0002:fffaf000       $unwind$?isKindOf@PxConvexMesh@physx@@MEBA_NPEBD@Z 0000000180000000     ConvexMeshBuilder.obj
 0002:fffaf000       $unwind$?isReleasable@PxBase@physx@@UEBA_NXZ 0000000180000000     ConvexMeshBuilder.obj
 0002:fffaf000       $unwind$?isValid@PxBounds3@physx@@QEBA_NXZ 0000000180000000     ConvexMeshBuilder.obj
 0002:fffaf000       $unwind$?isValid@PxConvexMeshDesc@physx@@QEBA_NXZ 0000000180000000     ConvexMeshBuilder.obj
 0002:fffaf000       $unwind$?markSerializedMem@Cm@physx@@YAXPEAXI@Z 0000000180000000     ConvexMeshBuilder.obj
 0002:fffaf000       $unwind$?memCopy@intrinsics@physx@@YAPEAXPEAXPEBXI@Z 0000000180000000     ConvexMeshBuilder.obj
 0002:fffaf000       $unwind$?name@type_info@@QEBAPEBDXZ 0000000180000000     ConvexMeshBuilder.obj
 0002:fffaf000       $unwind$?outputSegment@RenderOutput@Cm@physx@@QEAAXAEBVPxVec3@3@0@Z 0000000180000000     ConvexMeshBuilder.obj
 0002:fffaf000       $unwind$?preExportDataReset@ConvexMesh@Gu@physx@@QEAAXXZ 0000000180000000     ConvexMeshBuilder.obj
 0002:fffaf000       $unwind$?recreate@?$Array@UPxDebugLine@physx@@VNamedAllocator@shdfnd@2@@shdfnd@physx@@IEAAXI@Z 0000000180000000     ConvexMeshBuilder.obj
 0002:fffaf000       $unwind$?reserve@?$Array@UPxDebugLine@physx@@VNamedAllocator@shdfnd@2@@shdfnd@physx@@QEAAXI@Z 0000000180000000     ConvexMeshBuilder.obj
 0002:fffaf000       $unwind$?reserveSegments@RenderOutput@Cm@physx@@QEAAPEAUPxDebugLine@3@I@Z 0000000180000000     ConvexMeshBuilder.obj
 0002:fffaf000       $unwind$?selectMax@intrinsics@physx@@YAMMM@Z 0000000180000000     ConvexMeshBuilder.obj
 0002:fffaf000       $unwind$fabsf              0000000180000000     ConvexMeshBuilder.obj
 0002:fffaf000       $unwind$??$?_UE@@YAPEAX_KV?$ReflectionAllocator@E@shdfnd@physx@@PEBDH@Z 0000000180000000     ConvexPolygonsBuilder.obj
 0002:fffaf000       $unwind$??$swap@I@shdfnd@physx@@YAXAEAI0@Z 0000000180000000     ConvexPolygonsBuilder.obj
 0002:fffaf000       $unwind$??0?$Array@IVNamedAllocator@shdfnd@physx@@@shdfnd@physx@@QEAA@AEBVNamedAllocator@12@@Z 0000000180000000     ConvexPolygonsBuilder.obj
 0002:fffaf000       $unwind$??0PxPlane@physx@@QEAA@AEBVPxVec3@1@00@Z 0000000180000000     ConvexPolygonsBuilder.obj
 0002:fffaf000       $unwind$??1?$Array@IVNamedAllocator@shdfnd@physx@@@shdfnd@physx@@QEAA@XZ 0000000180000000     ConvexPolygonsBuilder.obj
 0002:fffaf000       $unwind$??1PxConvexMesh@physx@@MEAA@XZ 0000000180000000     ConvexPolygonsBuilder.obj
 0002:fffaf000       $unwind$??3UserAllocated@shdfnd@physx@@SAXPEAX@Z 0000000180000000     ConvexPolygonsBuilder.obj
 0002:fffaf000       $unwind$??A?$Array@IVNamedAllocator@shdfnd@physx@@@shdfnd@physx@@QEAAAEAII@Z 0000000180000000     ConvexPolygonsBuilder.obj
 0002:fffaf000       $unwind$??B?$PxFlags@W4Enum@PxBaseFlag@physx@@G@physx@@QEBA_NXZ 0000000180000000     ConvexPolygonsBuilder.obj
 0002:fffaf000       $unwind$??DPxVec3@physx@@QEBA?AV01@M@Z 0000000180000000     ConvexPolygonsBuilder.obj
 0002:fffaf000       $unwind$??GPxVec3@physx@@QEBA?AV01@AEBV01@@Z 0000000180000000     ConvexPolygonsBuilder.obj
 0002:fffaf000       $unwind$??GPxVec3@physx@@QEBA?AV01@XZ 0000000180000000     ConvexPolygonsBuilder.obj
 0002:fffaf000       $unwind$??I?$PxFlags@W4Enum@PxBaseFlag@physx@@G@physx@@QEBA?AV01@W4Enum@PxBaseFlag@1@@Z 0000000180000000     ConvexPolygonsBuilder.obj
 0002:fffaf000       $unwind$??_EPxConvexMesh@physx@@MEAAPEAXI@Z 0000000180000000     ConvexPolygonsBuilder.obj
 0002:fffaf000       $unwind$??_EPxFoundation@physx@@MEAAPEAXI@Z 0000000180000000     ConvexPolygonsBuilder.obj
 0002:fffaf000       $unwind$??_FAllocator@shdfnd@physx@@QEAAXXZ 0000000180000000     ConvexPolygonsBuilder.obj
 0002:fffaf000       $unwind$??_FNamedAllocator@shdfnd@physx@@QEAAXXZ 0000000180000000     ConvexPolygonsBuilder.obj
 0002:fffaf000       $unwind$??_GPxBase@physx@@MEAAPEAXI@Z 0000000180000000     ConvexPolygonsBuilder.obj
 0002:fffaf000       $unwind$??_GPxFoundation@physx@@MEAAPEAXI@Z 0000000180000000     ConvexPolygonsBuilder.obj
 0002:fffaf000       $unwind$??_I@YAXPEAX_K1P6AX0@Z@Z 0000000180000000     ConvexPolygonsBuilder.obj
 0002:fffaf000       $unwind$?PxMemCopy@physx@@YAPEAXPEAXPEBXI@Z 0000000180000000     ConvexPolygonsBuilder.obj
 0002:fffaf000       $unwind$?PxMemZero@physx@@YAPEAXPEAXI@Z 0000000180000000     ConvexPolygonsBuilder.obj
 0002:fffaf000       $unwind$?PxRecipSqrt@physx@@YAMM@Z 0000000180000000     ConvexPolygonsBuilder.obj
 0002:fffaf000       $unwind$?PxSqrt@physx@@YAMM@Z 0000000180000000     ConvexPolygonsBuilder.obj
 0002:fffaf000       $unwind$?allocate@?$Array@IVNamedAllocator@shdfnd@physx@@@shdfnd@physx@@IEAAPEAII@Z 0000000180000000     ConvexPolygonsBuilder.obj
 0002:fffaf000       $unwind$?allocate@?$ReflectionAllocator@E@shdfnd@physx@@QEAAPEAX_KPEBDH@Z 0000000180000000     ConvexPolygonsBuilder.obj
 0002:fffaf000       $unwind$?capacityIncrement@?$Array@IVNamedAllocator@shdfnd@physx@@@shdfnd@physx@@IEBAIXZ 0000000180000000     ConvexPolygonsBuilder.obj
 0002:fffaf000       $unwind$?copy@?$Array@IVNamedAllocator@shdfnd@physx@@@shdfnd@physx@@KAXPEAI0PEBI@Z 0000000180000000     ConvexPolygonsBuilder.obj
 0002:fffaf000       $unwind$?cross@PxVec3@physx@@QEBA?AV12@AEBV12@@Z 0000000180000000     ConvexPolygonsBuilder.obj
 0002:fffaf000       $unwind$?deallocate@?$Array@IVNamedAllocator@shdfnd@physx@@@shdfnd@physx@@IEAAXPEAX@Z 0000000180000000     ConvexPolygonsBuilder.obj
 0002:fffaf000       $unwind$?deallocate@NonTrackingAllocator@shdfnd@physx@@QEAAXPEAX@Z 0000000180000000     ConvexPolygonsBuilder.obj
 0002:fffaf000       $unwind$?distance@PxPlane@physx@@QEBAMAEBVPxVec3@2@@Z 0000000180000000     ConvexPolygonsBuilder.obj
 0002:fffaf000       $unwind$?getFoundation@shdfnd@physx@@YAAEAVFoundation@12@XZ 0000000180000000     ConvexPolygonsBuilder.obj
 0002:fffaf000       $unwind$?getName@?$ReflectionAllocator@E@shdfnd@physx@@CAPEBDXZ 0000000180000000     ConvexPolygonsBuilder.obj
 0002:fffaf000       $unwind$?getNormalized@PxVec3@physx@@QEBA?AV12@XZ 0000000180000000     ConvexPolygonsBuilder.obj
 0002:fffaf000       $unwind$?grow@?$Array@IVNamedAllocator@shdfnd@physx@@@shdfnd@physx@@IEAAXI@Z 0000000180000000     ConvexPolygonsBuilder.obj
 0002:fffaf000       $unwind$?growAndPushBack@?$Array@IVNamedAllocator@shdfnd@physx@@@shdfnd@physx@@IEAAAEAIAEBI@Z 0000000180000000     ConvexPolygonsBuilder.obj
 0002:fffaf000       $unwind$?isKindOf@PxBase@physx@@MEBA_NPEBD@Z 0000000180000000     ConvexPolygonsBuilder.obj
 0002:fffaf000       $unwind$?isKindOf@PxConvexMesh@physx@@MEBA_NPEBD@Z 0000000180000000     ConvexPolygonsBuilder.obj
 0002:fffaf000       $unwind$?isReleasable@PxBase@physx@@UEBA_NXZ 0000000180000000     ConvexPolygonsBuilder.obj
 0002:fffaf000       $unwind$?magnitude@PxVec3@physx@@QEBAMXZ 0000000180000000     ConvexPolygonsBuilder.obj
 0002:fffaf000       $unwind$?memCopy@intrinsics@physx@@YAPEAXPEAXPEBXI@Z 0000000180000000     ConvexPolygonsBuilder.obj
 0002:fffaf000       $unwind$?memZero@intrinsics@physx@@YAPEAXPEAXI@Z 0000000180000000     ConvexPolygonsBuilder.obj
 0002:fffaf000       $unwind$?name@type_info@@QEBAPEBDXZ 0000000180000000     ConvexPolygonsBuilder.obj
 0002:fffaf000       $unwind$?normalize@PxVec3@physx@@QEAAMXZ 0000000180000000     ConvexPolygonsBuilder.obj
 0002:fffaf000       $unwind$?pushBack@?$Array@IVNamedAllocator@shdfnd@physx@@@shdfnd@physx@@QEAAAEAIAEBI@Z 0000000180000000     ConvexPolygonsBuilder.obj
 0002:fffaf000       $unwind$?recipSqrt@intrinsics@physx@@YAMM@Z 0000000180000000     ConvexPolygonsBuilder.obj
 0002:fffaf000       $unwind$?recreate@?$Array@IVNamedAllocator@shdfnd@physx@@@shdfnd@physx@@IEAAXI@Z 0000000180000000     ConvexPolygonsBuilder.obj
 0002:fffaf000       $unwind$?reserve@?$Array@IVNamedAllocator@shdfnd@physx@@@shdfnd@physx@@QEAAXI@Z 0000000180000000     ConvexPolygonsBuilder.obj
 0002:fffaf000       $unwind$?sqrt@intrinsics@physx@@YAMM@Z 0000000180000000     ConvexPolygonsBuilder.obj
 0002:fffaf000       $unwind$?to8@shdfnd@physx@@YAEI@Z 0000000180000000     ConvexPolygonsBuilder.obj
 0002:fffaf000       $unwind$??3UserAllocated@shdfnd@physx@@SAXPEAX@Z 0000000180000000     Cooking.obj
 0002:fffaf000       $unwind$??_EPxFoundation@physx@@MEAAPEAXI@Z 0000000180000000     Cooking.obj
 0002:fffaf000       $unwind$??_FAllocator@shdfnd@physx@@QEAAXXZ 0000000180000000     Cooking.obj
 0002:fffaf000       $unwind$??_FNamedAllocator@shdfnd@physx@@QEAAXXZ 0000000180000000     Cooking.obj
 0002:fffaf000       $unwind$??_GPxFoundation@physx@@MEAAPEAXI@Z 0000000180000000     Cooking.obj
 0002:fffaf000       $unwind$??_H@YAXPEAX_K1P6APEAX0@Z@Z 0000000180000000     Cooking.obj
 0002:fffaf000       $unwind$??_I@YAXPEAX_K1P6AX0@Z@Z 0000000180000000     Cooking.obj
 0002:fffaf000       $unwind$?deallocate@NonTrackingAllocator@shdfnd@physx@@QEAAXPEAX@Z 0000000180000000     Cooking.obj
 0002:fffaf000       $unwind$?getFoundation@shdfnd@physx@@YAAEAVFoundation@12@XZ 0000000180000000     Cooking.obj
 0002:fffaf000       $unwind$?name@type_info@@QEBAPEBDXZ 0000000180000000     Cooking.obj
 0002:fffaf000       $unwind$??$?_UI@@YAPEAX_KV?$ReflectionAllocator@I@shdfnd@physx@@PEBDH@Z 0000000180000000     CookingUtils.obj
 0002:fffaf000       $unwind$??4FPUGuard@shdfnd@physx@@QEAAAEAV012@AEBV012@@Z 0000000180000000     CookingUtils.obj
 0002:fffaf000       $unwind$??_EPxFoundation@physx@@MEAAPEAXI@Z 0000000180000000     CookingUtils.obj
 0002:fffaf000       $unwind$??_FAllocator@shdfnd@physx@@QEAAXXZ 0000000180000000     CookingUtils.obj
 0002:fffaf000       $unwind$??_FNamedAllocator@shdfnd@physx@@QEAAXXZ 0000000180000000     CookingUtils.obj
 0002:fffaf000       $unwind$??_GPxFoundation@physx@@MEAAPEAXI@Z 0000000180000000     CookingUtils.obj
 0002:fffaf000       $unwind$??_I@YAXPEAX_K1P6AX0@Z@Z 0000000180000000     CookingUtils.obj
 0002:fffaf000       $unwind$?allocate@?$ReflectionAllocator@I@shdfnd@physx@@QEAAPEAX_KPEBDH@Z 0000000180000000     CookingUtils.obj
 0002:fffaf000       $unwind$?deallocate@NonTrackingAllocator@shdfnd@physx@@QEAAXPEAX@Z 0000000180000000     CookingUtils.obj
 0002:fffaf000       $unwind$?getName@?$ReflectionAllocator@I@shdfnd@physx@@CAPEBDXZ 0000000180000000     CookingUtils.obj
 0002:fffaf000       $unwind$?name@type_info@@QEBAPEBDXZ 0000000180000000     CookingUtils.obj
 0002:fffaf000       $unwind$??$?_UI@@YAPEAX_KV?$ReflectionAllocator@I@shdfnd@physx@@PEBDH@Z 0000000180000000     EdgeList.obj
 0002:fffaf000       $unwind$??_EPxFoundation@physx@@MEAAPEAXI@Z 0000000180000000     EdgeList.obj
 0002:fffaf000       $unwind$??_FAllocator@shdfnd@physx@@QEAAXXZ 0000000180000000     EdgeList.obj
 0002:fffaf000       $unwind$??_FNamedAllocator@shdfnd@physx@@QEAAXXZ 0000000180000000     EdgeList.obj
 0002:fffaf000       $unwind$??_GPxFoundation@physx@@MEAAPEAXI@Z 0000000180000000     EdgeList.obj
 0002:fffaf000       $unwind$??_H@YAXPEAX_K1P6APEAX0@Z@Z 0000000180000000     EdgeList.obj
 0002:fffaf000       $unwind$??_I@YAXPEAX_K1P6AX0@Z@Z 0000000180000000     EdgeList.obj
 0002:fffaf000       $unwind$?PxMemCopy@physx@@YAPEAXPEAXPEBXI@Z 0000000180000000     EdgeList.obj
 0002:fffaf000       $unwind$?PxMemZero@physx@@YAPEAXPEAXI@Z 0000000180000000     EdgeList.obj
 0002:fffaf000       $unwind$?allocate@?$ReflectionAllocator@I@shdfnd@physx@@QEAAPEAX_KPEBDH@Z 0000000180000000     EdgeList.obj
 0002:fffaf000       $unwind$?deallocate@NonTrackingAllocator@shdfnd@physx@@QEAAXPEAX@Z 0000000180000000     EdgeList.obj
 0002:fffaf000       $unwind$?getFoundation@shdfnd@physx@@YAAEAVFoundation@12@XZ 0000000180000000     EdgeList.obj
 0002:fffaf000       $unwind$?getName@?$ReflectionAllocator@I@shdfnd@physx@@CAPEBDXZ 0000000180000000     EdgeList.obj
 0002:fffaf000       $unwind$?memCopy@intrinsics@physx@@YAPEAXPEAXPEBXI@Z 0000000180000000     EdgeList.obj
 0002:fffaf000       $unwind$?memZero@intrinsics@physx@@YAPEAXPEAXI@Z 0000000180000000     EdgeList.obj
 0002:fffaf000       $unwind$?name@type_info@@QEBAPEBDXZ 0000000180000000     EdgeList.obj
 0002:fffaf000       $unwind$??0CenterExtents@Gu@physx@@QEAA@AEBV012@@Z 0000000180000000     HeightFieldCooking.obj
 0002:fffaf000       $unwind$??0CenterExtents@Gu@physx@@QEAA@XZ 0000000180000000     HeightFieldCooking.obj
 0002:fffaf000       $unwind$??0HeightFieldData@Gu@physx@@QEAA@$$QEAU012@@Z 0000000180000000     HeightFieldCooking.obj
 0002:fffaf000       $unwind$??0HeightFieldData@Gu@physx@@QEAA@AEBU012@@Z 0000000180000000     HeightFieldCooking.obj
 0002:fffaf000       $unwind$??0HeightFieldData@Gu@physx@@QEAA@W4PxEMPTY@2@@Z 0000000180000000     HeightFieldCooking.obj
 0002:fffaf000       $unwind$??0HeightFieldData@Gu@physx@@QEAA@XZ 0000000180000000     HeightFieldCooking.obj
 0002:fffaf000       $unwind$??1HeightFieldData@Gu@physx@@QEAA@XZ 0000000180000000     HeightFieldCooking.obj
 0002:fffaf000       $unwind$??1PxHeightField@physx@@MEAA@XZ 0000000180000000     HeightFieldCooking.obj
 0002:fffaf000       $unwind$??4CenterExtents@Gu@physx@@QEAAAEAV012@AEBV012@@Z 0000000180000000     HeightFieldCooking.obj
 0002:fffaf000       $unwind$??4HeightFieldData@Gu@physx@@QEAAAEAU012@$$QEAU012@@Z 0000000180000000     HeightFieldCooking.obj
 0002:fffaf000       $unwind$??4HeightFieldData@Gu@physx@@QEAAAEAU012@AEBU012@@Z 0000000180000000     HeightFieldCooking.obj
 0002:fffaf000       $unwind$??B?$PxFlags@W4Enum@PxBaseFlag@physx@@G@physx@@QEBA_NXZ 0000000180000000     HeightFieldCooking.obj
 0002:fffaf000       $unwind$??I?$PxFlags@W4Enum@PxBaseFlag@physx@@G@physx@@QEBA?AV01@W4Enum@PxBaseFlag@1@@Z 0000000180000000     HeightFieldCooking.obj
 0002:fffaf000       $unwind$??_EPxFoundation@physx@@MEAAPEAXI@Z 0000000180000000     HeightFieldCooking.obj
 0002:fffaf000       $unwind$??_EPxHeightField@physx@@MEAAPEAXI@Z 0000000180000000     HeightFieldCooking.obj
 0002:fffaf000       $unwind$??_FAllocator@shdfnd@physx@@QEAAXXZ 0000000180000000     HeightFieldCooking.obj
 0002:fffaf000       $unwind$??_FNamedAllocator@shdfnd@physx@@QEAAXXZ 0000000180000000     HeightFieldCooking.obj
 0002:fffaf000       $unwind$??_GPxBase@physx@@MEAAPEAXI@Z 0000000180000000     HeightFieldCooking.obj
 0002:fffaf000       $unwind$??_GPxFoundation@physx@@MEAAPEAXI@Z 0000000180000000     HeightFieldCooking.obj
 0002:fffaf000       $unwind$??_I@YAXPEAX_K1P6AX0@Z@Z 0000000180000000     HeightFieldCooking.obj
 0002:fffaf000       $unwind$?fsel@intrinsics@physx@@YAMMMM@Z 0000000180000000     HeightFieldCooking.obj
 0002:fffaf000       $unwind$?getFlags@HeightField@Gu@physx@@UEBA?AV?$PxFlags@W4Enum@PxHeightFieldFlag@physx@@G@3@XZ 0000000180000000     HeightFieldCooking.obj
 0002:fffaf000       $unwind$?getHeight@HeightField@Gu@physx@@QEBAMI@Z 0000000180000000     HeightFieldCooking.obj
 0002:fffaf000       $unwind$?getHeight@HeightField@Gu@physx@@UEBAMMM@Z 0000000180000000     HeightFieldCooking.obj
 0002:fffaf000       $unwind$?getHeightInternal2@HeightField@Gu@physx@@QEBAMIMM@Z 0000000180000000     HeightFieldCooking.obj
 0002:fffaf000       $unwind$?getHeightInternal@HeightField@Gu@physx@@QEBAMMM@Z 0000000180000000     HeightFieldCooking.obj
 0002:fffaf000       $unwind$?getMaterialIndex0@HeightField@Gu@physx@@QEBAGI@Z 0000000180000000     HeightFieldCooking.obj
 0002:fffaf000       $unwind$?getMaterialIndex1@HeightField@Gu@physx@@QEBAGI@Z 0000000180000000     HeightFieldCooking.obj
 0002:fffaf000       $unwind$?getSample@HeightField@Gu@physx@@QEBAAEBUPxHeightFieldSample@3@I@Z 0000000180000000     HeightFieldCooking.obj
 0002:fffaf000       $unwind$?getSample@HeightField@Gu@physx@@UEBAAEBUPxHeightFieldSample@3@II@Z 0000000180000000     HeightFieldCooking.obj
 0002:fffaf000       $unwind$?getTriangleMaterial@HeightField@Gu@physx@@QEBAGI@Z 0000000180000000     HeightFieldCooking.obj
 0002:fffaf000       $unwind$?getTriangleMaterialIndex@HeightField@Gu@physx@@UEBAGI@Z 0000000180000000     HeightFieldCooking.obj
 0002:fffaf000       $unwind$?getTriangleNormal@HeightField@Gu@physx@@UEBA?AVPxVec3@3@I@Z 0000000180000000     HeightFieldCooking.obj
 0002:fffaf000       $unwind$?getTriangleNormalInternal@HeightField@Gu@physx@@QEBA?AVPxVec3@3@I@Z 0000000180000000     HeightFieldCooking.obj
 0002:fffaf000       $unwind$?getTriangleVertexIndices@HeightField@Gu@physx@@QEBAXIAEAI00@Z 0000000180000000     HeightFieldCooking.obj
 0002:fffaf000       $unwind$?isFirstTriangle@HeightField@Gu@physx@@QEBA_NI@Z 0000000180000000     HeightFieldCooking.obj
 0002:fffaf000       $unwind$?isKindOf@PxBase@physx@@MEBA_NPEBD@Z 0000000180000000     HeightFieldCooking.obj
 0002:fffaf000       $unwind$?isKindOf@PxHeightField@physx@@MEBA_NPEBD@Z 0000000180000000     HeightFieldCooking.obj
 0002:fffaf000       $unwind$?isReleasable@PxBase@physx@@UEBA_NXZ 0000000180000000     HeightFieldCooking.obj
 0002:fffaf000       $unwind$?isValidVertex@HeightField@Gu@physx@@QEBA_NI@Z 0000000180000000     HeightFieldCooking.obj
 0002:fffaf000       $unwind$?isZerothVertexShared@HeightField@Gu@physx@@QEBA_NI@Z 0000000180000000     HeightFieldCooking.obj
 0002:fffaf000       $unwind$?preExportDataReset@HeightField@Gu@physx@@QEAAXXZ 0000000180000000     HeightFieldCooking.obj
 0002:fffaf000       $unwind$?tessFlag@PxHeightFieldSample@physx@@QEBAEXZ 0000000180000000     HeightFieldCooking.obj
 0002:fffaf000       $unwind$??$PxMax@M@physx@@YAMMM@Z 0000000180000000     MeshBuilder.obj
 0002:fffaf000       $unwind$??APxVec3@physx@@QEAAAEAMI@Z 0000000180000000     MeshBuilder.obj
 0002:fffaf000       $unwind$??_EPxFoundation@physx@@MEAAPEAXI@Z 0000000180000000     MeshBuilder.obj
 0002:fffaf000       $unwind$??_FAllocator@shdfnd@physx@@QEAAXXZ 0000000180000000     MeshBuilder.obj
 0002:fffaf000       $unwind$??_FNamedAllocator@shdfnd@physx@@QEAAXXZ 0000000180000000     MeshBuilder.obj
 0002:fffaf000       $unwind$??_GPxFoundation@physx@@MEAAPEAXI@Z 0000000180000000     MeshBuilder.obj
 0002:fffaf000       $unwind$??_H@YAXPEAX_K1P6APEAX0@Z@Z 0000000180000000     MeshBuilder.obj
 0002:fffaf000       $unwind$??_I@YAXPEAX_K1P6AX0@Z@Z 0000000180000000     MeshBuilder.obj
 0002:fffaf000       $unwind$?FLoad@aos@shdfnd@physx@@YA?AT__m128@@M@Z 0000000180000000     MeshBuilder.obj
 0002:fffaf000       $unwind$?PxAbs@physx@@YAMM@Z 0000000180000000     MeshBuilder.obj
 0002:fffaf000       $unwind$?V3Load@aos@shdfnd@physx@@YA?AT__m128@@M@Z 0000000180000000     MeshBuilder.obj
 0002:fffaf000       $unwind$?V4Load@aos@shdfnd@physx@@YA?AT__m128@@M@Z 0000000180000000     MeshBuilder.obj
 0002:fffaf000       $unwind$?abs@intrinsics@physx@@YAMM@Z 0000000180000000     MeshBuilder.obj
 0002:fffaf000       $unwind$?selectMax@intrinsics@physx@@YAMMM@Z 0000000180000000     MeshBuilder.obj
 0002:fffaf000       $unwind$fabsf              0000000180000000     MeshBuilder.obj
 0002:fffaf000       $unwind$??$PxMax@I@physx@@YAIII@Z 0000000180000000     MeshCleaner.obj
 0002:fffaf000       $unwind$??GPxVec3@physx@@QEBA?AV01@AEBV01@@Z 0000000180000000     MeshCleaner.obj
 0002:fffaf000       $unwind$??_EPxFoundation@physx@@MEAAPEAXI@Z 0000000180000000     MeshCleaner.obj
 0002:fffaf000       $unwind$??_FAllocator@shdfnd@physx@@QEAAXXZ 0000000180000000     MeshCleaner.obj
 0002:fffaf000       $unwind$??_FNamedAllocator@shdfnd@physx@@QEAAXXZ 0000000180000000     MeshCleaner.obj
 0002:fffaf000       $unwind$??_GPxFoundation@physx@@MEAAPEAXI@Z 0000000180000000     MeshCleaner.obj
 0002:fffaf000       $unwind$??_I@YAXPEAX_K1P6AX0@Z@Z 0000000180000000     MeshCleaner.obj
 0002:fffaf000       $unwind$?PxMemCopy@physx@@YAPEAXPEAXPEBXI@Z 0000000180000000     MeshCleaner.obj
 0002:fffaf000       $unwind$?cross@PxVec3@physx@@QEBA?AV12@AEBV12@@Z 0000000180000000     MeshCleaner.obj
 0002:fffaf000       $unwind$?deallocate@NonTrackingAllocator@shdfnd@physx@@QEAAXPEAX@Z 0000000180000000     MeshCleaner.obj
 0002:fffaf000       $unwind$?memCopy@intrinsics@physx@@YAPEAXPEAXPEBXI@Z 0000000180000000     MeshCleaner.obj
 0002:fffaf000       $unwind$??3UserAllocated@shdfnd@physx@@SAXPEAX@Z 0000000180000000     Quantizer.obj
 0002:fffaf000       $unwind$??DPxVec3@physx@@QEBA?AV01@M@Z 0000000180000000     Quantizer.obj
 0002:fffaf000       $unwind$??GPxVec3@physx@@QEBA?AV01@AEBV01@@Z 0000000180000000     Quantizer.obj
 0002:fffaf000       $unwind$??_EPxFoundation@physx@@MEAAPEAXI@Z 0000000180000000     Quantizer.obj
 0002:fffaf000       $unwind$??_FAllocator@shdfnd@physx@@QEAAXXZ 0000000180000000     Quantizer.obj
 0002:fffaf000       $unwind$??_FNamedAllocator@shdfnd@physx@@QEAAXXZ 0000000180000000     Quantizer.obj
 0002:fffaf000       $unwind$??_GPxFoundation@physx@@MEAAPEAXI@Z 0000000180000000     Quantizer.obj
 0002:fffaf000       $unwind$??_I@YAXPEAX_K1P6AX0@Z@Z 0000000180000000     Quantizer.obj
 0002:fffaf000       $unwind$?deallocate@NonTrackingAllocator@shdfnd@physx@@QEAAXPEAX@Z 0000000180000000     Quantizer.obj
 0002:fffaf000       $unwind$?name@type_info@@QEBAPEBDXZ 0000000180000000     Quantizer.obj
 0002:fffaf000       $unwind$fabsf              0000000180000000     Quantizer.obj
 0002:fffaf000       $unwind$??$?2V?$ReflectionAllocator@VConvexHull@physx@@@shdfnd@physx@@@UserAllocated@shdfnd@physx@@SAPEAX_KV?$ReflectionAllocator@VConvexHull@physx@@@12@PEBDH@Z 0000000180000000     QuickHullConvexHullLib.obj
 0002:fffaf000       $unwind$??$?_UE@@YAPEAX_KV?$ReflectionAllocator@E@shdfnd@physx@@PEBDH@Z 0000000180000000     QuickHullConvexHullLib.obj
 0002:fffaf000       $unwind$??$?_UG@@YAPEAX_KV?$ReflectionAllocator@G@shdfnd@physx@@PEBDH@Z 0000000180000000     QuickHullConvexHullLib.obj
 0002:fffaf000       $unwind$??$PxMax@I@physx@@YAIII@Z 0000000180000000     QuickHullConvexHullLib.obj
 0002:fffaf000       $unwind$??$PxMax@M@physx@@YAMMM@Z 0000000180000000     QuickHullConvexHullLib.obj
 0002:fffaf000       $unwind$??$PxMin@I@physx@@YAIII@Z 0000000180000000     QuickHullConvexHullLib.obj
 0002:fffaf000       $unwind$??0?$Array@VPxPlane@physx@@VNamedAllocator@shdfnd@2@@shdfnd@physx@@QEAA@AEBVNamedAllocator@12@@Z 0000000180000000     QuickHullConvexHullLib.obj
 0002:fffaf000       $unwind$??0PxBoundedData@physx@@QEAA@XZ 0000000180000000     QuickHullConvexHullLib.obj
 0002:fffaf000       $unwind$??0PxConvexMeshDesc@physx@@QEAA@XZ 0000000180000000     QuickHullConvexHullLib.obj
 0002:fffaf000       $unwind$??0PxMat33@physx@@QEAA@AEBV01@@Z 0000000180000000     QuickHullConvexHullLib.obj
 0002:fffaf000       $unwind$??0PxMat33@physx@@QEAA@AEBVPxVec3@1@00@Z 0000000180000000     QuickHullConvexHullLib.obj
 0002:fffaf000       $unwind$??0PxMat33@physx@@QEAA@W4PxIDENTITY@1@@Z 0000000180000000     QuickHullConvexHullLib.obj
 0002:fffaf000       $unwind$??0PxMat33@physx@@QEAA@XZ 0000000180000000     QuickHullConvexHullLib.obj
 0002:fffaf000       $unwind$??0PxPlane@physx@@QEAA@AEBV01@@Z 0000000180000000     QuickHullConvexHullLib.obj
 0002:fffaf000       $unwind$??0PxPlane@physx@@QEAA@XZ 0000000180000000     QuickHullConvexHullLib.obj
 0002:fffaf000       $unwind$??0PxVec3@physx@@QEAA@W4PxZERO@1@@Z 0000000180000000     QuickHullConvexHullLib.obj
 0002:fffaf000       $unwind$??1?$Array@VPxVec3@physx@@VNamedAllocator@shdfnd@2@@shdfnd@physx@@QEAA@XZ 0000000180000000     QuickHullConvexHullLib.obj
 0002:fffaf000       $unwind$??1PxConvexMesh@physx@@MEAA@XZ 0000000180000000     QuickHullConvexHullLib.obj
 0002:fffaf000       $unwind$??3UserAllocated@shdfnd@physx@@SAXPEAX@Z 0000000180000000     QuickHullConvexHullLib.obj
 0002:fffaf000       $unwind$??4PxPlane@physx@@QEAAAEAV01@AEBV01@@Z 0000000180000000     QuickHullConvexHullLib.obj
 0002:fffaf000       $unwind$??A?$Array@VHalfEdge@ConvexHull@physx@@VNamedAllocator@shdfnd@3@@shdfnd@physx@@QEAAAEAVHalfEdge@ConvexHull@2@I@Z 0000000180000000     QuickHullConvexHullLib.obj
 0002:fffaf000       $unwind$??APxVec3@physx@@QEAAAEAMI@Z 0000000180000000     QuickHullConvexHullLib.obj
 0002:fffaf000       $unwind$??B?$PxFlags@W4Enum@PxBaseFlag@physx@@G@physx@@QEBA_NXZ 0000000180000000     QuickHullConvexHullLib.obj
 0002:fffaf000       $unwind$??B?$PxFlags@W4Enum@PxConvexFlag@physx@@G@physx@@QEBA_NXZ 0000000180000000     QuickHullConvexHullLib.obj
 0002:fffaf000       $unwind$??DPxVec3@physx@@QEBA?AV01@M@Z 0000000180000000     QuickHullConvexHullLib.obj
 0002:fffaf000       $unwind$??GPxVec3@physx@@QEBA?AV01@AEBV01@@Z 0000000180000000     QuickHullConvexHullLib.obj
 0002:fffaf000       $unwind$??GPxVec3@physx@@QEBA?AV01@XZ 0000000180000000     QuickHullConvexHullLib.obj
 0002:fffaf000       $unwind$??HPxVec3@physx@@QEBA?AV01@AEBV01@@Z 0000000180000000     QuickHullConvexHullLib.obj
 0002:fffaf000       $unwind$??I?$PxFlags@W4Enum@PxBaseFlag@physx@@G@physx@@QEBA?AV01@W4Enum@PxBaseFlag@1@@Z 0000000180000000     QuickHullConvexHullLib.obj
 0002:fffaf000       $unwind$??I?$PxFlags@W4Enum@PxConvexFlag@physx@@G@physx@@QEBA?AV01@W4Enum@PxConvexFlag@1@@Z 0000000180000000     QuickHullConvexHullLib.obj
 0002:fffaf000       $unwind$??_EPxConvexMesh@physx@@MEAAPEAXI@Z 0000000180000000     QuickHullConvexHullLib.obj
 0002:fffaf000       $unwind$??_EPxFoundation@physx@@MEAAPEAXI@Z 0000000180000000     QuickHullConvexHullLib.obj
 0002:fffaf000       $unwind$??_FAllocator@shdfnd@physx@@QEAAXXZ 0000000180000000     QuickHullConvexHullLib.obj
 0002:fffaf000       $unwind$??_FNamedAllocator@shdfnd@physx@@QEAAXXZ 0000000180000000     QuickHullConvexHullLib.obj
 0002:fffaf000       $unwind$??_GConvexHullLib@physx@@UEAAPEAXI@Z 0000000180000000     QuickHullConvexHullLib.obj
 0002:fffaf000       $unwind$??_GPxBase@physx@@MEAAPEAXI@Z 0000000180000000     QuickHullConvexHullLib.obj
 0002:fffaf000       $unwind$??_GPxFoundation@physx@@MEAAPEAXI@Z 0000000180000000     QuickHullConvexHullLib.obj
 0002:fffaf000       $unwind$??_H@YAXPEAX_K1P6APEAX0@Z@Z 0000000180000000     QuickHullConvexHullLib.obj
 0002:fffaf000       $unwind$??_I@YAXPEAX_K1P6AX0@Z@Z 0000000180000000     QuickHullConvexHullLib.obj
 0002:fffaf000       $unwind$?PxAbs@physx@@YAMM@Z 0000000180000000     QuickHullConvexHullLib.obj
 0002:fffaf000       $unwind$?PxMemCopy@physx@@YAPEAXPEAXPEBXI@Z 0000000180000000     QuickHullConvexHullLib.obj
 0002:fffaf000       $unwind$?PxMemSet@physx@@YAPEAXPEAXHI@Z 0000000180000000     QuickHullConvexHullLib.obj
 0002:fffaf000       $unwind$?PxSqrt@physx@@YAMM@Z 0000000180000000     QuickHullConvexHullLib.obj
 0002:fffaf000       $unwind$?abs@intrinsics@physx@@YAMM@Z 0000000180000000     QuickHullConvexHullLib.obj
 0002:fffaf000       $unwind$?allocate@?$Array@VPxPlane@physx@@VNamedAllocator@shdfnd@2@@shdfnd@physx@@IEAAPEAVPxPlane@3@I@Z 0000000180000000     QuickHullConvexHullLib.obj
 0002:fffaf000       $unwind$?allocate@?$ReflectionAllocator@E@shdfnd@physx@@QEAAPEAX_KPEBDH@Z 0000000180000000     QuickHullConvexHullLib.obj
 0002:fffaf000       $unwind$?allocate@?$ReflectionAllocator@G@shdfnd@physx@@QEAAPEAX_KPEBDH@Z 0000000180000000     QuickHullConvexHullLib.obj
 0002:fffaf000       $unwind$?allocate@?$ReflectionAllocator@VConvexHull@physx@@@shdfnd@physx@@QEAAPEAX_KPEBDH@Z 0000000180000000     QuickHullConvexHullLib.obj
 0002:fffaf000       $unwind$?capacityIncrement@?$Array@VPxPlane@physx@@VNamedAllocator@shdfnd@2@@shdfnd@physx@@IEBAIXZ 0000000180000000     QuickHullConvexHullLib.obj
 0002:fffaf000       $unwind$?copy@?$Array@VPxPlane@physx@@VNamedAllocator@shdfnd@2@@shdfnd@physx@@KAXPEAVPxPlane@3@0PEBV43@@Z 0000000180000000     QuickHullConvexHullLib.obj
 0002:fffaf000       $unwind$?cross@PxVec3@physx@@QEBA?AV12@AEBV12@@Z 0000000180000000     QuickHullConvexHullLib.obj
 0002:fffaf000       $unwind$?deallocate@?$Array@VHalfEdge@ConvexHull@physx@@VNamedAllocator@shdfnd@3@@shdfnd@physx@@IEAAXPEAX@Z 0000000180000000     QuickHullConvexHullLib.obj
 0002:fffaf000       $unwind$?deallocate@?$Array@VPxPlane@physx@@VNamedAllocator@shdfnd@2@@shdfnd@physx@@IEAAXPEAX@Z 0000000180000000     QuickHullConvexHullLib.obj
 0002:fffaf000       $unwind$?deallocate@?$Array@VPxVec3@physx@@VNamedAllocator@shdfnd@2@@shdfnd@physx@@IEAAXPEAX@Z 0000000180000000     QuickHullConvexHullLib.obj
 0002:fffaf000       $unwind$?deallocate@NonTrackingAllocator@shdfnd@physx@@QEAAXPEAX@Z 0000000180000000     QuickHullConvexHullLib.obj
 0002:fffaf000       $unwind$?getDeterminant@PxMat33@physx@@QEBAMXZ 0000000180000000     QuickHullConvexHullLib.obj
 0002:fffaf000       $unwind$?getFoundation@shdfnd@physx@@YAAEAVFoundation@12@XZ 0000000180000000     QuickHullConvexHullLib.obj
 0002:fffaf000       $unwind$?getInverse@PxMat33@physx@@QEBA?BV12@XZ 0000000180000000     QuickHullConvexHullLib.obj
 0002:fffaf000       $unwind$?getName@?$ReflectionAllocator@E@shdfnd@physx@@CAPEBDXZ 0000000180000000     QuickHullConvexHullLib.obj
 0002:fffaf000       $unwind$?getName@?$ReflectionAllocator@G@shdfnd@physx@@CAPEBDXZ 0000000180000000     QuickHullConvexHullLib.obj
 0002:fffaf000       $unwind$?getName@?$ReflectionAllocator@VConvexHull@physx@@@shdfnd@physx@@CAPEBDXZ 0000000180000000     QuickHullConvexHullLib.obj
 0002:fffaf000       $unwind$?getTranspose@PxMat33@physx@@QEBA?BV12@XZ 0000000180000000     QuickHullConvexHullLib.obj
 0002:fffaf000       $unwind$?grow@?$Array@VPxPlane@physx@@VNamedAllocator@shdfnd@2@@shdfnd@physx@@IEAAXI@Z 0000000180000000     QuickHullConvexHullLib.obj
 0002:fffaf000       $unwind$?growAndPushBack@?$Array@VPxPlane@physx@@VNamedAllocator@shdfnd@2@@shdfnd@physx@@IEAAAEAVPxPlane@3@AEBV43@@Z 0000000180000000     QuickHullConvexHullLib.obj
 0002:fffaf000       $unwind$?isKindOf@PxBase@physx@@MEBA_NPEBD@Z 0000000180000000     QuickHullConvexHullLib.obj
 0002:fffaf000       $unwind$?isKindOf@PxConvexMesh@physx@@MEBA_NPEBD@Z 0000000180000000     QuickHullConvexHullLib.obj
 0002:fffaf000       $unwind$?isReleasable@PxBase@physx@@UEBA_NXZ 0000000180000000     QuickHullConvexHullLib.obj
 0002:fffaf000       $unwind$?magnitude@PxVec3@physx@@QEBAMXZ 0000000180000000     QuickHullConvexHullLib.obj
 0002:fffaf000       $unwind$?memCopy@intrinsics@physx@@YAPEAXPEAXPEBXI@Z 0000000180000000     QuickHullConvexHullLib.obj
 0002:fffaf000       $unwind$?memSet@intrinsics@physx@@YAPEAXPEAXHI@Z 0000000180000000     QuickHullConvexHullLib.obj
 0002:fffaf000       $unwind$?multiply@PxVec3@physx@@QEBA?AV12@AEBV12@@Z 0000000180000000     QuickHullConvexHullLib.obj
 0002:fffaf000       $unwind$?name@type_info@@QEBAPEBDXZ 0000000180000000     QuickHullConvexHullLib.obj
 0002:fffaf000       $unwind$?normalize@PxVec3@physx@@QEAAMXZ 0000000180000000     QuickHullConvexHullLib.obj
 0002:fffaf000       $unwind$?pushBack@?$Array@VPxPlane@physx@@VNamedAllocator@shdfnd@2@@shdfnd@physx@@QEAAAEAVPxPlane@3@AEBV43@@Z 0000000180000000     QuickHullConvexHullLib.obj
 0002:fffaf000       $unwind$?recreate@?$Array@VPxPlane@physx@@VNamedAllocator@shdfnd@2@@shdfnd@physx@@IEAAXI@Z 0000000180000000     QuickHullConvexHullLib.obj
 0002:fffaf000       $unwind$?reserve@?$Array@VPxPlane@physx@@VNamedAllocator@shdfnd@2@@shdfnd@physx@@QEAAXI@Z 0000000180000000     QuickHullConvexHullLib.obj
 0002:fffaf000       $unwind$?selectMax@intrinsics@physx@@YAMMM@Z 0000000180000000     QuickHullConvexHullLib.obj
 0002:fffaf000       $unwind$?sqrt@intrinsics@physx@@YAMM@Z 0000000180000000     QuickHullConvexHullLib.obj
 0002:fffaf000       $unwind$?to16@shdfnd@physx@@YAGI@Z 0000000180000000     QuickHullConvexHullLib.obj
 0002:fffaf000       $unwind$?to8@shdfnd@physx@@YAEI@Z 0000000180000000     QuickHullConvexHullLib.obj
 0002:fffaf000       $unwind$?transform@PxMat33@physx@@QEBA?BVPxVec3@2@AEBV32@@Z 0000000180000000     QuickHullConvexHullLib.obj
 0002:fffaf000       $unwind$fabsf              0000000180000000     QuickHullConvexHullLib.obj
 0002:fffaf000       $unwind$??$PxMax@I@physx@@YAIII@Z 0000000180000000     RTreeCooking.obj
 0002:fffaf000       $unwind$??$PxMax@M@physx@@YAMMM@Z 0000000180000000     RTreeCooking.obj
 0002:fffaf000       $unwind$??$PxMin@M@physx@@YAMMM@Z 0000000180000000     RTreeCooking.obj
 0002:fffaf000       $unwind$??$swap@I@shdfnd@physx@@YAXAEAI0@Z 0000000180000000     RTreeCooking.obj
 0002:fffaf000       $unwind$??0?$Array@VPxVec3@physx@@VNamedAllocator@shdfnd@2@@shdfnd@physx@@QEAA@AEBVNamedAllocator@12@@Z 0000000180000000     RTreeCooking.obj
 0002:fffaf000       $unwind$??0PxBounds3@physx@@QEAA@AEBV01@@Z 0000000180000000     RTreeCooking.obj
 0002:fffaf000       $unwind$??1?$Array@VPxVec3@physx@@VNamedAllocator@shdfnd@2@@shdfnd@physx@@QEAA@XZ 0000000180000000     RTreeCooking.obj
 0002:fffaf000       $unwind$??1PxConvexMesh@physx@@MEAA@XZ 0000000180000000     RTreeCooking.obj
 0002:fffaf000       $unwind$??APxVec3@physx@@QEBAAEBMI@Z 0000000180000000     RTreeCooking.obj
 0002:fffaf000       $unwind$??B?$PxFlags@W4Enum@PxBaseFlag@physx@@G@physx@@QEBA_NXZ 0000000180000000     RTreeCooking.obj
 0002:fffaf000       $unwind$??HPxVec3@physx@@QEBA?AV01@AEBV01@@Z 0000000180000000     RTreeCooking.obj
 0002:fffaf000       $unwind$??I?$PxFlags@W4Enum@PxBaseFlag@physx@@G@physx@@QEBA?AV01@W4Enum@PxBaseFlag@1@@Z 0000000180000000     RTreeCooking.obj
 0002:fffaf000       $unwind$??_EPxConvexMesh@physx@@MEAAPEAXI@Z 0000000180000000     RTreeCooking.obj
 0002:fffaf000       $unwind$??_EPxFoundation@physx@@MEAAPEAXI@Z 0000000180000000     RTreeCooking.obj
 0002:fffaf000       $unwind$??_FAllocator@shdfnd@physx@@QEAAXXZ 0000000180000000     RTreeCooking.obj
 0002:fffaf000       $unwind$??_FNamedAllocator@shdfnd@physx@@QEAAXXZ 0000000180000000     RTreeCooking.obj
 0002:fffaf000       $unwind$??_GPxBase@physx@@MEAAPEAXI@Z 0000000180000000     RTreeCooking.obj
 0002:fffaf000       $unwind$??_GPxFoundation@physx@@MEAAPEAXI@Z 0000000180000000     RTreeCooking.obj
 0002:fffaf000       $unwind$??_H@YAXPEAX_K1P6APEAX0@Z@Z 0000000180000000     RTreeCooking.obj
 0002:fffaf000       $unwind$??_I@YAXPEAX_K1P6AX0@Z@Z 0000000180000000     RTreeCooking.obj
 0002:fffaf000       $unwind$?FLoad@aos@shdfnd@physx@@YA?AT__m128@@M@Z 0000000180000000     RTreeCooking.obj
 0002:fffaf000       $unwind$?PxAbs@physx@@YAMM@Z 0000000180000000     RTreeCooking.obj
 0002:fffaf000       $unwind$?PxIsFinite@physx@@YA_NM@Z 0000000180000000     RTreeCooking.obj
 0002:fffaf000       $unwind$?PxMemCopy@physx@@YAPEAXPEAXPEBXI@Z 0000000180000000     RTreeCooking.obj
 0002:fffaf000       $unwind$?V3Load@aos@shdfnd@physx@@YA?AT__m128@@M@Z 0000000180000000     RTreeCooking.obj
 0002:fffaf000       $unwind$?V4Load@aos@shdfnd@physx@@YA?AT__m128@@M@Z 0000000180000000     RTreeCooking.obj
 0002:fffaf000       $unwind$?V4StoreA@aos@shdfnd@physx@@YAXT__m128@@PEAM@Z 0000000180000000     RTreeCooking.obj
 0002:fffaf000       $unwind$?abs@intrinsics@physx@@YAMM@Z 0000000180000000     RTreeCooking.obj
 0002:fffaf000       $unwind$?allocate@?$Array@VPxVec3@physx@@VNamedAllocator@shdfnd@2@@shdfnd@physx@@IEAAPEAVPxVec3@3@I@Z 0000000180000000     RTreeCooking.obj
 0002:fffaf000       $unwind$?capacityIncrement@?$Array@VPxVec3@physx@@VNamedAllocator@shdfnd@2@@shdfnd@physx@@IEBAIXZ 0000000180000000     RTreeCooking.obj
 0002:fffaf000       $unwind$?copy@?$Array@VPxVec3@physx@@VNamedAllocator@shdfnd@2@@shdfnd@physx@@KAXPEAVPxVec3@3@0PEBV43@@Z 0000000180000000     RTreeCooking.obj
 0002:fffaf000       $unwind$?deallocate@?$Array@VPxVec3@physx@@VNamedAllocator@shdfnd@2@@shdfnd@physx@@IEAAXPEAX@Z 0000000180000000     RTreeCooking.obj
 0002:fffaf000       $unwind$?deallocate@NonTrackingAllocator@shdfnd@physx@@QEAAXPEAX@Z 0000000180000000     RTreeCooking.obj
 0002:fffaf000       $unwind$?growAndPushBack@?$Array@VPxVec3@physx@@VNamedAllocator@shdfnd@2@@shdfnd@physx@@IEAAAEAVPxVec3@3@AEBV43@@Z 0000000180000000     RTreeCooking.obj
 0002:fffaf000       $unwind$?isAligned16@aos@shdfnd@physx@@YA_NPEAX@Z 0000000180000000     RTreeCooking.obj
 0002:fffaf000       $unwind$?isFinite@PxBounds3@physx@@QEBA_NXZ 0000000180000000     RTreeCooking.obj
 0002:fffaf000       $unwind$?isFinite@PxVec3@physx@@QEBA_NXZ 0000000180000000     RTreeCooking.obj
 0002:fffaf000       $unwind$?isFinite@intrinsics@physx@@YA_NM@Z 0000000180000000     RTreeCooking.obj
 0002:fffaf000       $unwind$?isKindOf@PxBase@physx@@MEBA_NPEBD@Z 0000000180000000     RTreeCooking.obj
 0002:fffaf000       $unwind$?isKindOf@PxConvexMesh@physx@@MEBA_NPEBD@Z 0000000180000000     RTreeCooking.obj
 0002:fffaf000       $unwind$?isReleasable@PxBase@physx@@UEBA_NXZ 0000000180000000     RTreeCooking.obj
 0002:fffaf000       $unwind$?isValid@PxBounds3@physx@@QEBA_NXZ 0000000180000000     RTreeCooking.obj
 0002:fffaf000       $unwind$?memCopy@intrinsics@physx@@YAPEAXPEAXPEBXI@Z 0000000180000000     RTreeCooking.obj
 0002:fffaf000       $unwind$?pushBack@?$Array@VPxVec3@physx@@VNamedAllocator@shdfnd@2@@shdfnd@physx@@QEAAAEAVPxVec3@3@AEBV43@@Z 0000000180000000     RTreeCooking.obj
 0002:fffaf000       $unwind$?selectMax@intrinsics@physx@@YAMMM@Z 0000000180000000     RTreeCooking.obj
 0002:fffaf000       $unwind$?selectMin@intrinsics@physx@@YAMMM@Z 0000000180000000     RTreeCooking.obj
 0002:fffaf000       $unwind$?setEmpty@PxBounds3@physx@@QEAAXXZ 0000000180000000     RTreeCooking.obj
 0002:fffaf000       $unwind$fabsf              0000000180000000     RTreeCooking.obj
 0002:fffaf000       $unwind$??$?_UI@@YAPEAX_KV?$ReflectionAllocator@I@shdfnd@physx@@PEBDH@Z 0000000180000000     TriangleMeshBuilder.obj
 0002:fffaf000       $unwind$??$PxMax@I@physx@@YAIII@Z 0000000180000000     TriangleMeshBuilder.obj
 0002:fffaf000       $unwind$??$PxMin@I@physx@@YAIII@Z 0000000180000000     TriangleMeshBuilder.obj
 0002:fffaf000       $unwind$??0?$ScopedPointer@HVTempAllocator@shdfnd@physx@@@shdfnd@physx@@QEAA@XZ 0000000180000000     TriangleMeshBuilder.obj
 0002:fffaf000       $unwind$??0?$Stack@VNamedAllocator@shdfnd@physx@@@internal@shdfnd@physx@@QEAA@PEAHIAEBVNamedAllocator@23@@Z 0000000180000000     TriangleMeshBuilder.obj
 0002:fffaf000       $unwind$??0PxBounds3@physx@@QEAA@AEBVPxVec3@1@0@Z 0000000180000000     TriangleMeshBuilder.obj
 0002:fffaf000       $unwind$??1?$Array@IVNamedAllocator@shdfnd@physx@@@shdfnd@physx@@QEAA@XZ 0000000180000000     TriangleMeshBuilder.obj
 0002:fffaf000       $unwind$??1?$ScopedPointer@HVTempAllocator@shdfnd@physx@@@shdfnd@physx@@QEAA@XZ 0000000180000000     TriangleMeshBuilder.obj
 0002:fffaf000       $unwind$??1?$Stack@VNamedAllocator@shdfnd@physx@@@internal@shdfnd@physx@@QEAA@XZ 0000000180000000     TriangleMeshBuilder.obj
 0002:fffaf000       $unwind$??1PxConvexMesh@physx@@MEAA@XZ 0000000180000000     TriangleMeshBuilder.obj
 0002:fffaf000       $unwind$??3UserAllocated@shdfnd@physx@@SAXPEAX@Z 0000000180000000     TriangleMeshBuilder.obj
 0002:fffaf000       $unwind$??B?$PxFlags@W4Enum@PxBaseFlag@physx@@G@physx@@QEBA_NXZ 0000000180000000     TriangleMeshBuilder.obj
 0002:fffaf000       $unwind$??B?$PxFlags@W4Enum@PxMeshFlag@physx@@G@physx@@QEBA_NXZ 0000000180000000     TriangleMeshBuilder.obj
 0002:fffaf000       $unwind$??B?$PxFlags@W4Enum@PxMeshPreprocessingFlag@physx@@I@physx@@QEBA_NXZ 0000000180000000     TriangleMeshBuilder.obj
 0002:fffaf000       $unwind$??DPxVec3@physx@@QEBA?AV01@M@Z 0000000180000000     TriangleMeshBuilder.obj
 0002:fffaf000       $unwind$??GPxVec3@physx@@QEBA?AV01@AEBV01@@Z 0000000180000000     TriangleMeshBuilder.obj
 0002:fffaf000       $unwind$??I?$PxFlags@W4Enum@PxBaseFlag@physx@@G@physx@@QEBA?AV01@W4Enum@PxBaseFlag@1@@Z 0000000180000000     TriangleMeshBuilder.obj
 0002:fffaf000       $unwind$??I?$PxFlags@W4Enum@PxMeshFlag@physx@@G@physx@@QEBA?AV01@W4Enum@PxMeshFlag@1@@Z 0000000180000000     TriangleMeshBuilder.obj
 0002:fffaf000       $unwind$??I?$PxFlags@W4Enum@PxMeshPreprocessingFlag@physx@@I@physx@@QEBA?AV01@W4Enum@PxMeshPreprocessingFlag@1@@Z 0000000180000000     TriangleMeshBuilder.obj
 0002:fffaf000       $unwind$??_EPxConvexMesh@physx@@MEAAPEAXI@Z 0000000180000000     TriangleMeshBuilder.obj
 0002:fffaf000       $unwind$??_EPxFoundation@physx@@MEAAPEAXI@Z 0000000180000000     TriangleMeshBuilder.obj
 0002:fffaf000       $unwind$??_FAllocator@shdfnd@physx@@QEAAXXZ 0000000180000000     TriangleMeshBuilder.obj
 0002:fffaf000       $unwind$??_FNamedAllocator@shdfnd@physx@@QEAAXXZ 0000000180000000     TriangleMeshBuilder.obj
 0002:fffaf000       $unwind$??_GPxBase@physx@@MEAAPEAXI@Z 0000000180000000     TriangleMeshBuilder.obj
 0002:fffaf000       $unwind$??_GPxFoundation@physx@@MEAAPEAXI@Z 0000000180000000     TriangleMeshBuilder.obj
 0002:fffaf000       $unwind$??_H@YAXPEAX_K1P6APEAX0@Z@Z 0000000180000000     TriangleMeshBuilder.obj
 0002:fffaf000       $unwind$??_I@YAXPEAX_K1P6AX0@Z@Z 0000000180000000     TriangleMeshBuilder.obj
 0002:fffaf000       $unwind$?FLoad@aos@shdfnd@physx@@YA?AT__m128@@M@Z 0000000180000000     TriangleMeshBuilder.obj
 0002:fffaf000       $unwind$?PxIsFinite@physx@@YA_NM@Z 0000000180000000     TriangleMeshBuilder.obj
 0002:fffaf000       $unwind$?PxMemCopy@physx@@YAPEAXPEAXPEBXI@Z 0000000180000000     TriangleMeshBuilder.obj
 0002:fffaf000       $unwind$?PxRecipSqrt@physx@@YAMM@Z 0000000180000000     TriangleMeshBuilder.obj
 0002:fffaf000       $unwind$?V3Load@aos@shdfnd@physx@@YA?AT__m128@@M@Z 0000000180000000     TriangleMeshBuilder.obj
 0002:fffaf000       $unwind$?V4Load@aos@shdfnd@physx@@YA?AT__m128@@M@Z 0000000180000000     TriangleMeshBuilder.obj
 0002:fffaf000       $unwind$?allocate@?$ReflectionAllocator@I@shdfnd@physx@@QEAAPEAX_KPEBDH@Z 0000000180000000     TriangleMeshBuilder.obj
 0002:fffaf000       $unwind$?cross@PxVec3@physx@@QEBA?AV12@AEBV12@@Z 0000000180000000     TriangleMeshBuilder.obj
 0002:fffaf000       $unwind$?deallocate@?$Array@IVNamedAllocator@shdfnd@physx@@@shdfnd@physx@@IEAAXPEAX@Z 0000000180000000     TriangleMeshBuilder.obj
 0002:fffaf000       $unwind$?deallocate@NonTrackingAllocator@shdfnd@physx@@QEAAXPEAX@Z 0000000180000000     TriangleMeshBuilder.obj
 0002:fffaf000       $unwind$?distance@PxPlane@physx@@QEBAMAEBVPxVec3@2@@Z 0000000180000000     TriangleMeshBuilder.obj
 0002:fffaf000       $unwind$?empty@?$Stack@VNamedAllocator@shdfnd@physx@@@internal@shdfnd@physx@@QEAA_NXZ 0000000180000000     TriangleMeshBuilder.obj
 0002:fffaf000       $unwind$?empty@PxBounds3@physx@@SA?AV12@XZ 0000000180000000     TriangleMeshBuilder.obj
 0002:fffaf000       $unwind$?gatherStrided@Cooking@physx@@SAXPEBXPEAXIII@Z 0000000180000000     TriangleMeshBuilder.obj
 0002:fffaf000       $unwind$?getFoundation@shdfnd@physx@@YAAEAVFoundation@12@XZ 0000000180000000     TriangleMeshBuilder.obj
 0002:fffaf000       $unwind$?getName@?$ReflectionAllocator@I@shdfnd@physx@@CAPEBDXZ 0000000180000000     TriangleMeshBuilder.obj
 0002:fffaf000       $unwind$?getNormalized@PxVec3@physx@@QEBA?AV12@XZ 0000000180000000     TriangleMeshBuilder.obj
 0002:fffaf000       $unwind$?grow@?$Stack@VNamedAllocator@shdfnd@physx@@@internal@shdfnd@physx@@QEAAXXZ 0000000180000000     TriangleMeshBuilder.obj
 0002:fffaf000       $unwind$?isFinite@intrinsics@physx@@YA_NM@Z 0000000180000000     TriangleMeshBuilder.obj
 0002:fffaf000       $unwind$?isKindOf@PxBase@physx@@MEBA_NPEBD@Z 0000000180000000     TriangleMeshBuilder.obj
 0002:fffaf000       $unwind$?isKindOf@PxConvexMesh@physx@@MEBA_NPEBD@Z 0000000180000000     TriangleMeshBuilder.obj
 0002:fffaf000       $unwind$?isReleasable@PxBase@physx@@UEBA_NXZ 0000000180000000     TriangleMeshBuilder.obj
 0002:fffaf000       $unwind$?isValid@PxSimpleTriangleMesh@physx@@QEBA_NXZ 0000000180000000     TriangleMeshBuilder.obj
 0002:fffaf000       $unwind$?isValid@PxTriangleMeshDesc@physx@@QEBA_NXZ 0000000180000000     TriangleMeshBuilder.obj
 0002:fffaf000       $unwind$?memCopy@intrinsics@physx@@YAPEAXPEAXPEBXI@Z 0000000180000000     TriangleMeshBuilder.obj
 0002:fffaf000       $unwind$?name@type_info@@QEBAPEBDXZ 0000000180000000     TriangleMeshBuilder.obj
 0002:fffaf000       $unwind$?pop@?$Stack@VNamedAllocator@shdfnd@physx@@@internal@shdfnd@physx@@QEAAXAEAH0@Z 0000000180000000     TriangleMeshBuilder.obj
 0002:fffaf000       $unwind$?push@?$Stack@VNamedAllocator@shdfnd@physx@@@internal@shdfnd@physx@@QEAAXHH@Z 0000000180000000     TriangleMeshBuilder.obj
 0002:fffaf000       $unwind$?recipSqrt@intrinsics@physx@@YAMM@Z 0000000180000000     TriangleMeshBuilder.obj
 0002:fffaf000       $unwind$??0PxBoundedData@physx@@QEAA@XZ 0000000180000000     VolumeIntegration.obj
 0002:fffaf000       $unwind$??0PxSimpleTriangleMesh@physx@@QEAA@AEBV01@@Z 0000000180000000     VolumeIntegration.obj
 0002:fffaf000       $unwind$??1PxConvexMesh@physx@@MEAA@XZ 0000000180000000     VolumeIntegration.obj
 0002:fffaf000       $unwind$??APxVec3@physx@@QEBAAEBMI@Z 0000000180000000     VolumeIntegration.obj
 0002:fffaf000       $unwind$??B?$PxFlags@W4Enum@PxBaseFlag@physx@@G@physx@@QEBA_NXZ 0000000180000000     VolumeIntegration.obj
 0002:fffaf000       $unwind$??B?$PxFlags@W4Enum@PxMeshFlag@physx@@G@physx@@QEBA_NXZ 0000000180000000     VolumeIntegration.obj
 0002:fffaf000       $unwind$??GPxVec3@physx@@QEBA?AV01@AEBV01@@Z 0000000180000000     VolumeIntegration.obj
 0002:fffaf000       $unwind$??GPxVec3@physx@@QEBA?AV01@XZ 0000000180000000     VolumeIntegration.obj
 0002:fffaf000       $unwind$??HPxVec3@physx@@QEBA?AV01@AEBV01@@Z 0000000180000000     VolumeIntegration.obj
 0002:fffaf000       $unwind$??I?$PxFlags@W4Enum@PxBaseFlag@physx@@G@physx@@QEBA?AV01@W4Enum@PxBaseFlag@1@@Z 0000000180000000     VolumeIntegration.obj
 0002:fffaf000       $unwind$??I?$PxFlags@W4Enum@PxMeshFlag@physx@@G@physx@@QEBA?AV01@W4Enum@PxMeshFlag@1@@Z 0000000180000000     VolumeIntegration.obj
 0002:fffaf000       $unwind$??_EPxConvexMesh@physx@@MEAAPEAXI@Z 0000000180000000     VolumeIntegration.obj
 0002:fffaf000       $unwind$??_EPxFoundation@physx@@MEAAPEAXI@Z 0000000180000000     VolumeIntegration.obj
 0002:fffaf000       $unwind$??_FAllocator@shdfnd@physx@@QEAAXXZ 0000000180000000     VolumeIntegration.obj
 0002:fffaf000       $unwind$??_FNamedAllocator@shdfnd@physx@@QEAAXXZ 0000000180000000     VolumeIntegration.obj
 0002:fffaf000       $unwind$??_GPxBase@physx@@MEAAPEAXI@Z 0000000180000000     VolumeIntegration.obj
 0002:fffaf000       $unwind$??_GPxFoundation@physx@@MEAAPEAXI@Z 0000000180000000     VolumeIntegration.obj
 0002:fffaf000       $unwind$??_I@YAXPEAX_K1P6AX0@Z@Z 0000000180000000     VolumeIntegration.obj
 0002:fffaf000       $unwind$?FAdd@aos@shdfnd@physx@@YA?AT__m128@@T4@0@Z 0000000180000000     VolumeIntegration.obj
 0002:fffaf000       $unwind$?FLoad@aos@shdfnd@physx@@YA?AT__m128@@M@Z 0000000180000000     VolumeIntegration.obj
 0002:fffaf000       $unwind$?FMul@aos@shdfnd@physx@@YA?AT__m128@@T4@0@Z 0000000180000000     VolumeIntegration.obj
 0002:fffaf000       $unwind$?FScaleAdd@aos@shdfnd@physx@@YA?AT__m128@@T4@00@Z 0000000180000000     VolumeIntegration.obj
 0002:fffaf000       $unwind$?FStore@aos@shdfnd@physx@@YAXT__m128@@PEIAM@Z 0000000180000000     VolumeIntegration.obj
 0002:fffaf000       $unwind$?PxAbs@physx@@YAMM@Z 0000000180000000     VolumeIntegration.obj
 0002:fffaf000       $unwind$?PxMemCopy@physx@@YAPEAXPEAXPEBXI@Z 0000000180000000     VolumeIntegration.obj
 0002:fffaf000       $unwind$?PxSqrt@physx@@YAMM@Z 0000000180000000     VolumeIntegration.obj
 0002:fffaf000       $unwind$?V3Load@aos@shdfnd@physx@@YA?AT__m128@@M@Z 0000000180000000     VolumeIntegration.obj
 0002:fffaf000       $unwind$?V3StoreU@aos@shdfnd@physx@@YAXT__m128@@AEAVPxVec3@3@@Z 0000000180000000     VolumeIntegration.obj
 0002:fffaf000       $unwind$?V4Add@aos@shdfnd@physx@@YA?AT__m128@@T4@0@Z 0000000180000000     VolumeIntegration.obj
 0002:fffaf000       $unwind$?V4ClearW@aos@shdfnd@physx@@YA?AT__m128@@T4@@Z 0000000180000000     VolumeIntegration.obj
 0002:fffaf000       $unwind$?V4GetX@aos@shdfnd@physx@@YA?AT__m128@@T4@@Z 0000000180000000     VolumeIntegration.obj
 0002:fffaf000       $unwind$?V4Load@aos@shdfnd@physx@@YA?AT__m128@@M@Z 0000000180000000     VolumeIntegration.obj
 0002:fffaf000       $unwind$?V4LoadU@aos@shdfnd@physx@@YA?AT__m128@@QEBM@Z 0000000180000000     VolumeIntegration.obj
 0002:fffaf000       $unwind$?V4Mul@aos@shdfnd@physx@@YA?AT__m128@@T4@0@Z 0000000180000000     VolumeIntegration.obj
 0002:fffaf000       $unwind$?V4MulAdd@aos@shdfnd@physx@@YA?AT__m128@@T4@00@Z 0000000180000000     VolumeIntegration.obj
 0002:fffaf000       $unwind$?V4Neg@aos@shdfnd@physx@@YA?AT__m128@@T4@@Z 0000000180000000     VolumeIntegration.obj
 0002:fffaf000       $unwind$?V4Sub@aos@shdfnd@physx@@YA?AT__m128@@T4@0@Z 0000000180000000     VolumeIntegration.obj
 0002:fffaf000       $unwind$?Vec3V_From_Vec4V@aos@shdfnd@physx@@YA?AT__m128@@T4@@Z 0000000180000000     VolumeIntegration.obj
 0002:fffaf000       $unwind$?abs@intrinsics@physx@@YAMM@Z 0000000180000000     VolumeIntegration.obj
 0002:fffaf000       $unwind$?cross@PxVec3@physx@@QEBA?AV12@AEBV12@@Z 0000000180000000     VolumeIntegration.obj
 0002:fffaf000       $unwind$?isKindOf@PxBase@physx@@MEBA_NPEBD@Z 0000000180000000     VolumeIntegration.obj
 0002:fffaf000       $unwind$?isKindOf@PxConvexMesh@physx@@MEBA_NPEBD@Z 0000000180000000     VolumeIntegration.obj
 0002:fffaf000       $unwind$?isReleasable@PxBase@physx@@UEBA_NXZ 0000000180000000     VolumeIntegration.obj
 0002:fffaf000       $unwind$?isValidFloatV@aos@shdfnd@physx@@YA_NT__m128@@@Z 0000000180000000     VolumeIntegration.obj
 0002:fffaf000       $unwind$?magnitude@PxVec3@physx@@QEBAMXZ 0000000180000000     VolumeIntegration.obj
 0002:fffaf000       $unwind$?memCopy@intrinsics@physx@@YAPEAXPEAXPEBXI@Z 0000000180000000     VolumeIntegration.obj
 0002:fffaf000       $unwind$?normalize@PxVec3@physx@@QEAAMXZ 0000000180000000     VolumeIntegration.obj
 0002:fffaf000       $unwind$?sqrt@intrinsics@physx@@YAMM@Z 0000000180000000     VolumeIntegration.obj
 0002:fffaf000       $unwind$fabsf              0000000180000000     VolumeIntegration.obj
 0002:fffaf000       __guard_ehcont_?dllmain_dispatch@@YAHQEAUHINSTANCE__@@KQEAX@Z 0000000180000000     MSVCRTD:dll_dllmain.obj
 0002:fffaf000       __guard_fids_?dllmain_dispatch@@YAHQEAUHINSTANCE__@@KQEAX@Z 0000000180000000     MSVCRTD:dll_dllmain.obj
 0002:fffaf000       __guard_ehcont_?notify_debugger@@YAXAEBUtagEXCEPTION_VISUALCPP_DEBUG_INFO@@@Z 0000000180000000     MSVCRTD:error.obj
 0002:fffaf000       __guard_fids__             0000000180000000     MSVCRTD:guard_support.obj
 0002:fffaf000       __guard_fids__             0000000180000000     MSVCRTD:guard_support.obj
 0002:fffaf000       __guard_fids__guard_icall_checks_enforced 0000000180000000     MSVCRTD:guard_support.obj
 0002:fffaf000       __guard_fids__CRT_RTC_INIT 0000000180000000     MSVCRTD:init.obj
 0002:fffaf000       __guard_fids__CRT_RTC_INITW 0000000180000000     MSVCRTD:init.obj
 0002:fffaf000       __guard_fids__             0000000180000000     MSVCRTD:std_type_info_static.obj
 0002:fffaf000       __guard_ehcont___scrt_is_nonwritable_in_current_image 0000000180000000     MSVCRTD:utility.obj
 0002:fffaf000       __guard_fids___scrt_set_unhandled_exception_filter 0000000180000000     MSVCRTD:utility_desktop.obj
 0000:fff9c000       .debug$S                   0000000180000000     vcruntimed:VCRUNTIME140D.dll
 0000:fff9c000       .debug$S                   0000000180000000     vcruntimed:VCRUNTIME140D.dll
 0000:fff9c000       .debug$S                   0000000180000000     vcruntimed:VCRUNTIME140D.dll
 0000:fff9c000       .debug$S                   0000000180000000     vcruntimed:VCRUNTIME140D.dll
 0000:fff9c000       .debug$S                   0000000180000000     vcruntimed:VCRUNTIME140D.dll
 0000:fff9c000       .debug$S                   0000000180000000     vcruntimed:VCRUNTIME140D.dll
 0000:fff9c000       .debug$S                   0000000180000000     vcruntimed:VCRUNTIME140D.dll
 0000:fff9c000       .debug$S                   0000000180000000     vcruntimed:VCRUNTIME140D.dll
 0000:fff9c000       .debug$S                   0000000180000000     vcruntimed:VCRUNTIME140D.dll
 0000:fff9c000       .debug$S                   0000000180000000     vcruntimed:VCRUNTIME140D.dll
 0000:fff9c000       .debug$S                   0000000180000000     vcruntimed:VCRUNTIME140D.dll
 0000:fff9c000       .debug$S                   0000000180000000     vcruntimed:VCRUNTIME140D.dll
 0000:fff9c000       .debug$S                   0000000180000000     vcruntimed:VCRUNTIME140D.dll
 0000:fff9c000       .debug$S                   0000000180000000     ucrtd:ucrtbased.dll
 0000:fff9c000       .debug$S                   0000000180000000     ucrtd:ucrtbased.dll
 0000:fff9c000       .debug$S                   0000000180000000     ucrtd:ucrtbased.dll
 0000:fff9c000       .debug$S                   0000000180000000     ucrtd:ucrtbased.dll
 0000:fff9c000       .debug$S                   0000000180000000     ucrtd:ucrtbased.dll
 0000:fff9c000       .debug$S                   0000000180000000     ucrtd:ucrtbased.dll
 0000:fff9c000       .debug$S                   0000000180000000     ucrtd:ucrtbased.dll
 0000:fff9c000       .debug$S                   0000000180000000     ucrtd:ucrtbased.dll
 0000:fff9c000       .debug$S                   0000000180000000     ucrtd:ucrtbased.dll
 0000:fff9c000       .debug$S                   0000000180000000     ucrtd:ucrtbased.dll
 0000:fff9c000       .debug$S                   0000000180000000     ucrtd:ucrtbased.dll
 0000:fff9c000       .debug$S                   0000000180000000     ucrtd:ucrtbased.dll
 0000:fff9c000       .debug$S                   0000000180000000     ucrtd:ucrtbased.dll
 0000:fff9c000       .debug$S                   0000000180000000     ucrtd:ucrtbased.dll
 0000:fff9c000       .debug$S                   0000000180000000     ucrtd:ucrtbased.dll
 0000:fff9c000       .debug$S                   0000000180000000     ucrtd:ucrtbased.dll
 0000:fff9c000       .debug$S                   0000000180000000     ucrtd:ucrtbased.dll
 0000:fff9c000       .debug$S                   0000000180000000     ucrtd:ucrtbased.dll
 0000:fff9c000       .debug$S                   0000000180000000     ucrtd:ucrtbased.dll
 0000:fff9c000       .debug$S                   0000000180000000     ucrtd:ucrtbased.dll
 0000:fff9c000       .debug$S                   0000000180000000     ucrtd:ucrtbased.dll
 0000:fff9c000       .debug$S                   0000000180000000     ucrtd:ucrtbased.dll
 0000:fff9c000       .debug$S                   0000000180000000     ucrtd:ucrtbased.dll
 0000:fff9c000       .debug$S                   0000000180000000     ucrtd:ucrtbased.dll
 0000:fff9c000       .debug$S                   0000000180000000     ucrtd:ucrtbased.dll
 0000:fff9c000       .debug$S                   0000000180000000     ucrtd:ucrtbased.dll
 0000:fff9c000       .debug$S                   0000000180000000     ucrtd:ucrtbased.dll
 0000:fff9c000       .debug$S                   0000000180000000     ucrtd:ucrtbased.dll
 0000:fff9c000       .debug$S                   0000000180000000     ucrtd:ucrtbased.dll
 0000:fff9c000       .debug$S                   0000000180000000     ucrtd:ucrtbased.dll
 0000:fff9c000       .debug$S                   0000000180000000     ucrtd:ucrtbased.dll
 0000:fff9c000       .debug$S                   0000000180000000     ucrtd:ucrtbased.dll
 0000:fff9c000       .debug$S                   0000000180000000     kernel32:KERNEL32.dll
 0000:fff9c000       .debug$S                   0000000180000000     kernel32:KERNEL32.dll
 0000:fff9c000       .debug$S                   0000000180000000     kernel32:KERNEL32.dll
 0000:fff9c000       .debug$S                   0000000180000000     kernel32:KERNEL32.dll
 0000:fff9c000       .debug$S                   0000000180000000     kernel32:KERNEL32.dll
 0000:fff9c000       .debug$S                   0000000180000000     kernel32:KERNEL32.dll
 0000:fff9c000       .debug$S                   0000000180000000     kernel32:KERNEL32.dll
 0000:fff9c000       .debug$S                   0000000180000000     kernel32:KERNEL32.dll
 0000:fff9c000       .debug$S                   0000000180000000     kernel32:KERNEL32.dll
 0000:fff9c000       .debug$S                   0000000180000000     kernel32:KERNEL32.dll
 0000:fff9c000       .debug$S                   0000000180000000     kernel32:KERNEL32.dll
 0000:fff9c000       .debug$S                   0000000180000000     kernel32:KERNEL32.dll
 0000:fff9c000       .debug$S                   0000000180000000     kernel32:KERNEL32.dll
 0000:fff9c000       .debug$S                   0000000180000000     kernel32:KERNEL32.dll
 0000:fff9c000       .debug$S                   0000000180000000     kernel32:KERNEL32.dll
 0000:fff9c000       .debug$S                   0000000180000000     kernel32:KERNEL32.dll
 0000:fff9c000       .debug$S                   0000000180000000     kernel32:KERNEL32.dll
 0000:fff9c000       .debug$S                   0000000180000000     kernel32:KERNEL32.dll
 0000:fff9c000       .debug$S                   0000000180000000     kernel32:KERNEL32.dll
 0000:fff9c000       .debug$S                   0000000180000000     kernel32:KERNEL32.dll
 0000:fff9c000       .debug$S                   0000000180000000     kernel32:KERNEL32.dll
 0000:fff9c000       .debug$S                   0000000180000000     kernel32:KERNEL32.dll
 0000:fff9c000       .debug$S                   0000000180000000     kernel32:KERNEL32.dll
 0000:fff9c000       .debug$S                   0000000180000000     kernel32:KERNEL32.dll
 0000:fff9c000       .debug$S                   0000000180000000     kernel32:KERNEL32.dll
 0000:fff9c000       .debug$S                   0000000180000000     kernel32:KERNEL32.dll
 0000:fff9c000       .debug$S                   0000000180000000     kernel32:KERNEL32.dll
 0000:fff9c000       .debug$S                   0000000180000000     kernel32:KERNEL32.dll
 0000:fff9c000       .debug$S                   0000000180000000     PhysXCommon_64:PhysXCommon_64d.dll
 0000:fff9c000       .debug$S                   0000000180000000     PhysXCommon_64:PhysXCommon_64d.dll
 0000:fff9c000       .debug$S                   0000000180000000     PhysXCommon_64:PhysXCommon_64d.dll
 0000:fff9c000       .debug$S                   0000000180000000     PhysXCommon_64:PhysXCommon_64d.dll
 0000:fff9c000       .debug$S                   0000000180000000     PhysXCommon_64:PhysXCommon_64d.dll
 0000:fff9c000       .debug$S                   0000000180000000     PhysXCommon_64:PhysXCommon_64d.dll
 0000:fff9c000       .debug$S                   0000000180000000     PhysXCommon_64:PhysXCommon_64d.dll
 0000:fff9c000       .debug$S                   0000000180000000     PhysXCommon_64:PhysXCommon_64d.dll
 0000:fff9c000       .debug$S                   0000000180000000     PhysXCommon_64:PhysXCommon_64d.dll
 0000:fff9c000       .debug$S                   0000000180000000     PhysXCommon_64:PhysXCommon_64d.dll
 0000:fff9c000       .debug$S                   0000000180000000     PhysXCommon_64:PhysXCommon_64d.dll
 0000:fff9c000       .debug$S                   0000000180000000     PhysXCommon_64:PhysXCommon_64d.dll
 0000:fff9c000       .debug$S                   0000000180000000     PhysXCommon_64:PhysXCommon_64d.dll
 0000:fff9c000       .debug$S                   0000000180000000     PhysXCommon_64:PhysXCommon_64d.dll
 0000:fff9c000       .debug$S                   0000000180000000     PhysXCommon_64:PhysXCommon_64d.dll
 0000:fff9c000       .debug$S                   0000000180000000     PhysXCommon_64:PhysXCommon_64d.dll
 0000:fff9c000       .debug$S                   0000000180000000     PhysXCommon_64:PhysXCommon_64d.dll
 0000:fff9c000       .debug$S                   0000000180000000     PhysXCommon_64:PhysXCommon_64d.dll
 0000:fff9c000       .debug$S                   0000000180000000     PhysXCommon_64:PhysXCommon_64d.dll
 0000:fff9c000       .debug$S                   0000000180000000     PhysXCommon_64:PhysXCommon_64d.dll
 0000:fff9c000       .debug$S                   0000000180000000     PhysXCommon_64:PhysXCommon_64d.dll
 0000:fff9c000       .debug$S                   0000000180000000     PhysXCommon_64:PhysXCommon_64d.dll
 0000:fff9c000       .debug$S                   0000000180000000     PhysXCommon_64:PhysXCommon_64d.dll
 0000:fff9c000       .debug$S                   0000000180000000     PhysXCommon_64:PhysXCommon_64d.dll
 0000:fff9c000       .debug$S                   0000000180000000     PhysXCommon_64:PhysXCommon_64d.dll
 0000:fff9c000       .debug$S                   0000000180000000     PhysXCommon_64:PhysXCommon_64d.dll
 0000:fff9c000       .debug$S                   0000000180000000     PhysXCommon_64:PhysXCommon_64d.dll
 0000:fff9c000       .debug$S                   0000000180000000     PhysXCommon_64:PhysXCommon_64d.dll
 0000:fff9c000       .debug$S                   0000000180000000     PhysXCommon_64:PhysXCommon_64d.dll
 0000:fff9c000       .debug$S                   0000000180000000     PhysXCommon_64:PhysXCommon_64d.dll
 0000:fff9c000       .debug$S                   0000000180000000     PhysXCommon_64:PhysXCommon_64d.dll
 0000:fff9c000       .debug$S                   0000000180000000     PhysXCommon_64:PhysXCommon_64d.dll
 0000:fff9c000       .debug$S                   0000000180000000     PhysXCommon_64:PhysXCommon_64d.dll
 0000:fff9c000       .debug$S                   0000000180000000     PhysXCommon_64:PhysXCommon_64d.dll
 0000:fff9c000       .debug$S                   0000000180000000     PhysXCommon_64:PhysXCommon_64d.dll
 0000:fff9c000       .debug$S                   0000000180000000     PhysXCommon_64:PhysXCommon_64d.dll
 0000:fff9c000       .debug$S                   0000000180000000     PhysXCommon_64:PhysXCommon_64d.dll
 0000:fff9c000       .debug$S                   0000000180000000     PhysXCommon_64:PhysXCommon_64d.dll
 0000:fff9c000       .debug$S                   0000000180000000     PhysXCommon_64:PhysXCommon_64d.dll
 0000:fff9c000       .debug$S                   0000000180000000     PhysXFoundation_64:PhysXFoundation_64d.dll
 0000:fff9c000       .debug$S                   0000000180000000     PhysXFoundation_64:PhysXFoundation_64d.dll
 0000:fff9c000       .debug$S                   0000000180000000     PhysXFoundation_64:PhysXFoundation_64d.dll
 0000:fff9c000       .debug$S                   0000000180000000     PhysXFoundation_64:PhysXFoundation_64d.dll
 0000:fff9c000       .debug$S                   0000000180000000     PhysXFoundation_64:PhysXFoundation_64d.dll
 0000:fff9c000       .debug$S                   0000000180000000     PhysXFoundation_64:PhysXFoundation_64d.dll
 0000:fff9c000       .debug$S                   0000000180000000     PhysXFoundation_64:PhysXFoundation_64d.dll
 0000:fff9c000       .debug$S                   0000000180000000     PhysXFoundation_64:PhysXFoundation_64d.dll
 0000:fff9c000       .debug$S                   0000000180000000     PhysXFoundation_64:PhysXFoundation_64d.dll
 0000:fff9c000       .debug$S                   0000000180000000     PhysXFoundation_64:PhysXFoundation_64d.dll
 0000:fff9c000       .debug$S                   0000000180000000     PhysXFoundation_64:PhysXFoundation_64d.dll
 0000:fff9c000       .debug$S                   0000000180000000     PhysXFoundation_64:PhysXFoundation_64d.dll
 0000:fff9c000       .debug$S                   0000000180000000     PhysXFoundation_64:PhysXFoundation_64d.dll
 0000:fff9c000       .debug$S                   0000000180000000     PhysXFoundation_64:PhysXFoundation_64d.dll
 0000:fff9c000       .debug$S                   0000000180000000     PhysXFoundation_64:PhysXFoundation_64d.dll
 0000:fff9c000       .debug$S                   0000000180000000     PhysXFoundation_64:PhysXFoundation_64d.dll
 0000:fff9c000       .debug$S                   0000000180000000     PhysXFoundation_64:PhysXFoundation_64d.dll
 0001:00000000       ??__EmaxFError@_VecMathTests@aos@shdfnd@physx@@YAXXZ 0000000180001000 f   Cooking.obj
 0001:00000030       ??__EmaxV3Error@_VecMathTests@aos@shdfnd@physx@@YAXXZ 0000000180001030 f   Cooking.obj
 0001:00000060       ??__EmaxV4Error@_VecMathTests@aos@shdfnd@physx@@YAXXZ 0000000180001060 f   Cooking.obj
 0001:00000090       ??__EminFError@_VecMathTests@aos@shdfnd@physx@@YAXXZ 0000000180001090 f   Cooking.obj
 0001:000000c0       ??__EminV3Error@_VecMathTests@aos@shdfnd@physx@@YAXXZ 00000001800010c0 f   Cooking.obj
 0001:000000f0       ??__EminV4Error@_VecMathTests@aos@shdfnd@physx@@YAXXZ 00000001800010f0 f   Cooking.obj
 0001:00000120       ??__EmaxFError@_VecMathTests@aos@shdfnd@physx@@YAXXZ 0000000180001120 f   BVHStructureBuilder.obj
 0001:00000150       ??__EmaxV3Error@_VecMathTests@aos@shdfnd@physx@@YAXXZ 0000000180001150 f   BVHStructureBuilder.obj
 0001:00000180       ??__EmaxV4Error@_VecMathTests@aos@shdfnd@physx@@YAXXZ 0000000180001180 f   BVHStructureBuilder.obj
 0001:000001b0       ??__EminFError@_VecMathTests@aos@shdfnd@physx@@YAXXZ 00000001800011b0 f   BVHStructureBuilder.obj
 0001:000001e0       ??__EminV3Error@_VecMathTests@aos@shdfnd@physx@@YAXXZ 00000001800011e0 f   BVHStructureBuilder.obj
 0001:00000210       ??__EminV4Error@_VecMathTests@aos@shdfnd@physx@@YAXXZ 0000000180001210 f   BVHStructureBuilder.obj
 0001:00000240       ??__EmaxFError@_VecMathTests@aos@shdfnd@physx@@YAXXZ 0000000180001240 f   RTreeCooking.obj
 0001:00000270       ??__EmaxV3Error@_VecMathTests@aos@shdfnd@physx@@YAXXZ 0000000180001270 f   RTreeCooking.obj
 0001:000002a0       ??__EmaxV4Error@_VecMathTests@aos@shdfnd@physx@@YAXXZ 00000001800012a0 f   RTreeCooking.obj
 0001:000002d0       ??__EminFError@_VecMathTests@aos@shdfnd@physx@@YAXXZ 00000001800012d0 f   RTreeCooking.obj
 0001:00000300       ??__EminV3Error@_VecMathTests@aos@shdfnd@physx@@YAXXZ 0000000180001300 f   RTreeCooking.obj
 0001:00000330       ??__EminV4Error@_VecMathTests@aos@shdfnd@physx@@YAXXZ 0000000180001330 f   RTreeCooking.obj
 0001:00000360       ??__EmaxFError@_VecMathTests@aos@shdfnd@physx@@YAXXZ 0000000180001360 f   MeshBuilder.obj
 0001:00000390       ??__EmaxV3Error@_VecMathTests@aos@shdfnd@physx@@YAXXZ 0000000180001390 f   MeshBuilder.obj
 0001:000003c0       ??__EmaxV4Error@_VecMathTests@aos@shdfnd@physx@@YAXXZ 00000001800013c0 f   MeshBuilder.obj
 0001:000003f0       ??__EminFError@_VecMathTests@aos@shdfnd@physx@@YAXXZ 00000001800013f0 f   MeshBuilder.obj
 0001:00000420       ??__EminV3Error@_VecMathTests@aos@shdfnd@physx@@YAXXZ 0000000180001420 f   MeshBuilder.obj
 0001:00000450       ??__EminV4Error@_VecMathTests@aos@shdfnd@physx@@YAXXZ 0000000180001450 f   MeshBuilder.obj
 0001:00000480       ??__EmaxFError@_VecMathTests@aos@shdfnd@physx@@YAXXZ 0000000180001480 f   TriangleMeshBuilder.obj
 0001:000004b0       ??__EmaxV3Error@_VecMathTests@aos@shdfnd@physx@@YAXXZ 00000001800014b0 f   TriangleMeshBuilder.obj
 0001:000004e0       ??__EmaxV4Error@_VecMathTests@aos@shdfnd@physx@@YAXXZ 00000001800014e0 f   TriangleMeshBuilder.obj
 0001:00000510       ??__EminFError@_VecMathTests@aos@shdfnd@physx@@YAXXZ 0000000180001510 f   TriangleMeshBuilder.obj
 0001:00000540       ??__EminV3Error@_VecMathTests@aos@shdfnd@physx@@YAXXZ 0000000180001540 f   TriangleMeshBuilder.obj
 0001:00000570       ??__EminV4Error@_VecMathTests@aos@shdfnd@physx@@YAXXZ 0000000180001570 f   TriangleMeshBuilder.obj
 0001:000005a0       ??__EmaxFError@_VecMathTests@aos@shdfnd@physx@@YAXXZ 00000001800015a0 f   BigConvexDataBuilder.obj
 0001:000005d0       ??__EmaxV3Error@_VecMathTests@aos@shdfnd@physx@@YAXXZ 00000001800015d0 f   BigConvexDataBuilder.obj
 0001:00000600       ??__EmaxV4Error@_VecMathTests@aos@shdfnd@physx@@YAXXZ 0000000180001600 f   BigConvexDataBuilder.obj
 0001:00000630       ??__EminFError@_VecMathTests@aos@shdfnd@physx@@YAXXZ 0000000180001630 f   BigConvexDataBuilder.obj
 0001:00000660       ??__EminV3Error@_VecMathTests@aos@shdfnd@physx@@YAXXZ 0000000180001660 f   BigConvexDataBuilder.obj
 0001:00000690       ??__EminV4Error@_VecMathTests@aos@shdfnd@physx@@YAXXZ 0000000180001690 f   BigConvexDataBuilder.obj
 0001:000006c0       ??__EmaxFError@_VecMathTests@aos@shdfnd@physx@@YAXXZ 00000001800016c0 f   ConvexHullBuilder.obj
 0001:000006f0       ??__EmaxV3Error@_VecMathTests@aos@shdfnd@physx@@YAXXZ 00000001800016f0 f   ConvexHullBuilder.obj
 0001:00000720       ??__EmaxV4Error@_VecMathTests@aos@shdfnd@physx@@YAXXZ 0000000180001720 f   ConvexHullBuilder.obj
 0001:00000750       ??__EminFError@_VecMathTests@aos@shdfnd@physx@@YAXXZ 0000000180001750 f   ConvexHullBuilder.obj
 0001:00000780       ??__EminV3Error@_VecMathTests@aos@shdfnd@physx@@YAXXZ 0000000180001780 f   ConvexHullBuilder.obj
 0001:000007b0       ??__EminV4Error@_VecMathTests@aos@shdfnd@physx@@YAXXZ 00000001800017b0 f   ConvexHullBuilder.obj
 0001:000007e0       ??__EMAXDOT_MINANG@local@@YAXXZ 00000001800017e0 f   ConvexHullUtils.obj
 0001:00000810       ??__EmaxFError@_VecMathTests@aos@shdfnd@physx@@YAXXZ 0000000180001810 f   ConvexHullUtils.obj
 0001:00000840       ??__EmaxV3Error@_VecMathTests@aos@shdfnd@physx@@YAXXZ 0000000180001840 f   ConvexHullUtils.obj
 0001:00000870       ??__EmaxV4Error@_VecMathTests@aos@shdfnd@physx@@YAXXZ 0000000180001870 f   ConvexHullUtils.obj
 0001:000008a0       ??__EminFError@_VecMathTests@aos@shdfnd@physx@@YAXXZ 00000001800018a0 f   ConvexHullUtils.obj
 0001:000008d0       ??__EminV3Error@_VecMathTests@aos@shdfnd@physx@@YAXXZ 00000001800018d0 f   ConvexHullUtils.obj
 0001:00000900       ??__EminV4Error@_VecMathTests@aos@shdfnd@physx@@YAXXZ 0000000180001900 f   ConvexHullUtils.obj
 0001:00000930       ??__EmaxFError@_VecMathTests@aos@shdfnd@physx@@YAXXZ 0000000180001930 f   ConvexMeshBuilder.obj
 0001:00000960       ??__EmaxV3Error@_VecMathTests@aos@shdfnd@physx@@YAXXZ 0000000180001960 f   ConvexMeshBuilder.obj
 0001:00000990       ??__EmaxV4Error@_VecMathTests@aos@shdfnd@physx@@YAXXZ 0000000180001990 f   ConvexMeshBuilder.obj
 0001:000009c0       ??__EminFError@_VecMathTests@aos@shdfnd@physx@@YAXXZ 00000001800019c0 f   ConvexMeshBuilder.obj
 0001:000009f0       ??__EminV3Error@_VecMathTests@aos@shdfnd@physx@@YAXXZ 00000001800019f0 f   ConvexMeshBuilder.obj
 0001:00000a20       ??__EminV4Error@_VecMathTests@aos@shdfnd@physx@@YAXXZ 0000000180001a20 f   ConvexMeshBuilder.obj
 0001:00000a50       ??__EMAXDOT_MINANG@local@@YAXXZ 0000000180001a50 f   QuickHullConvexHullLib.obj
 0001:00000a80       ??__EmaxFError@_VecMathTests@aos@shdfnd@physx@@YAXXZ 0000000180001a80 f   VolumeIntegration.obj
 0001:00000ab0       ??__EmaxV3Error@_VecMathTests@aos@shdfnd@physx@@YAXXZ 0000000180001ab0 f   VolumeIntegration.obj
 0001:00000ae0       ??__EmaxV4Error@_VecMathTests@aos@shdfnd@physx@@YAXXZ 0000000180001ae0 f   VolumeIntegration.obj
 0001:00000b10       ??__EminFError@_VecMathTests@aos@shdfnd@physx@@YAXXZ 0000000180001b10 f   VolumeIntegration.obj
 0001:00000b40       ??__EminV3Error@_VecMathTests@aos@shdfnd@physx@@YAXXZ 0000000180001b40 f   VolumeIntegration.obj
 0001:00000b70       ??__EminV4Error@_VecMathTests@aos@shdfnd@physx@@YAXXZ 0000000180001b70 f   VolumeIntegration.obj
 0001:00002220       ?AddEdge@@YAXIIIAEAIPEAVAdjEdge@@@Z 0000000180003220 f   Adjacencies.obj
 0001:00002290       ?AddTriangle@@YAXIIIIPEAVAdjTriangle@physx@@AEAIPEAVAdjEdge@@@Z 0000000180003290 f   Adjacencies.obj
 0001:00002410       ?UpdateLink@@YA_NIIIIPEAVAdjTriangle@physx@@AEBUADJACENCIESCREATE@2@@Z 0000000180003410 f   Adjacencies.obj
 0001:00002710       ?CreateDatabase@@YA_NPEAVAdjTriangle@physx@@IPEBVAdjEdge@@AEBUADJACENCIESCREATE@2@@Z 0000000180003710 f   Adjacencies.obj
 0001:000053d0       ??$reserveContainerMemory@UPxDebugLine@physx@@@Cm@physx@@YAPEAUPxDebugLine@1@AEAV?$Array@UPxDebugLine@physx@@VNamedAllocator@shdfnd@2@@shdfnd@1@I@Z 00000001800063d0 f   Cooking.obj
 0001:0000bf00       ?OppositeVertex@@YAIIIIII@Z 000000018000cf00 f   EdgeList.obj
 0001:0000d6f0       ?getHashValue@@YAIAEBVPxVec3@physx@@@Z 000000018000e6f0 f   MeshCleaner.obj
 0001:0000d760       ?getHashValue@@YAIAEBUIndices@@@Z 000000018000e760 f   MeshCleaner.obj
 0001:000120c0       ?buildFromBounds@physx@@YAXAEAURTree@Gu@1@PEBUPxBounds3V@1@IAEAV?$Array@IVNamedAllocator@shdfnd@physx@@@shdfnd@1@PEAURemapCallback@RTreeCooker@1@AEAT__m128@@4MW4Enum@PxMeshCookingHint@1@@Z 00000001800130c0 f   RTreeCooking.obj
 0001:00013290       ?PxSAH@physx@@YAXAEBT__m128@@AEAM@Z 0000000180014290 f   RTreeCooking.obj
 0001:00020060       ?binarySearch@physx@@YAIPEIBUEdgeTriLookup@1@IAEBU21@@Z 0000000180021060 f   TriangleMeshBuilder.obj
 0001:00020100       ?findAdjacent@physx@@YAIPEBVPxVec3@1@0PEBUuint3@1@IIIAEBVPxPlane@1@PEAUEdgeTriLookup@1@I@Z 0000000180021100 f   TriangleMeshBuilder.obj
 0001:00020370       ?buildAdjacencies@physx@@YAXPEAUuint4@1@PEAVPxVec3@1@PEBV31@PEBUuint3@1@I@Z 0000000180021370 f   TriangleMeshBuilder.obj
 0001:00020880       ?isEdgeNonconvex@physx@@YA_NI@Z 0000000180021880 f   TriangleMeshBuilder.obj
 0001:00026230       ??Dphysx@@YA?AVPxVec3@0@MAEBV10@@Z 0000000180027230 f   ConvexHullBuilder.obj
 0001:000262b0       ??$reserveContainerMemory@UPxDebugLine@physx@@@Cm@physx@@YAPEAUPxDebugLine@1@AEAV?$Array@UPxDebugLine@physx@@VNamedAllocator@shdfnd@2@@shdfnd@1@I@Z 00000001800272b0 f   ConvexHullBuilder.obj
 0001:0002ae00       ?checkPointsAABBValidity@local@@YA_NIPEBVPxVec3@physx@@IMMAEAV23@1AEAIPEAV23@_N@Z 000000018002be00 f   ConvexHullLib.obj
 0001:0002f2f0       ?planeTest@local@@YA?AW4PlaneTestResult@1@AEBVPxPlane@physx@@AEBVPxVec3@4@M@Z 00000001800302f0 f   ConvexHullUtils.obj
 0001:00034370       ??$reserveContainerMemory@UPxDebugLine@physx@@@Cm@physx@@YAPEAUPxDebugLine@1@AEAV?$Array@UPxDebugLine@physx@@VNamedAllocator@shdfnd@2@@shdfnd@1@I@Z 0000000180035370 f   ConvexMeshBuilder.obj
 0001:00035910       ?ComputeInternalExtent@@YAXAEAUConvexHullData@Gu@physx@@PEBUHullPolygonData@23@@Z 0000000180036910 f   ConvexMeshBuilder.obj
 0001:00038120       ?Flip@@YAXAEAUHullTriangleData@physx@@@Z 0000000180039120 f   ConvexPolygonsBuilder.obj
 0001:00038180       ?negatePlane@@YAXAEAUHullPolygonData@Gu@physx@@@Z 0000000180039180 f   ConvexPolygonsBuilder.obj
 0001:000381d0       ?inverseBuffer@@YA_NIPEAE@Z 00000001800391d0 f   ConvexPolygonsBuilder.obj
 0001:00038250       ?findLineStrip@@YA_NAEAV?$Array@IVNamedAllocator@shdfnd@physx@@@shdfnd@physx@@AEBV?$Array@VPair@@VNamedAllocator@shdfnd@physx@@@23@@Z 0000000180039250 f   ConvexPolygonsBuilder.obj
 0001:00038600       ?TestDuplicateTriangles@@YA_NAEAIPEAU?$TriangleT@I@Gu@physx@@_N@Z 0000000180039600 f   ConvexPolygonsBuilder.obj
 0001:00038880       ?testCulling@@YA_NAEBU?$TriangleT@I@Gu@physx@@PEBVPxVec3@3@AEBV43@@Z 0000000180039880 f   ConvexPolygonsBuilder.obj
 0001:00038940       ?TestUnifiedNormals@@YA_NIPEBVPxVec3@physx@@IPEAU?$TriangleT@I@Gu@2@_N@Z 0000000180039940 f   ConvexPolygonsBuilder.obj
 0001:00038af0       ?CleanFaces@@YA_NAEAIPEAU?$TriangleT@I@Gu@physx@@0PEAVPxVec3@3@@Z 0000000180039af0 f   ConvexPolygonsBuilder.obj
 0001:00038cf0       ?CheckFaces@@YA_NIPEBU?$TriangleT@I@Gu@physx@@IPEBVPxVec3@3@@Z 0000000180039cf0 f   ConvexPolygonsBuilder.obj
 0001:00038d70       ?computeNewellPlane@@YA_NAEAVPxPlane@physx@@IPEBEPEBVPxVec3@2@@Z 0000000180039d70 f   ConvexPolygonsBuilder.obj
 0001:00039020       ?checkRedundantVertices@@YAXAEAIAEAV?$Array@IVNamedAllocator@shdfnd@physx@@@shdfnd@physx@@AEBVConvexPolygonsBuilder@3@11@Z 000000018003a020 f   ConvexPolygonsBuilder.obj
 0001:00039660       ?extractHullPolygons@@YA_NAEAIAEAV?$Array@IVNamedAllocator@shdfnd@physx@@@shdfnd@physx@@AEBVConvexPolygonsBuilder@3@PEAV123@1@Z 000000018003a660 f   ConvexPolygonsBuilder.obj
 0001:0003a5d0       ?CheckFloodFill@Local@?8??extractHullPolygons@@YA_NAEAIAEAV?$Array@IVNamedAllocator@shdfnd@physx@@@shdfnd@physx@@AEBVConvexPolygonsBuilder@5@PEAV345@1@Z@SA_N1PEAVAdjTriangle@5@PEA_NPEBI@Z 000000018003b5d0 f   ConvexPolygonsBuilder.obj
 0001:0003a860       ?CheckFloodFillFace@Local@?8??extractHullPolygons@@YA_NAEAIAEAV?$Array@IVNamedAllocator@shdfnd@physx@@@shdfnd@physx@@AEBVConvexPolygonsBuilder@5@PEAV345@1@Z@SA_NIPEBVAdjTriangle@5@PEBI@Z 000000018003b860 f   ConvexPolygonsBuilder.obj
 0001:0003ab00       ?FloodFill@Local@?8??extractHullPolygons@@YA_NAEAIAEAV?$Array@IVNamedAllocator@shdfnd@physx@@@shdfnd@physx@@AEBVConvexPolygonsBuilder@5@PEAV345@1@Z@SAX1PEBVAdjTriangle@5@IPEA_N@Z 000000018003bb00 f   ConvexPolygonsBuilder.obj
 0001:0003ac20       ?GetNeighborFace@Local@?8??extractHullPolygons@@YA_NAEAIAEAV?$Array@IVNamedAllocator@shdfnd@physx@@@shdfnd@physx@@AEBVConvexPolygonsBuilder@5@PEAV345@1@Z@SA_NIIPEBVAdjTriangle@5@PEBI00@Z 000000018003bc20 f   ConvexPolygonsBuilder.obj
 0001:0003b880       ??Dphysx@@YA?AVPxVec3@0@MAEBV10@@Z 000000018003c880 f   QuickHullConvexHullLib.obj
 0001:00042e00       ?threePlaneIntersection@local@@YA?AVPxVec3@physx@@AEBVPxPlane@3@00@Z 0000000180043e00 f   QuickHullConvexHullLib.obj
 0001:00046850       ??Dphysx@@YA?AVPxVec3@0@MAEBV10@@Z 0000000180047850 f   VolumeIntegration.obj
 0001:00046a40       ??0VolumeIntegrator@?A0x2ef9918d@physx@@QEAA@VPxSimpleTriangleMesh@2@N@Z 0000000180047a40 f   VolumeIntegration.obj
 0001:00046ab0       ??1VolumeIntegrator@?A0x2ef9918d@physx@@QEAA@XZ 0000000180047ab0 f   VolumeIntegration.obj
 0001:00046ac0       ?computeVolumeIntegrals@VolumeIntegrator@?A0x2ef9918d@physx@@QEAA_NAEAUPxIntegrals@3@@Z 0000000180047ac0 f   VolumeIntegration.obj
 0001:00047570       ?computeCenterOfMass@VolumeIntegrator@?A0x2ef9918d@physx@@AEAA?AVPxVec3@3@XZ 0000000180048570 f   VolumeIntegration.obj
 0001:00047650       ?computeInertiaTensor@VolumeIntegrator@?A0x2ef9918d@physx@@AEAAXPEAN@Z 0000000180048650 f   VolumeIntegration.obj
 0001:00047920       ?computeCOMInertiaTensor@VolumeIntegrator@?A0x2ef9918d@physx@@AEAAXPEAN@Z 0000000180048920 f   VolumeIntegration.obj
 0001:00047c70       ?computeFaceNormal@VolumeIntegrator@?A0x2ef9918d@physx@@AEAAXAEAUFace@123@PEAI@Z 0000000180048c70 f   VolumeIntegration.obj
 0001:00047e20       ?computeProjectionIntegrals@VolumeIntegrator@?A0x2ef9918d@physx@@AEAAXAEBUFace@123@@Z 0000000180048e20 f   VolumeIntegration.obj
 0001:00048740       ?computeFaceIntegrals@VolumeIntegrator@?A0x2ef9918d@physx@@AEAAXAEBUFace@123@@Z 0000000180049740 f   VolumeIntegration.obj
 0001:00048e70       ??0VolumeIntegratorEberly@?A0x2ef9918d@physx@@QEAA@AEBVPxConvexMeshDesc@2@N@Z 0000000180049e70 f   VolumeIntegration.obj
 0001:00048ed0       ??1VolumeIntegratorEberly@?A0x2ef9918d@physx@@QEAA@XZ 0000000180049ed0 f   VolumeIntegration.obj
 0001:00048ee0       ?computeVolumeIntegralsSIMD@VolumeIntegratorEberly@?A0x2ef9918d@physx@@QEAA_NAEAUPxIntegrals@3@AEBVPxVec3@3@@Z 0000000180049ee0 f   VolumeIntegration.obj
 0001:0004a6c0       ?computeVolumeIntegrals@VolumeIntegratorEberly@?A0x2ef9918d@physx@@QEAA_NAEAUPxIntegrals@3@AEBVPxVec3@3@@Z 000000018004b6c0 f   VolumeIntegration.obj
 0001:0004c120       ?subexpressions@?A0x2ef9918d@physx@@YAXNNNAEAN00000@Z 000000018004d120 f   VolumeIntegration.obj
 0001:0004c2a0       ?subexpressionsSIMD@?A0x2ef9918d@physx@@YAXAEBT__m128@@00AEAT3@11111@Z 000000018004d2a0 f   VolumeIntegration.obj
 0001:0004c824       $LN12                      000000018004d824     WindowsCookingDelayLoadHook.obj
 0001:0004cbc0       $$000000                   000000018004dbc0     MSVCRTD:chkstk.obj
 0001:0004cc70       ?dllmain_crt_dispatch@@YAHQEAUHINSTANCE__@@KQEAX@Z 000000018004dc70 f   MSVCRTD:dll_dllmain.obj
 0001:0004cd00       ?dllmain_crt_process_attach@@YAHQEAUHINSTANCE__@@QEAX@Z 000000018004dd00 f   MSVCRTD:dll_dllmain.obj
 0001:0004ce40       ?dllmain_crt_process_detach@@YAH_N@Z 000000018004de40 f   MSVCRTD:dll_dllmain.obj
 0001:0004cee0       ?dllmain_dispatch@@YAHQEAUHINSTANCE__@@KQEAX@Z 000000018004dee0 f   MSVCRTD:dll_dllmain.obj
 0001:0004d020       ?dllmain_raw@@YAHQEAUHINSTANCE__@@KQEAX@Z 000000018004e020 f   MSVCRTD:dll_dllmain.obj
 0001:0004d1a0       __get_entropy              000000018004e1a0 f   MSVCRTD:gs_support.obj
 0001:0004d3b0       ?find_pe_section@@YAPEAU_IMAGE_SECTION_HEADER@@QEAE_K@Z 000000018004e3b0 f   MSVCRTD:utility.obj
 0001:0004d490       ?is_potentially_valid_image_base@@YA_NQEAX@Z 000000018004e490 f   MSVCRTD:utility.obj
 0001:0004dfd0       __castguard_compat_check   000000018004efd0 f   MSVCRTD:guard_support.obj
 0001:0004e150       __castguard_slow_path_compat_check 000000018004f150 f   MSVCRTD:guard_support.obj
 0001:0004e210       ?DebuggerProbe@@YA_NK@Z    000000018004f210 f   MSVCRTD:error.obj
 0001:0004e250       ?DebuggerRuntime@@YA_NKHPEAXPEB_W@Z 000000018004f250 f   MSVCRTD:error.obj
 0001:0004e520       ?_getMemBlockDataString@@YAXPEAD0PEBD_K@Z 000000018004f520 f   MSVCRTD:error.obj
 0001:0004e5e0       ?_strlen_priv@@YA_KPEBD@Z  000000018004f5e0 f   MSVCRTD:error.obj
 0001:0004e600       ?failwithmessage@@YAXPEAXHHPEBD@Z 000000018004f600 f   MSVCRTD:error.obj
 0001:0004e860       ?notify_debugger@@YAXAEBUtagEXCEPTION_VISUALCPP_DEBUG_INFO@@@Z 000000018004f860 f   MSVCRTD:error.obj
 0001:0004edd0       ?GetPdbDll@@YAPEAUHINSTANCE__@@XZ 000000018004fdd0 f   MSVCRTD:pdblkup.obj
 0001:0004ef20       ?GetPdbDllFromInstallPath@@YAPEAUHINSTANCE__@@XZ 000000018004ff20 f   MSVCRTD:pdblkup.obj
 0001:0004f1d0       ?GetPdbDllPathFromFilePath@@YAHPEB_WPEA_W_K@Z 00000001800501d0 f   MSVCRTD:pdblkup.obj
 0001:0004f7f0       $$000000                   00000001800507f0     MSVCRTD:amdsecgs.obj
 0001:0004fb20       capture_current_context    0000000180050b20 f   MSVCRTD:gs_report.obj
 0001:0004fbc0       capture_previous_context   0000000180050bc0 f   MSVCRTD:gs_report.obj
 0001:0004fe90       $$000000                   0000000180050e90     MSVCRTD:guard_dispatch.obj
 0001:0004feb0       $$000000                   0000000180050eb0     MSVCRTD:guard_xfg_dispatch.obj
 0001:0004fed0       ?fin$0@?0??dllmain_crt_process_attach@@YAHQEAUHINSTANCE__@@QEAX@Z@4HA 0000000180050ed0 f   MSVCRTD:dll_dllmain.obj
 0001:0004fef0       ?fin$0@?0??dllmain_crt_process_detach@@YAH_N@Z@4HA 0000000180050ef0 f   MSVCRTD:dll_dllmain.obj
 0001:0004ff0a       ?fin$1@?0??dllmain_crt_process_detach@@YAH_N@Z@4HA 0000000180050f0a f   MSVCRTD:dll_dllmain.obj
 0001:0004ff20       ?filt$0@?0??dllmain_dispatch@@YAHQEAUHINSTANCE__@@KQEAX@Z@4HA 0000000180050f20 f   MSVCRTD:dll_dllmain.obj
 0001:0004ff70       __scrt_is_nonwritable_in_current_image$filt$0 0000000180050f70 f   MSVCRTD:utility.obj
 0001:0004ffb0       ?filt$0@?0??notify_debugger@@YAXAEBUtagEXCEPTION_VISUALCPP_DEBUG_INFO@@@Z@4HA 0000000180050fb0 f   MSVCRTD:error.obj
 0002:00000460       ?minFError$initializer$@_VecMathTests@aos@shdfnd@physx@@3P6AXXZEA 0000000180051460     Cooking.obj
 0002:00000468       ?maxFError$initializer$@_VecMathTests@aos@shdfnd@physx@@3P6AXXZEA 0000000180051468     Cooking.obj
 0002:00000470       ?minV3Error$initializer$@_VecMathTests@aos@shdfnd@physx@@3P6AXXZEA 0000000180051470     Cooking.obj
 0002:00000478       ?maxV3Error$initializer$@_VecMathTests@aos@shdfnd@physx@@3P6AXXZEA 0000000180051478     Cooking.obj
 0002:00000480       ?minV4Error$initializer$@_VecMathTests@aos@shdfnd@physx@@3P6AXXZEA 0000000180051480     Cooking.obj
 0002:00000488       ?maxV4Error$initializer$@_VecMathTests@aos@shdfnd@physx@@3P6AXXZEA 0000000180051488     Cooking.obj
 0002:00000490       ?minFError$initializer$@_VecMathTests@aos@shdfnd@physx@@3P6AXXZEA 0000000180051490     BVHStructureBuilder.obj
 0002:00000498       ?maxFError$initializer$@_VecMathTests@aos@shdfnd@physx@@3P6AXXZEA 0000000180051498     BVHStructureBuilder.obj
 0002:000004a0       ?minV3Error$initializer$@_VecMathTests@aos@shdfnd@physx@@3P6AXXZEA 00000001800514a0     BVHStructureBuilder.obj
 0002:000004a8       ?maxV3Error$initializer$@_VecMathTests@aos@shdfnd@physx@@3P6AXXZEA 00000001800514a8     BVHStructureBuilder.obj
 0002:000004b0       ?minV4Error$initializer$@_VecMathTests@aos@shdfnd@physx@@3P6AXXZEA 00000001800514b0     BVHStructureBuilder.obj
 0002:000004b8       ?maxV4Error$initializer$@_VecMathTests@aos@shdfnd@physx@@3P6AXXZEA 00000001800514b8     BVHStructureBuilder.obj
 0002:000004c0       ?minFError$initializer$@_VecMathTests@aos@shdfnd@physx@@3P6AXXZEA 00000001800514c0     RTreeCooking.obj
 0002:000004c8       ?maxFError$initializer$@_VecMathTests@aos@shdfnd@physx@@3P6AXXZEA 00000001800514c8     RTreeCooking.obj
 0002:000004d0       ?minV3Error$initializer$@_VecMathTests@aos@shdfnd@physx@@3P6AXXZEA 00000001800514d0     RTreeCooking.obj
 0002:000004d8       ?maxV3Error$initializer$@_VecMathTests@aos@shdfnd@physx@@3P6AXXZEA 00000001800514d8     RTreeCooking.obj
 0002:000004e0       ?minV4Error$initializer$@_VecMathTests@aos@shdfnd@physx@@3P6AXXZEA 00000001800514e0     RTreeCooking.obj
 0002:000004e8       ?maxV4Error$initializer$@_VecMathTests@aos@shdfnd@physx@@3P6AXXZEA 00000001800514e8     RTreeCooking.obj
 0002:000004f0       ?minFError$initializer$@_VecMathTests@aos@shdfnd@physx@@3P6AXXZEA 00000001800514f0     MeshBuilder.obj
 0002:000004f8       ?maxFError$initializer$@_VecMathTests@aos@shdfnd@physx@@3P6AXXZEA 00000001800514f8     MeshBuilder.obj
 0002:00000500       ?minV3Error$initializer$@_VecMathTests@aos@shdfnd@physx@@3P6AXXZEA 0000000180051500     MeshBuilder.obj
 0002:00000508       ?maxV3Error$initializer$@_VecMathTests@aos@shdfnd@physx@@3P6AXXZEA 0000000180051508     MeshBuilder.obj
 0002:00000510       ?minV4Error$initializer$@_VecMathTests@aos@shdfnd@physx@@3P6AXXZEA 0000000180051510     MeshBuilder.obj
 0002:00000518       ?maxV4Error$initializer$@_VecMathTests@aos@shdfnd@physx@@3P6AXXZEA 0000000180051518     MeshBuilder.obj
 0002:00000520       ?minFError$initializer$@_VecMathTests@aos@shdfnd@physx@@3P6AXXZEA 0000000180051520     TriangleMeshBuilder.obj
 0002:00000528       ?maxFError$initializer$@_VecMathTests@aos@shdfnd@physx@@3P6AXXZEA 0000000180051528     TriangleMeshBuilder.obj
 0002:00000530       ?minV3Error$initializer$@_VecMathTests@aos@shdfnd@physx@@3P6AXXZEA 0000000180051530     TriangleMeshBuilder.obj
 0002:00000538       ?maxV3Error$initializer$@_VecMathTests@aos@shdfnd@physx@@3P6AXXZEA 0000000180051538     TriangleMeshBuilder.obj
 0002:00000540       ?minV4Error$initializer$@_VecMathTests@aos@shdfnd@physx@@3P6AXXZEA 0000000180051540     TriangleMeshBuilder.obj
 0002:00000548       ?maxV4Error$initializer$@_VecMathTests@aos@shdfnd@physx@@3P6AXXZEA 0000000180051548     TriangleMeshBuilder.obj
 0002:00000550       ?minFError$initializer$@_VecMathTests@aos@shdfnd@physx@@3P6AXXZEA 0000000180051550     BigConvexDataBuilder.obj
 0002:00000558       ?maxFError$initializer$@_VecMathTests@aos@shdfnd@physx@@3P6AXXZEA 0000000180051558     BigConvexDataBuilder.obj
 0002:00000560       ?minV3Error$initializer$@_VecMathTests@aos@shdfnd@physx@@3P6AXXZEA 0000000180051560     BigConvexDataBuilder.obj
 0002:00000568       ?maxV3Error$initializer$@_VecMathTests@aos@shdfnd@physx@@3P6AXXZEA 0000000180051568     BigConvexDataBuilder.obj
 0002:00000570       ?minV4Error$initializer$@_VecMathTests@aos@shdfnd@physx@@3P6AXXZEA 0000000180051570     BigConvexDataBuilder.obj
 0002:00000578       ?maxV4Error$initializer$@_VecMathTests@aos@shdfnd@physx@@3P6AXXZEA 0000000180051578     BigConvexDataBuilder.obj
 0002:00000580       ?minFError$initializer$@_VecMathTests@aos@shdfnd@physx@@3P6AXXZEA 0000000180051580     ConvexHullBuilder.obj
 0002:00000588       ?maxFError$initializer$@_VecMathTests@aos@shdfnd@physx@@3P6AXXZEA 0000000180051588     ConvexHullBuilder.obj
 0002:00000590       ?minV3Error$initializer$@_VecMathTests@aos@shdfnd@physx@@3P6AXXZEA 0000000180051590     ConvexHullBuilder.obj
 0002:00000598       ?maxV3Error$initializer$@_VecMathTests@aos@shdfnd@physx@@3P6AXXZEA 0000000180051598     ConvexHullBuilder.obj
 0002:000005a0       ?minV4Error$initializer$@_VecMathTests@aos@shdfnd@physx@@3P6AXXZEA 00000001800515a0     ConvexHullBuilder.obj
 0002:000005a8       ?maxV4Error$initializer$@_VecMathTests@aos@shdfnd@physx@@3P6AXXZEA 00000001800515a8     ConvexHullBuilder.obj
 0002:000005b0       ?minFError$initializer$@_VecMathTests@aos@shdfnd@physx@@3P6AXXZEA 00000001800515b0     ConvexHullUtils.obj
 0002:000005b8       ?maxFError$initializer$@_VecMathTests@aos@shdfnd@physx@@3P6AXXZEA 00000001800515b8     ConvexHullUtils.obj
 0002:000005c0       ?minV3Error$initializer$@_VecMathTests@aos@shdfnd@physx@@3P6AXXZEA 00000001800515c0     ConvexHullUtils.obj
 0002:000005c8       ?maxV3Error$initializer$@_VecMathTests@aos@shdfnd@physx@@3P6AXXZEA 00000001800515c8     ConvexHullUtils.obj
 0002:000005d0       ?minV4Error$initializer$@_VecMathTests@aos@shdfnd@physx@@3P6AXXZEA 00000001800515d0     ConvexHullUtils.obj
 0002:000005d8       ?maxV4Error$initializer$@_VecMathTests@aos@shdfnd@physx@@3P6AXXZEA 00000001800515d8     ConvexHullUtils.obj
 0002:000005e0       ?MAXDOT_MINANG$initializer$@local@@3P6AXXZEA 00000001800515e0     ConvexHullUtils.obj
 0002:000005e8       ?minFError$initializer$@_VecMathTests@aos@shdfnd@physx@@3P6AXXZEA 00000001800515e8     ConvexMeshBuilder.obj
 0002:000005f0       ?maxFError$initializer$@_VecMathTests@aos@shdfnd@physx@@3P6AXXZEA 00000001800515f0     ConvexMeshBuilder.obj
 0002:000005f8       ?minV3Error$initializer$@_VecMathTests@aos@shdfnd@physx@@3P6AXXZEA 00000001800515f8     ConvexMeshBuilder.obj
 0002:00000600       ?maxV3Error$initializer$@_VecMathTests@aos@shdfnd@physx@@3P6AXXZEA 0000000180051600     ConvexMeshBuilder.obj
 0002:00000608       ?minV4Error$initializer$@_VecMathTests@aos@shdfnd@physx@@3P6AXXZEA 0000000180051608     ConvexMeshBuilder.obj
 0002:00000610       ?maxV4Error$initializer$@_VecMathTests@aos@shdfnd@physx@@3P6AXXZEA 0000000180051610     ConvexMeshBuilder.obj
 0002:00000618       ?MAXDOT_MINANG$initializer$@local@@3P6AXXZEA 0000000180051618     QuickHullConvexHullLib.obj
 0002:00000620       ?minFError$initializer$@_VecMathTests@aos@shdfnd@physx@@3P6AXXZEA 0000000180051620     VolumeIntegration.obj
 0002:00000628       ?maxFError$initializer$@_VecMathTests@aos@shdfnd@physx@@3P6AXXZEA 0000000180051628     VolumeIntegration.obj
 0002:00000630       ?minV3Error$initializer$@_VecMathTests@aos@shdfnd@physx@@3P6AXXZEA 0000000180051630     VolumeIntegration.obj
 0002:00000638       ?maxV3Error$initializer$@_VecMathTests@aos@shdfnd@physx@@3P6AXXZEA 0000000180051638     VolumeIntegration.obj
 0002:00000640       ?minV4Error$initializer$@_VecMathTests@aos@shdfnd@physx@@3P6AXXZEA 0000000180051640     VolumeIntegration.obj
 0002:00000648       ?maxV4Error$initializer$@_VecMathTests@aos@shdfnd@physx@@3P6AXXZEA 0000000180051648     VolumeIntegration.obj
 0002:00000bc0       ?minus1w@?A0x1c5a828f@aos@shdfnd@physx@@3QBMB 0000000180051bc0     Cooking.obj
 0002:00000bd0       ?gMaskXYZ@internalWindowsSimd@aos@shdfnd@physx@@3QBIB 0000000180051bd0     Cooking.obj
 0002:000018b0       ?minus1w@?A0xe9e6febb@aos@shdfnd@physx@@3QBMB 00000001800528b0     BVHStructureBuilder.obj
 0002:000018c0       ?gMaskXYZ@internalWindowsSimd@aos@shdfnd@physx@@3QBIB 00000001800528c0     BVHStructureBuilder.obj
 0002:00001a60       ?stopAtTrisPerPage@physx@@3QBIB 0000000180052a60     RTreeCooking.obj
 0002:00001aa0       ?stopAtTrisPerLeaf@physx@@3QBIB 0000000180052aa0     RTreeCooking.obj
 0002:00001ae0       ?minus1w@?A0x8a289ca9@aos@shdfnd@physx@@3QBMB 0000000180052ae0     RTreeCooking.obj
 0002:00001af0       ?gMaskXYZ@internalWindowsSimd@aos@shdfnd@physx@@3QBIB 0000000180052af0     RTreeCooking.obj
 0002:00002440       ?minus1w@?A0x1c061e60@aos@shdfnd@physx@@3QBMB 0000000180053440     MeshBuilder.obj
 0002:00002450       ?gMaskXYZ@internalWindowsSimd@aos@shdfnd@physx@@3QBIB 0000000180053450     MeshBuilder.obj
 0002:00002470       ?minus1w@?A0x4be00c75@aos@shdfnd@physx@@3QBMB 0000000180053470     TriangleMeshBuilder.obj
 0002:00002480       ?gMaskXYZ@internalWindowsSimd@aos@shdfnd@physx@@3QBIB 0000000180053480     TriangleMeshBuilder.obj
 0002:00002f70       ?minus1w@?A0x46f53a0e@aos@shdfnd@physx@@3QBMB 0000000180053f70     BigConvexDataBuilder.obj
 0002:00002f80       ?gMaskXYZ@internalWindowsSimd@aos@shdfnd@physx@@3QBIB 0000000180053f80     BigConvexDataBuilder.obj
 0002:000030f0       ?minus1w@?A0xaf1782a9@aos@shdfnd@physx@@3QBMB 00000001800540f0     ConvexHullBuilder.obj
 0002:00003100       ?gMaskXYZ@internalWindowsSimd@aos@shdfnd@physx@@3QBIB 0000000180054100     ConvexHullBuilder.obj
 0002:000038d0       ?minus1w@?A0x72611b27@aos@shdfnd@physx@@3QBMB 00000001800548d0     ConvexHullUtils.obj
 0002:000038e0       ?gMaskXYZ@internalWindowsSimd@aos@shdfnd@physx@@3QBIB 00000001800548e0     ConvexHullUtils.obj
 0002:00003dc0       ?minus1w@?A0x61b322fc@aos@shdfnd@physx@@3QBMB 0000000180054dc0     ConvexMeshBuilder.obj
 0002:00003dd0       ?gMaskXYZ@internalWindowsSimd@aos@shdfnd@physx@@3QBIB 0000000180054dd0     ConvexMeshBuilder.obj
 0002:00004900       ?minus1w@?A0x2ef9918d@aos@shdfnd@physx@@3QBMB 0000000180055900     VolumeIntegration.obj
 0002:00004910       ?gMaskXYZ@internalWindowsSimd@aos@shdfnd@physx@@3QBIB 0000000180055910     VolumeIntegration.obj
 0002:00004a70       ?_RTC_errlist@@3QBQEBDB    0000000180055a70     MSVCRTD:userapi.obj
 0002:00004b50       ?_RTC_ErrorMessages@@3QBQEBDB 0000000180055b50     MSVCRTD:error.obj
 0002:00004b80       ?_RTC_NoFalsePositives@@3QBHB 0000000180055b80     MSVCRTD:error.obj
 0002:00004b98       ?stack_premsg@@3QBDB       0000000180055b98     MSVCRTD:error.obj
 0002:00004bb8       ?stack_postmsg@@3QBDB      0000000180055bb8     MSVCRTD:error.obj
 0002:00004bd0       ?uninit_premsg@@3QBDB      0000000180055bd0     MSVCRTD:error.obj
 0002:00004be0       ?uninit_postmsg@@3QBDB     0000000180055be0     MSVCRTD:error.obj
 0002:00005140       ?mspdbName@@3QB_WB         0000000180056140     MSVCRTD:pdblkup.obj
 0002:00005170       ?debugCrtFileName@@3QB_WB  0000000180056170     MSVCRTD:pdblkup.obj
 0002:000052d0       ?dllExt@?1??GetPdbDllPathFromFilePath@@YAHPEB_WPEA_W_K@Z@4QB_WB 00000001800562d0     MSVCRTD:pdblkup.obj
 0002:000052d8       ?mspdbFilename@?1??GetPdbDllPathFromFilePath@@YAHPEB_WPEA_W_K@Z@4QB_WB 00000001800562d8     MSVCRTD:pdblkup.obj
 0002:00005320       GS_ExceptionPointers       0000000180056320     MSVCRTD:gs_report.obj
 0002:00005940       _RTC_InitBase.rtc$IMZ      0000000180056940     Adjacencies.obj
 0002:00005948       _RTC_InitBase.rtc$IMZ      0000000180056948     Cooking.obj
 0002:00005950       _RTC_InitBase.rtc$IMZ      0000000180056950     CookingUtils.obj
 0002:00005958       _RTC_InitBase.rtc$IMZ      0000000180056958     EdgeList.obj
 0002:00005960       _RTC_InitBase.rtc$IMZ      0000000180056960     MeshCleaner.obj
 0002:00005968       _RTC_InitBase.rtc$IMZ      0000000180056968     Quantizer.obj
 0002:00005970       _RTC_InitBase.rtc$IMZ      0000000180056970     BVHStructureBuilder.obj
 0002:00005978       _RTC_InitBase.rtc$IMZ      0000000180056978     HeightFieldCooking.obj
 0002:00005980       _RTC_InitBase.rtc$IMZ      0000000180056980     RTreeCooking.obj
 0002:00005988       _RTC_InitBase.rtc$IMZ      0000000180056988     MeshBuilder.obj
 0002:00005990       _RTC_InitBase.rtc$IMZ      0000000180056990     TriangleMeshBuilder.obj
 0002:00005998       _RTC_InitBase.rtc$IMZ      0000000180056998     BigConvexDataBuilder.obj
 0002:000059a0       _RTC_InitBase.rtc$IMZ      00000001800569a0     ConvexHullBuilder.obj
 0002:000059a8       _RTC_InitBase.rtc$IMZ      00000001800569a8     ConvexHullLib.obj
 0002:000059b0       _RTC_InitBase.rtc$IMZ      00000001800569b0     ConvexHullUtils.obj
 0002:000059b8       _RTC_InitBase.rtc$IMZ      00000001800569b8     ConvexMeshBuilder.obj
 0002:000059c0       _RTC_InitBase.rtc$IMZ      00000001800569c0     ConvexPolygonsBuilder.obj
 0002:000059c8       _RTC_InitBase.rtc$IMZ      00000001800569c8     QuickHullConvexHullLib.obj
 0002:000059d0       _RTC_InitBase.rtc$IMZ      00000001800569d0     VolumeIntegration.obj
 0002:000059d8       _RTC_InitBase.rtc$IMZ      00000001800569d8     WindowsCookingDelayLoadHook.obj
 0002:000059f0       _RTC_Shutdown.rtc$TMZ      00000001800569f0     Adjacencies.obj
 0002:000059f8       _RTC_Shutdown.rtc$TMZ      00000001800569f8     Cooking.obj
 0002:00005a00       _RTC_Shutdown.rtc$TMZ      0000000180056a00     CookingUtils.obj
 0002:00005a08       _RTC_Shutdown.rtc$TMZ      0000000180056a08     EdgeList.obj
 0002:00005a10       _RTC_Shutdown.rtc$TMZ      0000000180056a10     MeshCleaner.obj
 0002:00005a18       _RTC_Shutdown.rtc$TMZ      0000000180056a18     Quantizer.obj
 0002:00005a20       _RTC_Shutdown.rtc$TMZ      0000000180056a20     BVHStructureBuilder.obj
 0002:00005a28       _RTC_Shutdown.rtc$TMZ      0000000180056a28     HeightFieldCooking.obj
 0002:00005a30       _RTC_Shutdown.rtc$TMZ      0000000180056a30     RTreeCooking.obj
 0002:00005a38       _RTC_Shutdown.rtc$TMZ      0000000180056a38     MeshBuilder.obj
 0002:00005a40       _RTC_Shutdown.rtc$TMZ      0000000180056a40     TriangleMeshBuilder.obj
 0002:00005a48       _RTC_Shutdown.rtc$TMZ      0000000180056a48     BigConvexDataBuilder.obj
 0002:00005a50       _RTC_Shutdown.rtc$TMZ      0000000180056a50     ConvexHullBuilder.obj
 0002:00005a58       _RTC_Shutdown.rtc$TMZ      0000000180056a58     ConvexHullLib.obj
 0002:00005a60       _RTC_Shutdown.rtc$TMZ      0000000180056a60     ConvexHullUtils.obj
 0002:00005a68       _RTC_Shutdown.rtc$TMZ      0000000180056a68     ConvexMeshBuilder.obj
 0002:00005a70       _RTC_Shutdown.rtc$TMZ      0000000180056a70     ConvexPolygonsBuilder.obj
 0002:00005a78       _RTC_Shutdown.rtc$TMZ      0000000180056a78     QuickHullConvexHullLib.obj
 0002:00005a80       _RTC_Shutdown.rtc$TMZ      0000000180056a80     VolumeIntegration.obj
 0002:00005a88       _RTC_Shutdown.rtc$TMZ      0000000180056a88     WindowsCookingDelayLoadHook.obj
 0002:00005a98       $unwind$??_H@YAXPEAX_K1P6APEAX0@Z@Z 0000000180056a98     Adjacencies.obj
 0002:00005aa0       $unwind$??_I@YAXPEAX_K1P6AX0@Z@Z 0000000180056aa0     Adjacencies.obj
 0002:00005aa8       $unwind$?memZero@intrinsics@physx@@YAPEAXPEAXI@Z 0000000180056aa8     Adjacencies.obj
 0002:00005ab0       $unwind$?PxMemZero@physx@@YAPEAXPEAXI@Z 0000000180056ab0     Adjacencies.obj
 0002:00005ab8       $unwind$??_GPxFoundation@physx@@MEAAPEAXI@Z 0000000180056ab8     Adjacencies.obj
 0002:00005ac0       $unwind$??_EPxFoundation@physx@@MEAAPEAXI@Z 0000000180056ac0     Adjacencies.obj
 0002:00005ac8       $unwind$?name@type_info@@QEBAPEBDXZ 0000000180056ac8     Adjacencies.obj
 0002:00005ad0       $unwind$??_FAllocator@shdfnd@physx@@QEAAXXZ 0000000180056ad0     Adjacencies.obj
 0002:00005ad8       $unwind$?deallocate@NonTrackingAllocator@shdfnd@physx@@QEAAXPEAX@Z 0000000180056ad8     Adjacencies.obj
 0002:00005ae0       $unwind$??_FNamedAllocator@shdfnd@physx@@QEAAXXZ 0000000180056ae0     Adjacencies.obj
 0002:00005ae8       $unwind$??3UserAllocated@shdfnd@physx@@SAXPEAX@Z 0000000180056ae8     Adjacencies.obj
 0002:00005af0       $unwind$??_VUserAllocated@shdfnd@physx@@SAXPEAX@Z 0000000180056af0     Adjacencies.obj
 0002:00005af8       $unwind$?ComputeNbBoundaryEdges@AdjTriangle@physx@@QEBAIXZ 0000000180056af8     Adjacencies.obj
 0002:00005b00       $unwind$?ComputeNbNeighbors@AdjTriangle@physx@@QEBAIXZ 0000000180056b00     Adjacencies.obj
 0002:00005b08       $unwind$?Flip@AdjTriangle@physx@@QEAAXXZ 0000000180056b08     Adjacencies.obj
 0002:00005b10       $unwind$??1Adjacencies@physx@@QEAA@XZ 0000000180056b10     Adjacencies.obj
 0002:00005b18       $unwind$?Load@Adjacencies@physx@@QEAA_NAEAVPxInputStream@2@@Z 0000000180056b18     Adjacencies.obj
 0002:00005b20       $unwind$?ComputeNbBoundaryEdges@Adjacencies@physx@@QEBAIXZ 0000000180056b20     Adjacencies.obj
 0002:00005b28       $unwind$?GetBoundaryVertices@Adjacencies@physx@@QEBA_NIPEA_NPEBU?$TriangleT@I@Gu@2@@Z 0000000180056b28     Adjacencies.obj
 0002:00005b30       $unwind$?MakeLastRef@Adjacencies@physx@@QEAA_NAEAVAdjTriangle@2@IPEAU?$TriangleT@I@Gu@2@@Z 0000000180056b30     Adjacencies.obj
 0002:00005b38       $unwind$?AssignNewEdgeCode@Adjacencies@physx@@AEAAXIE@Z 0000000180056b38     Adjacencies.obj
 0002:00005b40       $unwind$??0AdjacenciesBuilder@physx@@QEAA@XZ 0000000180056b40     Adjacencies.obj
 0002:00005b48       $unwind$??1AdjacenciesBuilder@physx@@QEAA@XZ 0000000180056b48     Adjacencies.obj
 0002:00005b50       $unwind$?Init@AdjacenciesBuilder@physx@@QEAA_NAEBUADJACENCIESCREATE@2@@Z 0000000180056b50     Adjacencies.obj
 0002:00005b58       $unwind$?AddTriangle@@YAXIIIIPEAVAdjTriangle@physx@@AEAIPEAVAdjEdge@@@Z 0000000180056b58     Adjacencies.obj
 0002:00005b60       $unwind$?UpdateLink@@YA_NIIIIPEAVAdjTriangle@physx@@AEBUADJACENCIESCREATE@2@@Z 0000000180056b60     Adjacencies.obj
 0002:00005b68       $unwind$?CreateDatabase@@YA_NPEAVAdjTriangle@physx@@IPEBVAdjEdge@@AEBUADJACENCIESCREATE@2@@Z 0000000180056b68     Adjacencies.obj
 0002:00005b70       $unwind$??_EAdjTriangle@physx@@QEAAPEAXI@Z 0000000180056b70     Adjacencies.obj
 0002:00005b78       $unwind$?getFoundation@shdfnd@physx@@YAAEAVFoundation@12@XZ 0000000180056b78     Adjacencies.obj
 0002:00005b80       $unwind$??$swap@I@shdfnd@physx@@YAXAEAI0@Z 0000000180056b80     Adjacencies.obj
 0002:00005b88       $unwind$?getName@?$ReflectionAllocator@VAdjTriangle@physx@@@shdfnd@physx@@CAPEBDXZ 0000000180056b88     Adjacencies.obj
 0002:00005b90       $unwind$?allocate@?$ReflectionAllocator@VAdjTriangle@physx@@@shdfnd@physx@@QEAAPEAX_KPEBDH@Z 0000000180056b90     Adjacencies.obj
 0002:00005b98       $unwind$??$?_UV?$ReflectionAllocator@VAdjTriangle@physx@@@shdfnd@physx@@@UserAllocated@shdfnd@physx@@SAPEAX_KV?$ReflectionAllocator@VAdjTriangle@physx@@@12@PEBDH@Z 0000000180056b98     Adjacencies.obj
 0002:00005ba0       $unwind$??_EAdjEdge@@QEAAPEAXI@Z 0000000180056ba0     Adjacencies.obj
 0002:00005ba8       $unwind$?getName@?$ReflectionAllocator@I@shdfnd@physx@@CAPEBDXZ 0000000180056ba8     Adjacencies.obj
 0002:00005bb0       $unwind$?allocate@?$ReflectionAllocator@I@shdfnd@physx@@QEAAPEAX_KPEBDH@Z 0000000180056bb0     Adjacencies.obj
 0002:00005bb8       $unwind$??$?_UI@@YAPEAX_KV?$ReflectionAllocator@I@shdfnd@physx@@PEBDH@Z 0000000180056bb8     Adjacencies.obj
 0002:00005bc0       $unwind$?getName@?$ReflectionAllocator@VAdjEdge@@@shdfnd@physx@@CAPEBDXZ 0000000180056bc0     Adjacencies.obj
 0002:00005bc8       $unwind$?allocate@?$ReflectionAllocator@VAdjEdge@@@shdfnd@physx@@QEAAPEAX_KPEBDH@Z 0000000180056bc8     Adjacencies.obj
 0002:00005bd0       $unwind$??$?_UV?$ReflectionAllocator@VAdjEdge@@@shdfnd@physx@@@UserAllocated@shdfnd@physx@@SAPEAX_KV?$ReflectionAllocator@VAdjEdge@@@12@PEBDH@Z 0000000180056bd0     Adjacencies.obj
 0002:00005bd8       $unwind$??I?$PxFlags@W4Enum@PxBaseFlag@physx@@G@physx@@QEBA?AV01@W4Enum@PxBaseFlag@1@@Z 0000000180056bd8     Cooking.obj
 0002:00005be0       $unwind$??B?$PxFlags@W4Enum@PxBaseFlag@physx@@G@physx@@QEBA_NXZ 0000000180056be0     Cooking.obj
 0002:00005be8       $unwind$?isReleasable@PxBase@physx@@UEBA_NXZ 0000000180056be8     Cooking.obj
 0002:00005bf0       $unwind$?isKindOf@PxBase@physx@@MEBA_NPEBD@Z 0000000180056bf0     Cooking.obj
 0002:00005bf8       $unwind$??_GPxBase@physx@@MEAAPEAXI@Z 0000000180056bf8     Cooking.obj
 0002:00005c00       $unwind$?fsel@intrinsics@physx@@YAMMMM@Z 0000000180056c00     Cooking.obj
 0002:00005c08       $unwind$?memCopy@intrinsics@physx@@YAPEAXPEAXPEBXI@Z 0000000180056c08     Cooking.obj
 0002:00005c10       $unwind$?PxMemCopy@physx@@YAPEAXPEAXPEBXI@Z 0000000180056c10     Cooking.obj
 0002:00005c18       $unwind$??I?$PxFlags@W4Enum@PxMeshFlag@physx@@G@physx@@QEBA?AV01@W4Enum@PxMeshFlag@1@@Z 0000000180056c18     Cooking.obj
 0002:00005c20       $unwind$??B?$PxFlags@W4Enum@PxMeshFlag@physx@@G@physx@@QEBA_NXZ 0000000180056c20     Cooking.obj
 0002:00005c28       $unwind$?isValid@PxSimpleTriangleMesh@physx@@QEBA_NXZ 0000000180056c28     Cooking.obj
 0002:00005c30       $unwind$??9?$PxFlags@W4Enum@PxHeightFieldFlag@physx@@G@physx@@QEBA_NAEBV01@@Z 0000000180056c30     Cooking.obj
 0002:00005c38       $unwind$??I?$PxFlags@W4Enum@PxHeightFieldFlag@physx@@G@physx@@QEBA?AV01@W4Enum@PxHeightFieldFlag@1@@Z 0000000180056c38     Cooking.obj
 0002:00005c40       $unwind$?isValid@PxHeightFieldDesc@physx@@QEBA_NXZ 0000000180056c40     Cooking.obj
 0002:00005c48       $unwind$?isValid@PxTriangleMeshDesc@physx@@QEBA_NXZ 0000000180056c48     Cooking.obj
 0002:00005c50       $unwind$??1PxConvexMesh@physx@@MEAA@XZ 0000000180056c50     Cooking.obj
 0002:00005c58       $unwind$?isKindOf@PxConvexMesh@physx@@MEBA_NPEBD@Z 0000000180056c58     Cooking.obj
 0002:00005c60       $unwind$??_EPxConvexMesh@physx@@MEAAPEAXI@Z 0000000180056c60     Cooking.obj
 0002:00005c68       $unwind$??I?$PxFlags@W4Enum@PxConvexFlag@physx@@G@physx@@QEBA?AV01@W4Enum@PxConvexFlag@1@@Z 0000000180056c68     Cooking.obj
 0002:00005c70       $unwind$??S?$PxFlags@W4Enum@PxConvexFlag@physx@@G@physx@@QEBA?AV01@XZ 0000000180056c70     Cooking.obj
 0002:00005c78       $unwind$??B?$PxFlags@W4Enum@PxConvexFlag@physx@@G@physx@@QEBA_NXZ 0000000180056c78     Cooking.obj
 0002:00005c80       $unwind$??Sphysx@@YA?AV?$PxFlags@W4Enum@PxConvexFlag@physx@@G@0@W4Enum@PxConvexFlag@0@@Z 0000000180056c80     Cooking.obj
 0002:00005c88       $unwind$?isValid@PxConvexMeshDesc@physx@@QEBA_NXZ 0000000180056c88     Cooking.obj
 0002:00005c90       $unwind$??0PxConvexMeshDesc@physx@@QEAA@AEBV01@@Z 0000000180056c90     Cooking.obj
 0002:00005c9c       $unwind$??0PxMat33@physx@@QEAA@XZ 0000000180056c9c     Cooking.obj
 0002:00005ca4       $unwind$??I?$PxFlags@W4Enum@PxMeshPreprocessingFlag@physx@@I@physx@@QEBA?AV01@W4Enum@PxMeshPreprocessingFlag@1@@Z 0000000180056ca4     Cooking.obj
 0002:00005cac       $unwind$??B?$PxFlags@W4Enum@PxMeshPreprocessingFlag@physx@@I@physx@@QEBA_NXZ 0000000180056cac     Cooking.obj
 0002:00005cb4       $unwind$??0PxCookingParams@physx@@QEAA@AEBU01@@Z 0000000180056cb4     Cooking.obj
 0002:00005cc0       $unwind$??4PxCookingParams@physx@@QEAAAEAU01@AEBU01@@Z 0000000180056cc0     Cooking.obj
 0002:00005ccc       $unwind$??_GPxCooking@physx@@MEAAPEAXI@Z 0000000180056ccc     Cooking.obj
 0002:00005cd4       $unwind$PxCreateCooking    0000000180056cd4     Cooking.obj
 0002:00005cdc       $unwind$?release@Cooking@physx@@UEAAXXZ 0000000180056cdc     Cooking.obj
 0002:00005ce4       $unwind$?setParams@Cooking@physx@@UEAAXAEBUPxCookingParams@2@@Z 0000000180056ce4     Cooking.obj
 0002:00005cec       $unwind$?platformMismatch@Cooking@physx@@UEBA_NXZ 0000000180056cec     Cooking.obj
 0002:00005cf4       $unwind$?cookTriangleMesh@Cooking@physx@@UEBA_NAEBVPxTriangleMeshDesc@2@AEAVPxOutputStream@2@PEAW4Enum@PxTriangleMeshCookingResult@2@@Z 0000000180056cf4     Cooking.obj
 0002:00005cfc       $unwind$?createTriangleMesh@Cooking@physx@@UEBAPEAVPxTriangleMesh@2@AEBVPxTriangleMeshDesc@2@AEAVPxPhysicsInsertionCallback@2@PEAW4Enum@PxTriangleMeshCookingResult@2@@Z 0000000180056cfc     Cooking.obj
 0002:00005d04       $unwind$?validateTriangleMesh@Cooking@physx@@UEBA_NAEBVPxTriangleMeshDesc@2@@Z 0000000180056d04     Cooking.obj
 0002:00005d0c       $unwind$?cookConvexMesh@Cooking@physx@@UEBA_NAEBVPxConvexMeshDesc@2@AEAVPxOutputStream@2@PEAW4Enum@PxConvexMeshCookingResult@2@@Z 0000000180056d0c     Cooking.obj
 0002:00005d14       $unwind$?createConvexMesh@Cooking@physx@@UEBAPEAVPxConvexMesh@2@AEBVPxConvexMeshDesc@2@AEAVPxPhysicsInsertionCallback@2@PEAW4Enum@PxConvexMeshCookingResult@2@@Z 0000000180056d14     Cooking.obj
 0002:00005d1c       $unwind$?validateConvexMesh@Cooking@physx@@UEBA_NAEBVPxConvexMeshDesc@2@@Z 0000000180056d1c     Cooking.obj
 0002:00005d24       $unwind$?computeHullPolygons@Cooking@physx@@UEBA_NAEBVPxSimpleTriangleMesh@2@AEAVPxAllocatorCallback@2@AEAIAEAPEAVPxVec3@2@2AEAPEAI2AEAPEAUPxHullPolygon@2@@Z 0000000180056d24     Cooking.obj
 0002:00005d30       $unwind$?cookHeightField@Cooking@physx@@UEBA_NAEBVPxHeightFieldDesc@2@AEAVPxOutputStream@2@@Z 0000000180056d30     Cooking.obj
 0002:00005d38       $unwind$?createHeightField@Cooking@physx@@UEBAPEAVPxHeightField@2@AEBVPxHeightFieldDesc@2@AEAVPxPhysicsInsertionCallback@2@@Z 0000000180056d38     Cooking.obj
 0002:00005d40       $unwind$?cookBVHStructure@Cooking@physx@@UEBA_NAEBVPxBVHStructureDesc@2@AEAVPxOutputStream@2@@Z 0000000180056d40     Cooking.obj
 0002:00005d48       $unwind$?createBVHStructure@Cooking@physx@@UEBAPEAVPxBVHStructure@2@AEBVPxBVHStructureDesc@2@AEAVPxPhysicsInsertionCallback@2@@Z 0000000180056d48     Cooking.obj
 0002:00005d50       $unwind$?cookConvexMeshInternal@Cooking@physx@@AEBA_NAEBVPxConvexMeshDesc@2@AEAVConvexMeshBuilder@2@PEAVConvexHullLib@2@PEAW4Enum@PxConvexMeshCookingResult@2@@Z 0000000180056d50     Cooking.obj
 0002:00005d58       $unwind$?cookTriangleMesh@Cooking@physx@@AEBA_NAEAVTriangleMeshBuilder@2@AEBVPxTriangleMeshDesc@2@AEAVPxOutputStream@2@PEAW4Enum@PxTriangleMeshCookingResult@2@@Z 0000000180056d58     Cooking.obj
 0002:00005d60       $unwind$?createTriangleMesh@Cooking@physx@@AEBAPEAVPxTriangleMesh@2@AEAVTriangleMeshBuilder@2@AEBVPxTriangleMeshDesc@2@AEAVPxPhysicsInsertionCallback@2@PEAW4Enum@PxTriangleMeshCookingResult@2@@Z 0000000180056d60     Cooking.obj
 0002:00005d68       $unwind$??$reserveContainerMemory@UPxDebugLine@physx@@@Cm@physx@@YAPEAUPxDebugLine@1@AEAV?$Array@UPxDebugLine@physx@@VNamedAllocator@shdfnd@2@@shdfnd@1@I@Z 0000000180056d68     Cooking.obj
 0002:00005d70       $unwind$?littleEndian@shdfnd@physx@@YADXZ 0000000180056d70     Cooking.obj
 0002:00005d78       $unwind$??4FPUGuard@shdfnd@physx@@QEAAAEAV012@AEBV012@@Z 0000000180056d78     Cooking.obj
 0002:00005d80       $unwind$?markSerializedMem@Cm@physx@@YAXPEAXI@Z 0000000180056d80     Cooking.obj
 0002:00005d88       $unwind$??0Cooking@physx@@QEAA@AEBUPxCookingParams@1@@Z 0000000180056d88     Cooking.obj
 0002:00005d90       $unwind$?gatherStrided@Cooking@physx@@SAXPEBXPEAXIII@Z 0000000180056d90     Cooking.obj
 0002:00005d98       $unwind$??1Cooking@physx@@UEAA@XZ 0000000180056d98     Cooking.obj
 0002:00005da0       $unwind$??_GCooking@physx@@UEAAPEAXI@Z 0000000180056da0     Cooking.obj
 0002:00005da8       $unwind$?FLoad@aos@shdfnd@physx@@YA?AT__m128@@M@Z 0000000180056da8     Cooking.obj
 0002:00005db0       $unwind$?V3Load@aos@shdfnd@physx@@YA?AT__m128@@M@Z 0000000180056db0     Cooking.obj
 0002:00005db8       $unwind$?V4Load@aos@shdfnd@physx@@YA?AT__m128@@M@Z 0000000180056db8     Cooking.obj
 0002:00005dc0       $unwind$??__EminFError@_VecMathTests@aos@shdfnd@physx@@YAXXZ 0000000180056dc0     Cooking.obj
 0002:00005dc8       $unwind$??__EmaxFError@_VecMathTests@aos@shdfnd@physx@@YAXXZ 0000000180056dc8     Cooking.obj
 0002:00005dd0       $unwind$??__EminV3Error@_VecMathTests@aos@shdfnd@physx@@YAXXZ 0000000180056dd0     Cooking.obj
 0002:00005dd8       $unwind$??__EmaxV3Error@_VecMathTests@aos@shdfnd@physx@@YAXXZ 0000000180056dd8     Cooking.obj
 0002:00005de0       $unwind$??__EminV4Error@_VecMathTests@aos@shdfnd@physx@@YAXXZ 0000000180056de0     Cooking.obj
 0002:00005de8       $unwind$??__EmaxV4Error@_VecMathTests@aos@shdfnd@physx@@YAXXZ 0000000180056de8     Cooking.obj
 0002:00005df0       $unwind$??0CenterExtents@Gu@physx@@QEAA@XZ 0000000180056df0     Cooking.obj
 0002:00005df8       $unwind$??0CenterExtents@Gu@physx@@QEAA@AEBV012@@Z 0000000180056df8     Cooking.obj
 0002:00005e00       $unwind$??4CenterExtents@Gu@physx@@QEAAAEAV012@AEBV012@@Z 0000000180056e00     Cooking.obj
 0002:00005e08       $unwind$??0PxMat44@physx@@QEAA@W4PxIDENTITY@1@@Z 0000000180056e08     Cooking.obj
 0002:00005e10       $unwind$??0PxMat44@physx@@QEAA@AEBV01@@Z 0000000180056e10     Cooking.obj
 0002:00005e18       $unwind$??0PxDebugLine@physx@@QEAA@AEBU01@@Z 0000000180056e18     Cooking.obj
 0002:00005e20       $unwind$?reserve@?$Array@UPxDebugLine@physx@@VNamedAllocator@shdfnd@2@@shdfnd@physx@@QEAAXI@Z 0000000180056e20     Cooking.obj
 0002:00005e28       $unwind$?forceSize_Unsafe@?$Array@UPxDebugLine@physx@@VNamedAllocator@shdfnd@2@@shdfnd@physx@@QEAAXI@Z 0000000180056e28     Cooking.obj
 0002:00005e30       $unwind$?allocate@?$Array@UPxDebugLine@physx@@VNamedAllocator@shdfnd@2@@shdfnd@physx@@IEAAPEAUPxDebugLine@3@I@Z 0000000180056e30     Cooking.obj
 0002:00005e38       $unwind$?deallocate@?$Array@UPxDebugLine@physx@@VNamedAllocator@shdfnd@2@@shdfnd@physx@@IEAAXPEAX@Z 0000000180056e38     Cooking.obj
 0002:00005e40       $unwind$?copy@?$Array@UPxDebugLine@physx@@VNamedAllocator@shdfnd@2@@shdfnd@physx@@KAXPEAUPxDebugLine@3@0PEBU43@@Z 0000000180056e40     Cooking.obj
 0002:00005e48       $unwind$?grow@?$Array@UPxDebugLine@physx@@VNamedAllocator@shdfnd@2@@shdfnd@physx@@IEAAXI@Z 0000000180056e48     Cooking.obj
 0002:00005e50       $unwind$?recreate@?$Array@UPxDebugLine@physx@@VNamedAllocator@shdfnd@2@@shdfnd@physx@@IEAAXI@Z 0000000180056e50     Cooking.obj
 0002:00005e58       $unwind$??0RenderOutput@Cm@physx@@QEAA@AEAVRenderBuffer@12@@Z 0000000180056e58     Cooking.obj
 0002:00005e60       $unwind$?reserveSegments@RenderOutput@Cm@physx@@QEAAPEAUPxDebugLine@3@I@Z 0000000180056e60     Cooking.obj
 0002:00005e68       $unwind$?outputSegment@RenderOutput@Cm@physx@@QEAAXAEBVPxVec3@3@0@Z 0000000180056e68     Cooking.obj
 0002:00005e70       $unwind$??0RenderOutput@Cm@physx@@QEAA@AEBV012@@Z 0000000180056e70     Cooking.obj
 0002:00005e78       $unwind$??0DebugText@Cm@physx@@QEAA@AEBU012@@Z 0000000180056e78     Cooking.obj
 0002:00005e84       $unwind$??0DebugText@Cm@physx@@QEAA@$$QEAU012@@Z 0000000180056e84     Cooking.obj
 0002:00005e90       $unwind$??4DebugText@Cm@physx@@QEAAAEAU012@AEBU012@@Z 0000000180056e90     Cooking.obj
 0002:00005e98       $unwind$??4DebugText@Cm@physx@@QEAAAEAU012@$$QEAU012@@Z 0000000180056e98     Cooking.obj
 0002:00005ea0       $unwind$??0ConvexHullData@Gu@physx@@QEAA@XZ 0000000180056ea0     Cooking.obj
 0002:00005ea8       $unwind$?getHullVertices@ConvexHullData@Gu@physx@@QEBAPEBVPxVec3@3@XZ 0000000180056ea8     Cooking.obj
 0002:00005eb0       $unwind$?getVertexData8@ConvexHullData@Gu@physx@@QEBAPEBEXZ 0000000180056eb0     Cooking.obj
 0002:00005eb8       $unwind$??1ConvexHullData@Gu@physx@@QEAA@XZ 0000000180056eb8     Cooking.obj
 0002:00005ec0       $unwind$??0ConvexHullInitData@Gu@physx@@QEAA@XZ 0000000180056ec0     Cooking.obj
 0002:00005ec8       $unwind$??1ConvexHullInitData@Gu@physx@@QEAA@XZ 0000000180056ec8     Cooking.obj
 0002:00005ed0       $unwind$?preExportDataReset@ConvexMesh@Gu@physx@@QEAAXXZ 0000000180056ed0     Cooking.obj
 0002:00005ed8       $unwind$?getVertices@ConvexMesh@Gu@physx@@UEBAPEBVPxVec3@3@XZ 0000000180056ed8     Cooking.obj
 0002:00005ee0       $unwind$?getIndexBuffer@ConvexMesh@Gu@physx@@UEBAPEBEXZ 0000000180056ee0     Cooking.obj
 0002:00005ee8       $unwind$?tessFlag@PxHeightFieldSample@physx@@QEBAEXZ 0000000180056ee8     Cooking.obj
 0002:00005ef0       $unwind$??1PxHeightField@physx@@MEAA@XZ 0000000180056ef0     Cooking.obj
 0002:00005ef8       $unwind$?isKindOf@PxHeightField@physx@@MEBA_NPEBD@Z 0000000180056ef8     Cooking.obj
 0002:00005f00       $unwind$??_EPxHeightField@physx@@MEAAPEAXI@Z 0000000180056f00     Cooking.obj
 0002:00005f08       $unwind$??0HeightFieldData@Gu@physx@@QEAA@XZ 0000000180056f08     Cooking.obj
 0002:00005f10       $unwind$??0HeightFieldData@Gu@physx@@QEAA@W4PxEMPTY@2@@Z 0000000180056f10     Cooking.obj
 0002:00005f18       $unwind$??1HeightFieldData@Gu@physx@@QEAA@XZ 0000000180056f18     Cooking.obj
 0002:00005f20       $unwind$??0HeightFieldData@Gu@physx@@QEAA@AEBU012@@Z 0000000180056f20     Cooking.obj
 0002:00005f28       $unwind$??0HeightFieldData@Gu@physx@@QEAA@$$QEAU012@@Z 0000000180056f28     Cooking.obj
 0002:00005f30       $unwind$??4HeightFieldData@Gu@physx@@QEAAAEAU012@AEBU012@@Z 0000000180056f30     Cooking.obj
 0002:00005f38       $unwind$??4HeightFieldData@Gu@physx@@QEAAAEAU012@$$QEAU012@@Z 0000000180056f38     Cooking.obj
 0002:00005f40       $unwind$?preExportDataReset@HeightField@Gu@physx@@QEAAXXZ 0000000180056f40     Cooking.obj
 0002:00005f48       $unwind$?getFlags@HeightField@Gu@physx@@UEBA?AV?$PxFlags@W4Enum@PxHeightFieldFlag@physx@@G@3@XZ 0000000180056f48     Cooking.obj
 0002:00005f50       $unwind$?getHeight@HeightField@Gu@physx@@UEBAMMM@Z 0000000180056f50     Cooking.obj
 0002:00005f58       $unwind$?getTriangleMaterialIndex@HeightField@Gu@physx@@UEBAGI@Z 0000000180056f58     Cooking.obj
 0002:00005f60       $unwind$?getTriangleNormal@HeightField@Gu@physx@@UEBA?AVPxVec3@3@I@Z 0000000180056f60     Cooking.obj
 0002:00005f68       $unwind$?getSample@HeightField@Gu@physx@@UEBAAEBUPxHeightFieldSample@3@II@Z 0000000180056f68     Cooking.obj
 0002:00005f70       $unwind$?isZerothVertexShared@HeightField@Gu@physx@@QEBA_NI@Z 0000000180056f70     Cooking.obj
 0002:00005f78       $unwind$?getMaterialIndex0@HeightField@Gu@physx@@QEBAGI@Z 0000000180056f78     Cooking.obj
 0002:00005f80       $unwind$?getMaterialIndex1@HeightField@Gu@physx@@QEBAGI@Z 0000000180056f80     Cooking.obj
 0002:00005f88       $unwind$?getHeight@HeightField@Gu@physx@@QEBAMI@Z 0000000180056f88     Cooking.obj
 0002:00005f90       $unwind$?getHeightInternal2@HeightField@Gu@physx@@QEBAMIMM@Z 0000000180056f90     Cooking.obj
 0002:00005f98       $unwind$?getHeightInternal@HeightField@Gu@physx@@QEBAMMM@Z 0000000180056f98     Cooking.obj
 0002:00005fa0       $unwind$?isValidVertex@HeightField@Gu@physx@@QEBA_NI@Z 0000000180056fa0     Cooking.obj
 0002:00005fa8       $unwind$?isFirstTriangle@HeightField@Gu@physx@@QEBA_NI@Z 0000000180056fa8     Cooking.obj
 0002:00005fb0       $unwind$?getTriangleMaterial@HeightField@Gu@physx@@QEBAGI@Z 0000000180056fb0     Cooking.obj
 0002:00005fb8       $unwind$?getTriangleVertexIndices@HeightField@Gu@physx@@QEBAXIAEAI00@Z 0000000180056fb8     Cooking.obj
 0002:00005fc0       $unwind$?getTriangleNormalInternal@HeightField@Gu@physx@@QEBA?AVPxVec3@3@I@Z 0000000180056fc0     Cooking.obj
 0002:00005fc8       $unwind$?getSample@HeightField@Gu@physx@@QEBAAEBUPxHeightFieldSample@3@I@Z 0000000180056fc8     Cooking.obj
 0002:00005fd0       $unwind$??$PxMin@G@physx@@YAGGG@Z 0000000180056fd0     Cooking.obj
 0002:00005fd8       $unwind$?getName@?$ReflectionAllocator@VQuickHullConvexHullLib@physx@@@shdfnd@physx@@CAPEBDXZ 0000000180056fd8     Cooking.obj
 0002:00005fe0       $unwind$?allocate@?$ReflectionAllocator@VQuickHullConvexHullLib@physx@@@shdfnd@physx@@QEAAPEAX_KPEBDH@Z 0000000180056fe0     Cooking.obj
 0002:00005fe8       $unwind$??$?2V?$ReflectionAllocator@VQuickHullConvexHullLib@physx@@@shdfnd@physx@@@UserAllocated@shdfnd@physx@@SAPEAX_KV?$ReflectionAllocator@VQuickHullConvexHullLib@physx@@@12@PEBDH@Z 0000000180056fe8     Cooking.obj
 0002:00005ff0       $unwind$?getName@?$ReflectionAllocator@VHeightField@Gu@physx@@@shdfnd@physx@@CAPEBDXZ 0000000180056ff0     Cooking.obj
 0002:00005ff8       $unwind$?allocate@?$ReflectionAllocator@VHeightField@Gu@physx@@@shdfnd@physx@@QEAAPEAX_KPEBDH@Z 0000000180056ff8     Cooking.obj
 0002:00006000       $unwind$?getName@?$ReflectionAllocator@VCooking@physx@@@shdfnd@physx@@CAPEBDXZ 0000000180057000     Cooking.obj
 0002:00006008       $unwind$?allocate@?$ReflectionAllocator@VCooking@physx@@@shdfnd@physx@@QEAAPEAX_KPEBDH@Z 0000000180057008     Cooking.obj
 0002:00006010       $unwind$??$?2V?$ReflectionAllocator@VCooking@physx@@@shdfnd@physx@@@UserAllocated@shdfnd@physx@@SAPEAX_KV?$ReflectionAllocator@VCooking@physx@@@12@PEBDH@Z 0000000180057010     Cooking.obj
 0002:00006018       $unwind$??$PxMax@I@physx@@YAIII@Z 0000000180057018     Cooking.obj
 0002:00006020       $unwind$??1ReducedVertexCloud@physx@@QEAA@XZ 0000000180057020     CookingUtils.obj
 0002:00006028       $unwind$?Clean@ReducedVertexCloud@physx@@QEAAAEAV12@XZ 0000000180057028     CookingUtils.obj
 0002:00006030       $unwind$?Reduce@ReducedVertexCloud@physx@@QEAA_NPEAUREDUCEDCLOUD@2@@Z 0000000180057030     CookingUtils.obj
 0002:00006038       $unwind$?getName@?$ReflectionAllocator@M@shdfnd@physx@@CAPEBDXZ 0000000180057038     CookingUtils.obj
 0002:00006040       $unwind$?allocate@?$ReflectionAllocator@M@shdfnd@physx@@QEAAPEAX_KPEBDH@Z 0000000180057040     CookingUtils.obj
 0002:00006048       $unwind$??$?_UM@@YAPEAX_KV?$ReflectionAllocator@M@shdfnd@physx@@PEBDH@Z 0000000180057048     CookingUtils.obj
 0002:00006050       $unwind$fabsf              0000000180057050     EdgeList.obj
 0002:00006058       $unwind$?sqrt@intrinsics@physx@@YAMM@Z 0000000180057058     EdgeList.obj
 0002:00006060       $unwind$?recipSqrt@intrinsics@physx@@YAMM@Z 0000000180057060     EdgeList.obj
 0002:00006068       $unwind$?PxSqrt@physx@@YAMM@Z 0000000180057068     EdgeList.obj
 0002:00006070       $unwind$?PxRecipSqrt@physx@@YAMM@Z 0000000180057070     EdgeList.obj
 0002:00006078       $unwind$?PxAtan2@physx@@YAMMM@Z 0000000180057078     EdgeList.obj
 0002:00006080       $unwind$?magnitude@PxVec3@physx@@QEBAMXZ 0000000180057080     EdgeList.obj
 0002:00006088       $unwind$??GPxVec3@physx@@QEBA?AV01@AEBV01@@Z 0000000180057088     EdgeList.obj
 0002:00006090       $unwind$??DPxVec3@physx@@QEBA?AV01@M@Z 0000000180057090     EdgeList.obj
 0002:00006098       $unwind$?cross@PxVec3@physx@@QEBA?AV12@AEBV12@@Z 0000000180057098     EdgeList.obj
 0002:000060a0       $unwind$?getNormalized@PxVec3@physx@@QEBA?AV12@XZ 00000001800570a0     EdgeList.obj
 0002:000060a8       $unwind$?normalize@PxVec3@physx@@QEAAMXZ 00000001800570a8     EdgeList.obj
 0002:000060b0       $unwind$??0PxTriangle@physx@@QEAA@AEBVPxVec3@1@00@Z 00000001800570b0     EdgeList.obj
 0002:000060b8       $unwind$?normal@PxTriangle@physx@@QEBAXAEAVPxVec3@2@@Z 00000001800570b8     EdgeList.obj
 0002:000060c0       $unwind$??1EdgeList@Gu@physx@@QEAA@XZ 00000001800570c0     EdgeList.obj
 0002:000060c8       $unwind$?load@EdgeList@Gu@physx@@QEAA_NAEAVPxInputStream@3@@Z 00000001800570c8     EdgeList.obj
 0002:000060d0       $unwind$??0EdgeListBuilder@Gu@physx@@QEAA@XZ 00000001800570d0     EdgeList.obj
 0002:000060d8       $unwind$??1EdgeListBuilder@Gu@physx@@QEAA@XZ 00000001800570d8     EdgeList.obj
 0002:000060e0       $unwind$?init@EdgeListBuilder@Gu@physx@@QEAA_NAEBUEDGELISTCREATE@23@@Z 00000001800570e0     EdgeList.obj
 0002:000060e8       $unwind$?createFacesToEdges@EdgeListBuilder@Gu@physx@@AEAA_NIPEBIPEBG@Z 00000001800570e8     EdgeList.obj
 0002:000060f0       $unwind$?createEdgesToFaces@EdgeListBuilder@Gu@physx@@AEAA_NIPEBIPEBG@Z 00000001800570f0     EdgeList.obj
 0002:000060f8       $unwind$?computeActiveEdges@EdgeListBuilder@Gu@physx@@AEAA_NIPEBIPEBGPEBVPxVec3@3@M@Z 00000001800570f8     EdgeList.obj
 0002:00006100       $unwind$??0PxPlane@physx@@QEAA@AEBVPxVec3@1@00@Z 0000000180057100     EdgeList.obj
 0002:00006108       $unwind$?distance@PxPlane@physx@@QEBAMAEBVPxVec3@2@@Z 0000000180057108     EdgeList.obj
 0002:00006110       $unwind$?angle@shdfnd@physx@@YAMAEBVPxVec3@2@0@Z 0000000180057110     EdgeList.obj
 0002:00006118       $unwind$?getName@?$ReflectionAllocator@UEdgeTriangleData@Gu@physx@@@shdfnd@physx@@CAPEBDXZ 0000000180057118     EdgeList.obj
 0002:00006120       $unwind$?allocate@?$ReflectionAllocator@UEdgeTriangleData@Gu@physx@@@shdfnd@physx@@QEAAPEAX_KPEBDH@Z 0000000180057120     EdgeList.obj
 0002:00006128       $unwind$??$?_UUEdgeTriangleData@Gu@physx@@@@YAPEAX_KV?$ReflectionAllocator@UEdgeTriangleData@Gu@physx@@@shdfnd@physx@@PEBDH@Z 0000000180057128     EdgeList.obj
 0002:00006130       $unwind$?getName@?$ReflectionAllocator@UEdgeData@Gu@physx@@@shdfnd@physx@@CAPEBDXZ 0000000180057130     EdgeList.obj
 0002:00006138       $unwind$?allocate@?$ReflectionAllocator@UEdgeData@Gu@physx@@@shdfnd@physx@@QEAAPEAX_KPEBDH@Z 0000000180057138     EdgeList.obj
 0002:00006140       $unwind$??$?_UUEdgeData@Gu@physx@@@@YAPEAX_KV?$ReflectionAllocator@UEdgeData@Gu@physx@@@shdfnd@physx@@PEBDH@Z 0000000180057140     EdgeList.obj
 0002:00006148       $unwind$?PxFloor@physx@@YAMM@Z 0000000180057148     MeshCleaner.obj
 0002:00006150       $unwind$??9PxVec3@physx@@QEBA_NAEBV01@@Z 0000000180057150     MeshCleaner.obj
 0002:00006158       $unwind$??0MeshCleaner@physx@@QEAA@IPEBVPxVec3@1@IPEBIM@Z 0000000180057158     MeshCleaner.obj
 0002:00006164       $unwind$??1MeshCleaner@physx@@QEAA@XZ 0000000180057164     MeshCleaner.obj
 0002:0000616c       $unwind$?getHashValue@@YAIAEBVPxVec3@physx@@@Z 000000018005716c     MeshCleaner.obj
 0002:00006174       $unwind$?getHashValue@@YAIAEBUIndices@@@Z 0000000180057174     MeshCleaner.obj
 0002:0000617c       $unwind$??9Indices@@QEBA_NAEBU0@@Z 000000018005717c     MeshCleaner.obj
 0002:00006184       $unwind$??_GQuantizer@physx@@MEAAPEAXI@Z 0000000180057184     Quantizer.obj
 0002:0000618c       $unwind$?createQuantizer@physx@@YAPEAVQuantizer@1@XZ 000000018005718c     Quantizer.obj
 0002:00006194       $unwind$?kmeans_cluster3d@@YAIPEBVPxVec3@physx@@IIPEAV12@PEAIMM@Z 0000000180057194     Quantizer.obj
 0002:0000619c       $unwind$?abs@intrinsics@physx@@YAMM@Z 000000018005719c     Quantizer.obj
 0002:000061a4       $unwind$?selectMin@intrinsics@physx@@YAMMM@Z 00000001800571a4     Quantizer.obj
 0002:000061ac       $unwind$?selectMax@intrinsics@physx@@YAMMM@Z 00000001800571ac     Quantizer.obj
 0002:000061b4       $unwind$?isFinite@intrinsics@physx@@YA_NM@Z 00000001800571b4     Quantizer.obj
 0002:000061bc       $unwind$??$PxMax@M@physx@@YAMMM@Z 00000001800571bc     Quantizer.obj
 0002:000061c4       $unwind$??$PxMin@M@physx@@YAMMM@Z 00000001800571c4     Quantizer.obj
 0002:000061cc       $unwind$?PxAbs@physx@@YAMM@Z 00000001800571cc     Quantizer.obj
 0002:000061d4       $unwind$?PxIsFinite@physx@@YA_NM@Z 00000001800571d4     Quantizer.obj
 0002:000061dc       $unwind$??0PxVec3@physx@@QEAA@W4PxZERO@1@@Z 00000001800571dc     Quantizer.obj
 0002:000061e4       $unwind$??APxVec3@physx@@QEAAAEAMI@Z 00000001800571e4     Quantizer.obj
 0002:000061ec       $unwind$?isFinite@PxVec3@physx@@QEBA_NXZ 00000001800571ec     Quantizer.obj
 0002:000061f4       $unwind$??HPxVec3@physx@@QEBA?AV01@AEBV01@@Z 00000001800571f4     Quantizer.obj
 0002:000061fc       $unwind$?multiply@PxVec3@physx@@QEBA?AV12@AEBV12@@Z 00000001800571fc     Quantizer.obj
 0002:00006204       $unwind$?minimum@PxVec3@physx@@QEBA?AV12@AEBV12@@Z 0000000180057204     Quantizer.obj
 0002:0000620c       $unwind$?maximum@PxVec3@physx@@QEBA?AV12@AEBV12@@Z 000000018005720c     Quantizer.obj
 0002:00006214       $unwind$??0PxBounds3@physx@@QEAA@XZ 0000000180057214     Quantizer.obj
 0002:0000621c       $unwind$?setEmpty@PxBounds3@physx@@QEAAXXZ 000000018005721c     Quantizer.obj
 0002:00006224       $unwind$?include@PxBounds3@physx@@QEAAXAEBVPxVec3@2@@Z 0000000180057224     Quantizer.obj
 0002:0000622c       $unwind$?getCenter@PxBounds3@physx@@QEBA?AVPxVec3@2@XZ 000000018005722c     Quantizer.obj
 0002:00006234       $unwind$?getDimensions@PxBounds3@physx@@QEBA?AVPxVec3@2@XZ 0000000180057234     Quantizer.obj
 0002:0000623c       $unwind$?isFinite@PxBounds3@physx@@QEBA_NXZ 000000018005723c     Quantizer.obj
 0002:00006244       $unwind$?isValid@PxBounds3@physx@@QEBA_NXZ 0000000180057244     Quantizer.obj
 0002:0000624c       $unwind$??$kmeans_cluster@VPxVec3@physx@@M@@YAIPEBVPxVec3@physx@@IIPEAV01@PEAIMM@Z 000000018005724c     Quantizer.obj
 0002:00006254       $unwind$??0QuantizerImpl@@QEAA@XZ 0000000180057254     Quantizer.obj
 0002:0000625c       $unwind$?kmeansQuantize3D@QuantizerImpl@@UEAAPEBVPxVec3@physx@@IPEBV23@I_NIAEAI@Z 000000018005725c     Quantizer.obj
 0002:00006264       $unwind$?release@QuantizerImpl@@UEAAXXZ 0000000180057264     Quantizer.obj
 0002:0000626c       $unwind$?normalizeInput@QuantizerImpl@@AEAAXIPEBVPxVec3@physx@@I@Z 000000018005726c     Quantizer.obj
 0002:00006274       $unwind$??1QuantizerImpl@@EEAA@XZ 0000000180057274     Quantizer.obj
 0002:0000627c       $unwind$??0?$Array@VPxVec3@physx@@VNamedAllocator@shdfnd@2@@shdfnd@physx@@QEAA@AEBVNamedAllocator@12@@Z 000000018005727c     Quantizer.obj
 0002:00006284       $unwind$??1?$Array@VPxVec3@physx@@VNamedAllocator@shdfnd@2@@shdfnd@physx@@QEAA@XZ 0000000180057284     Quantizer.obj
 0002:0000628c       $unwind$??A?$Array@VPxVec3@physx@@VNamedAllocator@shdfnd@2@@shdfnd@physx@@QEAAAEAVPxVec3@2@I@Z 000000018005728c     Quantizer.obj
 0002:00006294       $unwind$?clear@?$Array@VPxVec3@physx@@VNamedAllocator@shdfnd@2@@shdfnd@physx@@QEAAXXZ 0000000180057294     Quantizer.obj
 0002:0000629c       $unwind$?pushBack@?$Array@VPxVec3@physx@@VNamedAllocator@shdfnd@2@@shdfnd@physx@@QEAAAEAVPxVec3@3@AEBV43@@Z 000000018005729c     Quantizer.obj
 0002:000062a4       $unwind$?allocate@?$Array@VPxVec3@physx@@VNamedAllocator@shdfnd@2@@shdfnd@physx@@IEAAPEAVPxVec3@3@I@Z 00000001800572a4     Quantizer.obj
 0002:000062ac       $unwind$?deallocate@?$Array@VPxVec3@physx@@VNamedAllocator@shdfnd@2@@shdfnd@physx@@IEAAXPEAX@Z 00000001800572ac     Quantizer.obj
 0002:000062b4       $unwind$?copy@?$Array@VPxVec3@physx@@VNamedAllocator@shdfnd@2@@shdfnd@physx@@KAXPEAVPxVec3@3@0PEBV43@@Z 00000001800572b4     Quantizer.obj
 0002:000062bc       $unwind$?growAndPushBack@?$Array@VPxVec3@physx@@VNamedAllocator@shdfnd@2@@shdfnd@physx@@IEAAAEAVPxVec3@3@AEBV43@@Z 00000001800572bc     Quantizer.obj
 0002:000062c4       $unwind$?capacityIncrement@?$Array@VPxVec3@physx@@VNamedAllocator@shdfnd@2@@shdfnd@physx@@IEBAIXZ 00000001800572c4     Quantizer.obj
 0002:000062cc       $unwind$??_GQuantizerImpl@@EEAAPEAXI@Z 00000001800572cc     Quantizer.obj
 0002:000062d4       $unwind$?getName@?$ReflectionAllocator@VQuantizerImpl@@@shdfnd@physx@@CAPEBDXZ 00000001800572d4     Quantizer.obj
 0002:000062dc       $unwind$?allocate@?$ReflectionAllocator@VQuantizerImpl@@@shdfnd@physx@@QEAAPEAX_KPEBDH@Z 00000001800572dc     Quantizer.obj
 0002:000062e4       $unwind$??$?2V?$ReflectionAllocator@VQuantizerImpl@@@shdfnd@physx@@@UserAllocated@shdfnd@physx@@SAPEAX_KV?$ReflectionAllocator@VQuantizerImpl@@@12@PEBDH@Z 00000001800572e4     Quantizer.obj
 0002:000062ec       $unwind$?__global_delete@@YAXPEAX@Z 00000001800572ec     BVHStructureBuilder.obj
 0002:000062f4       $unwind$?__global_delete@@YAXPEAX_K@Z 00000001800572f4     BVHStructureBuilder.obj
 0002:000062fc       $unwind$?__global_array_delete@@YAXPEAX@Z 00000001800572fc     BVHStructureBuilder.obj
 0002:00006304       $unwind$?__global_array_delete@@YAXPEAX_K@Z 0000000180057304     BVHStructureBuilder.obj
 0002:0000630c       $unwind$??0PxBounds3@physx@@QEAA@AEBV01@@Z 000000018005730c     BVHStructureBuilder.obj
 0002:00006314       $unwind$??4PxBounds3@physx@@QEAAAEAV01@AEBV01@@Z 0000000180057314     BVHStructureBuilder.obj
 0002:0000631c       $unwind$?V4LoadU@aos@shdfnd@physx@@YA?AT__m128@@QEBM@Z 000000018005731c     BVHStructureBuilder.obj
 0002:00006324       $unwind$?V4StoreA@aos@shdfnd@physx@@YAXT__m128@@PEAM@Z 0000000180057324     BVHStructureBuilder.obj
 0002:0000632c       $unwind$?V4Add@aos@shdfnd@physx@@YA?AT__m128@@T4@0@Z 000000018005732c     BVHStructureBuilder.obj
 0002:00006334       $unwind$?V4Sub@aos@shdfnd@physx@@YA?AT__m128@@T4@0@Z 0000000180057334     BVHStructureBuilder.obj
 0002:0000633c       $unwind$?V4Scale@aos@shdfnd@physx@@YA?AT__m128@@T4@0@Z 000000018005733c     BVHStructureBuilder.obj
 0002:00006344       $unwind$?isAligned16@aos@shdfnd@physx@@YA_NPEAX@Z 0000000180057344     BVHStructureBuilder.obj
 0002:0000634c       $unwind$??__EminFError@_VecMathTests@aos@shdfnd@physx@@YAXXZ 000000018005734c     BVHStructureBuilder.obj
 0002:00006354       $unwind$??__EmaxFError@_VecMathTests@aos@shdfnd@physx@@YAXXZ 0000000180057354     BVHStructureBuilder.obj
 0002:0000635c       $unwind$??__EminV3Error@_VecMathTests@aos@shdfnd@physx@@YAXXZ 000000018005735c     BVHStructureBuilder.obj
 0002:00006364       $unwind$??__EmaxV3Error@_VecMathTests@aos@shdfnd@physx@@YAXXZ 0000000180057364     BVHStructureBuilder.obj
 0002:0000636c       $unwind$??__EminV4Error@_VecMathTests@aos@shdfnd@physx@@YAXXZ 000000018005736c     BVHStructureBuilder.obj
 0002:00006374       $unwind$??__EmaxV4Error@_VecMathTests@aos@shdfnd@physx@@YAXXZ 0000000180057374     BVHStructureBuilder.obj
 0002:0000637c       $unwind$??1BVHStructureBuilder@physx@@QEAA@XZ 000000018005737c     BVHStructureBuilder.obj
 0002:00006384       $unwind$?loadFromDesc@BVHStructureBuilder@physx@@QEAA_NAEBVPxBVHStructureDesc@2@@Z 0000000180057384     BVHStructureBuilder.obj
 0002:0000638c       $unwind$?save@BVHStructureBuilder@physx@@QEBA_NAEAVPxOutputStream@2@_N@Z 000000018005738c     BVHStructureBuilder.obj
 0002:00006394       $unwind$?flatten@@YAXAEBVNodeAllocator@Gu@physx@@PEAUBVHNode@23@@Z 0000000180057394     BVHStructureBuilder.obj
 0002:0000639c       $unwind$??1AABBTreeBuildParams@Gu@physx@@QEAA@XZ 000000018005739c     BVHStructureBuilder.obj
 0002:000063a4       $unwind$?reset@AABBTreeBuildParams@Gu@physx@@QEAAXXZ 00000001800573a4     BVHStructureBuilder.obj
 0002:000063ac       $unwind$??4AABBTreeBuildParams@Gu@physx@@QEAAAEAV012@AEBV012@@Z 00000001800573ac     BVHStructureBuilder.obj
 0002:000063b4       $unwind$??_FAABBTreeBuildParams@Gu@physx@@QEAAXXZ 00000001800573b4     BVHStructureBuilder.obj
 0002:000063bc       $unwind$??0AABBTreeBuildNode@Gu@physx@@QEAA@XZ 00000001800573bc     BVHStructureBuilder.obj
 0002:000063c4       $unwind$?getNeg@AABBTreeBuildNode@Gu@physx@@QEBAPEBV123@XZ 00000001800573c4     BVHStructureBuilder.obj
 0002:000063cc       $unwind$?isLeaf@AABBTreeBuildNode@Gu@physx@@QEBA_NXZ 00000001800573cc     BVHStructureBuilder.obj
 0002:000063d4       $unwind$??0AABBTreeBuildNode@Gu@physx@@QEAA@AEBV012@@Z 00000001800573d4     BVHStructureBuilder.obj
 0002:000063dc       $unwind$??4AABBTreeBuildNode@Gu@physx@@QEAAAEAV012@AEBV012@@Z 00000001800573dc     BVHStructureBuilder.obj
 0002:000063e4       $unwind$??0?$Array@USlab@NodeAllocator@Gu@physx@@VNamedAllocator@shdfnd@4@@shdfnd@physx@@QEAA@AEBV012@AEBVNamedAllocator@12@@Z 00000001800573e4     BVHStructureBuilder.obj
 0002:000063ec       $unwind$??4?$Array@USlab@NodeAllocator@Gu@physx@@VNamedAllocator@shdfnd@4@@shdfnd@physx@@QEAAAEAV012@AEBV012@@Z 00000001800573ec     BVHStructureBuilder.obj
 0002:000063f4       $unwind$??A?$Array@USlab@NodeAllocator@Gu@physx@@VNamedAllocator@shdfnd@4@@shdfnd@physx@@QEBAAEBUSlab@NodeAllocator@Gu@2@I@Z 00000001800573f4     BVHStructureBuilder.obj
 0002:000063fc       $unwind$?clear@?$Array@USlab@NodeAllocator@Gu@physx@@VNamedAllocator@shdfnd@4@@shdfnd@physx@@QEAAXXZ 00000001800573fc     BVHStructureBuilder.obj
 0002:00006404       $unwind$?empty@?$Array@USlab@NodeAllocator@Gu@physx@@VNamedAllocator@shdfnd@4@@shdfnd@physx@@QEBA_NXZ 0000000180057404     BVHStructureBuilder.obj
 0002:0000640c       $unwind$?reserve@?$Array@USlab@NodeAllocator@Gu@physx@@VNamedAllocator@shdfnd@4@@shdfnd@physx@@QEAAXI@Z 000000018005740c     BVHStructureBuilder.obj
 0002:00006414       $unwind$?allocate@?$Array@USlab@NodeAllocator@Gu@physx@@VNamedAllocator@shdfnd@4@@shdfnd@physx@@IEAAPEAUSlab@NodeAllocator@Gu@3@I@Z 0000000180057414     BVHStructureBuilder.obj
 0002:0000641c       $unwind$?deallocate@?$Array@USlab@NodeAllocator@Gu@physx@@VNamedAllocator@shdfnd@4@@shdfnd@physx@@IEAAXPEAX@Z 000000018005741c     BVHStructureBuilder.obj
 0002:00006424       $unwind$?copy@?$Array@USlab@NodeAllocator@Gu@physx@@VNamedAllocator@shdfnd@4@@shdfnd@physx@@KAXPEAUSlab@NodeAllocator@Gu@3@0PEBU4563@@Z 0000000180057424     BVHStructureBuilder.obj
 0002:00006430       $unwind$?grow@?$Array@USlab@NodeAllocator@Gu@physx@@VNamedAllocator@shdfnd@4@@shdfnd@physx@@IEAAXI@Z 0000000180057430     BVHStructureBuilder.obj
 0002:00006438       $unwind$?recreate@?$Array@USlab@NodeAllocator@Gu@physx@@VNamedAllocator@shdfnd@4@@shdfnd@physx@@IEAAXI@Z 0000000180057438     BVHStructureBuilder.obj
 0002:00006440       $unwind$??0NodeAllocator@Gu@physx@@QEAA@AEBV012@@Z 0000000180057440     BVHStructureBuilder.obj
 0002:00006448       $unwind$??4NodeAllocator@Gu@physx@@QEAAAEAV012@AEBV012@@Z 0000000180057448     BVHStructureBuilder.obj
 0002:00006450       $unwind$??$?4VNamedAllocator@shdfnd@physx@@@?$Array@USlab@NodeAllocator@Gu@physx@@VNamedAllocator@shdfnd@4@@shdfnd@physx@@QEAAAEAV012@AEBV012@@Z 0000000180057450     BVHStructureBuilder.obj
 0002:00006458       $unwind$?inflateBounds@@YAXAEAVPxBounds3@physx@@AEBV12@@Z 0000000180057458     BVHStructureBuilder.obj
 0002:00006460       $unwind$??$copy@VNamedAllocator@shdfnd@physx@@@?$Array@USlab@NodeAllocator@Gu@physx@@VNamedAllocator@shdfnd@4@@shdfnd@physx@@IEAAXAEBV012@@Z 0000000180057460     BVHStructureBuilder.obj
 0002:00006468       $unwind$??APxVec3@physx@@QEBAAEBMI@Z 0000000180057468     HeightFieldCooking.obj
 0002:00006470       $unwind$?getMin@CenterExtents@Gu@physx@@QEBAMI@Z 0000000180057470     HeightFieldCooking.obj
 0002:00006478       $unwind$?getMax@CenterExtents@Gu@physx@@QEBAMI@Z 0000000180057478     HeightFieldCooking.obj
 0002:00006480       $unwind$?saveHeightField@physx@@YA_NAEBVHeightField@Gu@1@AEAVPxOutputStream@1@_N@Z 0000000180057480     HeightFieldCooking.obj
 0002:00006488       $unwind$?PxAbs@physx@@YAHH@Z 0000000180057488     RTreeCooking.obj
 0002:00006490       $unwind$??0PxBounds3@physx@@QEAA@AEBVPxVec3@1@0@Z 0000000180057490     RTreeCooking.obj
 0002:00006498       $unwind$?empty@PxBounds3@physx@@SA?AV12@XZ 0000000180057498     RTreeCooking.obj
 0002:000064a0       $unwind$?isInside@PxBounds3@physx@@QEBA_NAEBV12@@Z 00000001800574a0     RTreeCooking.obj
 0002:000064a8       $unwind$?allocate@NonTrackingAllocator@shdfnd@physx@@QEAAPEAX_KPEBDH@Z 00000001800574a8     RTreeCooking.obj
 0002:000064b0       $unwind$??GPxVec4@physx@@QEBA?AV01@AEBV01@@Z 00000001800574b0     RTreeCooking.obj
 0002:000064b8       $unwind$??KPxVec4@physx@@QEBA?AV01@M@Z 00000001800574b8     RTreeCooking.obj
 0002:000064c0       $unwind$?V3LoadU@aos@shdfnd@physx@@YA?AT__m128@@AEBVPxVec3@3@@Z 00000001800574c0     RTreeCooking.obj
 0002:000064c8       $unwind$?Vec3V_From_Vec4V@aos@shdfnd@physx@@YA?AT__m128@@T4@@Z 00000001800574c8     RTreeCooking.obj
 0002:000064d0       $unwind$?FStore@aos@shdfnd@physx@@YAXT__m128@@PEIAM@Z 00000001800574d0     RTreeCooking.obj
 0002:000064d8       $unwind$?V3StoreA@aos@shdfnd@physx@@YAXT__m128@@AEAVPxVec3@3@@Z 00000001800574d8     RTreeCooking.obj
 0002:000064e0       $unwind$?V3StoreU@aos@shdfnd@physx@@YAXT__m128@@AEAVPxVec3@3@@Z 00000001800574e0     RTreeCooking.obj
 0002:000064e8       $unwind$?isValidVec3V@aos@shdfnd@physx@@YA_NT__m128@@@Z 00000001800574e8     RTreeCooking.obj
 0002:000064f0       $unwind$?FMax@aos@shdfnd@physx@@YA?AT__m128@@XZ 00000001800574f0     RTreeCooking.obj
 0002:000064f8       $unwind$?FNegMax@aos@shdfnd@physx@@YA?AT__m128@@XZ 00000001800574f8     RTreeCooking.obj
 0002:00006500       $unwind$?V3Splat@aos@shdfnd@physx@@YA?AT__m128@@T4@@Z 0000000180057500     RTreeCooking.obj
 0002:00006508       $unwind$?V3Zero@aos@shdfnd@physx@@YA?AT__m128@@XZ 0000000180057508     RTreeCooking.obj
 0002:00006510       $unwind$?V3Add@aos@shdfnd@physx@@YA?AT__m128@@T4@0@Z 0000000180057510     RTreeCooking.obj
 0002:00006518       $unwind$?V3Sub@aos@shdfnd@physx@@YA?AT__m128@@T4@0@Z 0000000180057518     RTreeCooking.obj
 0002:00006520       $unwind$?V3Dot@aos@shdfnd@physx@@YA?AT__m128@@T4@0@Z 0000000180057520     RTreeCooking.obj
 0002:00006528       $unwind$?V3Max@aos@shdfnd@physx@@YA?AT__m128@@T4@0@Z 0000000180057528     RTreeCooking.obj
 0002:00006530       $unwind$?V3Min@aos@shdfnd@physx@@YA?AT__m128@@T4@0@Z 0000000180057530     RTreeCooking.obj
 0002:00006538       $unwind$?V3PermZXY@aos@shdfnd@physx@@YA?AT__m128@@T4@@Z 0000000180057538     RTreeCooking.obj
 0002:00006540       $unwind$?V4ClearW@aos@shdfnd@physx@@YA?AT__m128@@T4@@Z 0000000180057540     RTreeCooking.obj
 0002:00006548       $unwind$?isValidFloatV@aos@shdfnd@physx@@YA_NT__m128@@@Z 0000000180057548     RTreeCooking.obj
 0002:00006550       $unwind$??__EminFError@_VecMathTests@aos@shdfnd@physx@@YAXXZ 0000000180057550     RTreeCooking.obj
 0002:00006558       $unwind$??__EmaxFError@_VecMathTests@aos@shdfnd@physx@@YAXXZ 0000000180057558     RTreeCooking.obj
 0002:00006560       $unwind$??__EminV3Error@_VecMathTests@aos@shdfnd@physx@@YAXXZ 0000000180057560     RTreeCooking.obj
 0002:00006568       $unwind$??__EmaxV3Error@_VecMathTests@aos@shdfnd@physx@@YAXXZ 0000000180057568     RTreeCooking.obj
 0002:00006570       $unwind$??__EminV4Error@_VecMathTests@aos@shdfnd@physx@@YAXXZ 0000000180057570     RTreeCooking.obj
 0002:00006578       $unwind$??__EmaxV4Error@_VecMathTests@aos@shdfnd@physx@@YAXXZ 0000000180057578     RTreeCooking.obj
 0002:00006580       $unwind$?Vec3V_From_FloatV@aos@shdfnd@physx@@YA?AT__m128@@T4@@Z 0000000180057580     RTreeCooking.obj
 0002:00006588       $unwind$?allocate@?$AlignedAllocator@$0IA@VNonTrackingAllocator@shdfnd@physx@@@shdfnd@physx@@QEAAPEAX_KPEBDH@Z 0000000180057588     RTreeCooking.obj
 0002:00006590       $unwind$?buildFromTriangles@RTreeCooker@physx@@SAXAEAURTree@Gu@2@PEBVPxVec3@2@IPEBGPEBIIAEAV?$Array@IVNamedAllocator@shdfnd@physx@@@shdfnd@2@PEAURemapCallback@12@MW4Enum@PxMeshCookingHint@2@@Z 0000000180057590     RTreeCooking.obj
 0002:00006598       $unwind$?buildFromBounds@physx@@YAXAEAURTree@Gu@1@PEBUPxBounds3V@1@IAEAV?$Array@IVNamedAllocator@shdfnd@physx@@@shdfnd@1@PEAURemapCallback@RTreeCooker@1@AEAT__m128@@4MW4Enum@PxMeshCookingHint@1@@Z 0000000180057598     RTreeCooking.obj
 0002:000065a0       $unwind$?PxSAH@physx@@YAXAEBT__m128@@AEAM@Z 00000001800575a0     RTreeCooking.obj
 0002:000065a8       $unwind$??0RTreeNodeNQ@physx@@QEAA@XZ 00000001800575a8     RTreeCooking.obj
 0002:000065b0       $unwind$??0RTreeNodeNQ@physx@@QEAA@AEBU01@@Z 00000001800575b0     RTreeCooking.obj
 0002:000065b8       $unwind$?getExtents@PxBounds3V@physx@@QEBA?AT__m128@@XZ 00000001800575b8     RTreeCooking.obj
 0002:000065c0       $unwind$?include@PxBounds3V@physx@@QEAAXAEBU12@@Z 00000001800575c0     RTreeCooking.obj
 0002:000065c8       $unwind$?getMinVec3@PxBounds3V@physx@@QEBA?BVPxVec3@2@XZ 00000001800575c8     RTreeCooking.obj
 0002:000065d0       $unwind$?getMaxVec3@PxBounds3V@physx@@QEBA?BVPxVec3@2@XZ 00000001800575d0     RTreeCooking.obj
 0002:000065d8       $unwind$??0?$Array@UPxBounds3V@physx@@VNamedAllocator@shdfnd@2@@shdfnd@physx@@QEAA@AEBVNamedAllocator@12@@Z 00000001800575d8     RTreeCooking.obj
 0002:000065e0       $unwind$??1?$Array@UPxBounds3V@physx@@VNamedAllocator@shdfnd@2@@shdfnd@physx@@QEAA@XZ 00000001800575e0     RTreeCooking.obj
 0002:000065e8       $unwind$?pushBack@?$Array@UPxBounds3V@physx@@VNamedAllocator@shdfnd@2@@shdfnd@physx@@QEAAAEAUPxBounds3V@3@AEBU43@@Z 00000001800575e8     RTreeCooking.obj
 0002:000065f4       $unwind$?reserve@?$Array@UPxBounds3V@physx@@VNamedAllocator@shdfnd@2@@shdfnd@physx@@QEAAXI@Z 00000001800575f4     RTreeCooking.obj
 0002:000065fc       $unwind$?allocate@?$Array@UPxBounds3V@physx@@VNamedAllocator@shdfnd@2@@shdfnd@physx@@IEAAPEAUPxBounds3V@3@I@Z 00000001800575fc     RTreeCooking.obj
 0002:00006604       $unwind$?deallocate@?$Array@UPxBounds3V@physx@@VNamedAllocator@shdfnd@2@@shdfnd@physx@@IEAAXPEAX@Z 0000000180057604     RTreeCooking.obj
 0002:0000660c       $unwind$?copy@?$Array@UPxBounds3V@physx@@VNamedAllocator@shdfnd@2@@shdfnd@physx@@KAXPEAUPxBounds3V@3@0PEBU43@@Z 000000018005760c     RTreeCooking.obj
 0002:00006618       $unwind$?growAndPushBack@?$Array@UPxBounds3V@physx@@VNamedAllocator@shdfnd@2@@shdfnd@physx@@IEAAAEAUPxBounds3V@3@AEBU43@@Z 0000000180057618     RTreeCooking.obj
 0002:00006624       $unwind$?grow@?$Array@UPxBounds3V@physx@@VNamedAllocator@shdfnd@2@@shdfnd@physx@@IEAAXI@Z 0000000180057624     RTreeCooking.obj
 0002:0000662c       $unwind$?recreate@?$Array@UPxBounds3V@physx@@VNamedAllocator@shdfnd@2@@shdfnd@physx@@IEAAXI@Z 000000018005762c     RTreeCooking.obj
 0002:00006634       $unwind$?capacityIncrement@?$Array@UPxBounds3V@physx@@VNamedAllocator@shdfnd@2@@shdfnd@physx@@IEBAIXZ 0000000180057634     RTreeCooking.obj
 0002:0000663c       $unwind$??0?$Array@IVNamedAllocator@shdfnd@physx@@@shdfnd@physx@@QEAA@IAEBIAEBVNamedAllocator@12@@Z 000000018005763c     RTreeCooking.obj
 0002:00006644       $unwind$??1?$Array@IVNamedAllocator@shdfnd@physx@@@shdfnd@physx@@QEAA@XZ 0000000180057644     RTreeCooking.obj
 0002:0000664c       $unwind$??A?$Array@IVNamedAllocator@shdfnd@physx@@@shdfnd@physx@@QEAAAEAII@Z 000000018005764c     RTreeCooking.obj
 0002:00006654       $unwind$?pushBack@?$Array@IVNamedAllocator@shdfnd@physx@@@shdfnd@physx@@QEAAAEAIAEBI@Z 0000000180057654     RTreeCooking.obj
 0002:0000665c       $unwind$?popBack@?$Array@IVNamedAllocator@shdfnd@physx@@@shdfnd@physx@@QEAAIXZ 000000018005765c     RTreeCooking.obj
 0002:00006664       $unwind$?resize@?$Array@IVNamedAllocator@shdfnd@physx@@@shdfnd@physx@@QEAAXIAEBI@Z 0000000180057664     RTreeCooking.obj
 0002:0000666c       $unwind$?reserve@?$Array@IVNamedAllocator@shdfnd@physx@@@shdfnd@physx@@QEAAXI@Z 000000018005766c     RTreeCooking.obj
 0002:00006674       $unwind$?allocate@?$Array@IVNamedAllocator@shdfnd@physx@@@shdfnd@physx@@IEAAPEAII@Z 0000000180057674     RTreeCooking.obj
 0002:0000667c       $unwind$?deallocate@?$Array@IVNamedAllocator@shdfnd@physx@@@shdfnd@physx@@IEAAXPEAX@Z 000000018005767c     RTreeCooking.obj
 0002:00006684       $unwind$?create@?$Array@IVNamedAllocator@shdfnd@physx@@@shdfnd@physx@@KAXPEAI0AEBI@Z 0000000180057684     RTreeCooking.obj
 0002:0000668c       $unwind$?copy@?$Array@IVNamedAllocator@shdfnd@physx@@@shdfnd@physx@@KAXPEAI0PEBI@Z 000000018005768c     RTreeCooking.obj
 0002:00006694       $unwind$?growAndPushBack@?$Array@IVNamedAllocator@shdfnd@physx@@@shdfnd@physx@@IEAAAEAIAEBI@Z 0000000180057694     RTreeCooking.obj
 0002:0000669c       $unwind$?grow@?$Array@IVNamedAllocator@shdfnd@physx@@@shdfnd@physx@@IEAAXI@Z 000000018005769c     RTreeCooking.obj
 0002:000066a4       $unwind$?recreate@?$Array@IVNamedAllocator@shdfnd@physx@@@shdfnd@physx@@IEAAXI@Z 00000001800576a4     RTreeCooking.obj
 0002:000066ac       $unwind$?capacityIncrement@?$Array@IVNamedAllocator@shdfnd@physx@@@shdfnd@physx@@IEBAIXZ 00000001800576ac     RTreeCooking.obj
 0002:000066b4       $unwind$??RBoundsLTE@physx@@QEBA_NAEBI0@Z 00000001800576b4     RTreeCooking.obj
 0002:000066bc       $unwind$?reserve@?$Array@VPxVec3@physx@@VNamedAllocator@shdfnd@2@@shdfnd@physx@@QEAAXI@Z 00000001800576bc     RTreeCooking.obj
 0002:000066c4       $unwind$?grow@?$Array@VPxVec3@physx@@VNamedAllocator@shdfnd@2@@shdfnd@physx@@IEAAXI@Z 00000001800576c4     RTreeCooking.obj
 0002:000066cc       $unwind$?recreate@?$Array@VPxVec3@physx@@VNamedAllocator@shdfnd@2@@shdfnd@physx@@IEAAXI@Z 00000001800576cc     RTreeCooking.obj
 0002:000066d4       $unwind$??0SubSortQuick@physx@@QEAA@PEAIPEBUPxBounds3V@1@IM@Z 00000001800576d4     RTreeCooking.obj
 0002:000066dc       $unwind$?sort4@SubSortQuick@physx@@QEAAXPEIAIIAEAV?$Array@URTreeNodeNQ@physx@@VNamedAllocator@shdfnd@2@@shdfnd@2@AEAIAEAUPxBounds3V@2@I@Z 00000001800576dc     RTreeCooking.obj
 0002:000066e8       $unwind$??1SubSortQuick@physx@@QEAA@XZ 00000001800576e8     RTreeCooking.obj
 0002:000066f0       $unwind$??$PxMin@I@physx@@YAIII@Z 00000001800576f0     RTreeCooking.obj
 0002:000066f8       $unwind$??0?$Array@URTreeNodeNQ@physx@@VNamedAllocator@shdfnd@2@@shdfnd@physx@@QEAA@AEBVNamedAllocator@12@@Z 00000001800576f8     RTreeCooking.obj
 0002:00006700       $unwind$??1?$Array@URTreeNodeNQ@physx@@VNamedAllocator@shdfnd@2@@shdfnd@physx@@QEAA@XZ 0000000180057700     RTreeCooking.obj
 0002:00006708       $unwind$??A?$Array@URTreeNodeNQ@physx@@VNamedAllocator@shdfnd@2@@shdfnd@physx@@QEAAAEAURTreeNodeNQ@2@I@Z 0000000180057708     RTreeCooking.obj
 0002:00006710       $unwind$?pushBack@?$Array@URTreeNodeNQ@physx@@VNamedAllocator@shdfnd@2@@shdfnd@physx@@QEAAAEAURTreeNodeNQ@3@AEBU43@@Z 0000000180057710     RTreeCooking.obj
 0002:00006718       $unwind$?resizeUninitialized@?$Array@URTreeNodeNQ@physx@@VNamedAllocator@shdfnd@2@@shdfnd@physx@@QEAAXI@Z 0000000180057718     RTreeCooking.obj
 0002:00006720       $unwind$?reserve@?$Array@URTreeNodeNQ@physx@@VNamedAllocator@shdfnd@2@@shdfnd@physx@@QEAAXI@Z 0000000180057720     RTreeCooking.obj
 0002:00006728       $unwind$?allocate@?$Array@URTreeNodeNQ@physx@@VNamedAllocator@shdfnd@2@@shdfnd@physx@@IEAAPEAURTreeNodeNQ@3@I@Z 0000000180057728     RTreeCooking.obj
 0002:00006730       $unwind$?deallocate@?$Array@URTreeNodeNQ@physx@@VNamedAllocator@shdfnd@2@@shdfnd@physx@@IEAAXPEAX@Z 0000000180057730     RTreeCooking.obj
 0002:00006738       $unwind$?copy@?$Array@URTreeNodeNQ@physx@@VNamedAllocator@shdfnd@2@@shdfnd@physx@@KAXPEAURTreeNodeNQ@3@0PEBU43@@Z 0000000180057738     RTreeCooking.obj
 0002:00006740       $unwind$?growAndPushBack@?$Array@URTreeNodeNQ@physx@@VNamedAllocator@shdfnd@2@@shdfnd@physx@@IEAAAEAURTreeNodeNQ@3@AEBU43@@Z 0000000180057740     RTreeCooking.obj
 0002:00006748       $unwind$?grow@?$Array@URTreeNodeNQ@physx@@VNamedAllocator@shdfnd@2@@shdfnd@physx@@IEAAXI@Z 0000000180057748     RTreeCooking.obj
 0002:00006750       $unwind$?recreate@?$Array@URTreeNodeNQ@physx@@VNamedAllocator@shdfnd@2@@shdfnd@physx@@IEAAXI@Z 0000000180057750     RTreeCooking.obj
 0002:00006758       $unwind$?capacityIncrement@?$Array@URTreeNodeNQ@physx@@VNamedAllocator@shdfnd@2@@shdfnd@physx@@IEBAIXZ 0000000180057758     RTreeCooking.obj
 0002:00006760       $unwind$??$PxMax@H@physx@@YAHHH@Z 0000000180057760     RTreeCooking.obj
 0002:00006768       $unwind$??$quickSelectFirstK@UBoundsLTE@physx@@@quickSelect@physx@@YAXPEIAIIIIAEBUBoundsLTE@1@@Z 0000000180057768     RTreeCooking.obj
 0002:00006770       $unwind$??RSortBoundsPredicate@physx@@QEBA_NAEBI0@Z 0000000180057770     RTreeCooking.obj
 0002:00006778       $unwind$??0SubSortSAH@physx@@QEAA@PEAIPEBUPxBounds3V@1@IPEBI22222M@Z 0000000180057778     RTreeCooking.obj
 0002:00006780       $unwind$??1SubSortSAH@physx@@QEAA@XZ 0000000180057780     RTreeCooking.obj
 0002:00006788       $unwind$?split@SubSortSAH@physx@@QEAAIPEAII@Z 0000000180057788     RTreeCooking.obj
 0002:00006790       $unwind$?computeSA@SubSortSAH@physx@@QEAAMPEBIAEBUInterval@2@@Z 0000000180057790     RTreeCooking.obj
 0002:00006798       $unwind$?sort4@SubSortSAH@physx@@QEAAXPEAIIAEAV?$Array@URTreeNodeNQ@physx@@VNamedAllocator@shdfnd@2@@shdfnd@2@AEAIIPEAURTreeNodeNQ@2@@Z 0000000180057798     RTreeCooking.obj
 0002:000067a4       $unwind$??$sort@I@shdfnd@physx@@YAXPEAII@Z 00000001800577a4     RTreeCooking.obj
 0002:000067ac       $unwind$??0?$InlineAllocator@$0CAAA@VNamedAllocator@shdfnd@physx@@@shdfnd@physx@@QEAA@AEBVNamedAllocator@12@@Z 00000001800577ac     RTreeCooking.obj
 0002:000067b4       $unwind$??0?$InlineAllocator@$0CAAA@VNamedAllocator@shdfnd@physx@@@shdfnd@physx@@QEAA@AEBV012@@Z 00000001800577b4     RTreeCooking.obj
 0002:000067bc       $unwind$?allocate@?$InlineAllocator@$0CAAA@VNamedAllocator@shdfnd@physx@@@shdfnd@physx@@QEAAPEAXIPEBDH@Z 00000001800577bc     RTreeCooking.obj
 0002:000067c4       $unwind$?deallocate@?$InlineAllocator@$0CAAA@VNamedAllocator@shdfnd@physx@@@shdfnd@physx@@QEAAXPEAX@Z 00000001800577c4     RTreeCooking.obj
 0002:000067cc       $unwind$??1?$InlineAllocator@$0CAAA@VNamedAllocator@shdfnd@physx@@@shdfnd@physx@@QEAA@XZ 00000001800577cc     RTreeCooking.obj
 0002:000067d4       $unwind$??0?$Array@UInterval@physx@@V?$InlineAllocator@$0CAAA@VNamedAllocator@shdfnd@physx@@@shdfnd@2@@shdfnd@physx@@QEAA@AEBV?$InlineAllocator@$0CAAA@VNamedAllocator@shdfnd@physx@@@12@@Z 00000001800577d4     RTreeCooking.obj
 0002:000067dc       $unwind$??1?$Array@UInterval@physx@@V?$InlineAllocator@$0CAAA@VNamedAllocator@shdfnd@physx@@@shdfnd@2@@shdfnd@physx@@QEAA@XZ 00000001800577dc     RTreeCooking.obj
 0002:000067e4       $unwind$??A?$Array@UInterval@physx@@V?$InlineAllocator@$0CAAA@VNamedAllocator@shdfnd@physx@@@shdfnd@2@@shdfnd@physx@@QEAAAEAUInterval@2@I@Z 00000001800577e4     RTreeCooking.obj
 0002:000067ec       $unwind$?pushBack@?$Array@UInterval@physx@@V?$InlineAllocator@$0CAAA@VNamedAllocator@shdfnd@physx@@@shdfnd@2@@shdfnd@physx@@QEAAAEAUInterval@3@AEBU43@@Z 00000001800577ec     RTreeCooking.obj
 0002:000067f4       $unwind$?replaceWithLast@?$Array@UInterval@physx@@V?$InlineAllocator@$0CAAA@VNamedAllocator@shdfnd@physx@@@shdfnd@2@@shdfnd@physx@@QEAAXI@Z 00000001800577f4     RTreeCooking.obj
 0002:000067fc       $unwind$?allocate@?$Array@UInterval@physx@@V?$InlineAllocator@$0CAAA@VNamedAllocator@shdfnd@physx@@@shdfnd@2@@shdfnd@physx@@IEAAPEAUInterval@3@I@Z 00000001800577fc     RTreeCooking.obj
 0002:00006804       $unwind$?deallocate@?$Array@UInterval@physx@@V?$InlineAllocator@$0CAAA@VNamedAllocator@shdfnd@physx@@@shdfnd@2@@shdfnd@physx@@IEAAXPEAX@Z 0000000180057804     RTreeCooking.obj
 0002:0000680c       $unwind$?copy@?$Array@UInterval@physx@@V?$InlineAllocator@$0CAAA@VNamedAllocator@shdfnd@physx@@@shdfnd@2@@shdfnd@physx@@KAXPEAUInterval@3@0PEBU43@@Z 000000018005780c     RTreeCooking.obj
 0002:00006814       $unwind$?growAndPushBack@?$Array@UInterval@physx@@V?$InlineAllocator@$0CAAA@VNamedAllocator@shdfnd@physx@@@shdfnd@2@@shdfnd@physx@@IEAAAEAUInterval@3@AEBU43@@Z 0000000180057814     RTreeCooking.obj
 0002:0000681c       $unwind$?capacityIncrement@?$Array@UInterval@physx@@V?$InlineAllocator@$0CAAA@VNamedAllocator@shdfnd@physx@@@shdfnd@2@@shdfnd@physx@@IEBAIXZ 000000018005781c     RTreeCooking.obj
 0002:00006824       $unwind$??0?$InlineArray@UInterval@physx@@$0EAA@VNamedAllocator@shdfnd@2@@shdfnd@physx@@QEAA@AEBVNamedAllocator@12@@Z 0000000180057824     RTreeCooking.obj
 0002:0000682c       $unwind$??1?$InlineArray@UInterval@physx@@$0EAA@VNamedAllocator@shdfnd@2@@shdfnd@physx@@QEAA@XZ 000000018005782c     RTreeCooking.obj
 0002:00006834       $unwind$??$sort@IUSortBoundsPredicate@physx@@@shdfnd@physx@@YAXPEAIIAEBUSortBoundsPredicate@1@@Z 0000000180057834     RTreeCooking.obj
 0002:0000683c       $unwind$??0?$Array@URTreeNodeQ@Gu@physx@@VNamedAllocator@shdfnd@3@@shdfnd@physx@@QEAA@AEBVNamedAllocator@12@@Z 000000018005783c     RTreeCooking.obj
 0002:00006844       $unwind$??1?$Array@URTreeNodeQ@Gu@physx@@VNamedAllocator@shdfnd@3@@shdfnd@physx@@QEAA@XZ 0000000180057844     RTreeCooking.obj
 0002:0000684c       $unwind$??A?$Array@URTreeNodeQ@Gu@physx@@VNamedAllocator@shdfnd@3@@shdfnd@physx@@QEAAAEAURTreeNodeQ@Gu@2@I@Z 000000018005784c     RTreeCooking.obj
 0002:00006854       $unwind$?pushBack@?$Array@URTreeNodeQ@Gu@physx@@VNamedAllocator@shdfnd@3@@shdfnd@physx@@QEAAAEAURTreeNodeQ@Gu@3@AEBU453@@Z 0000000180057854     RTreeCooking.obj
 0002:00006860       $unwind$?reserve@?$Array@URTreeNodeQ@Gu@physx@@VNamedAllocator@shdfnd@3@@shdfnd@physx@@QEAAXI@Z 0000000180057860     RTreeCooking.obj
 0002:00006868       $unwind$?allocate@?$Array@URTreeNodeQ@Gu@physx@@VNamedAllocator@shdfnd@3@@shdfnd@physx@@IEAAPEAURTreeNodeQ@Gu@3@I@Z 0000000180057868     RTreeCooking.obj
 0002:00006870       $unwind$?deallocate@?$Array@URTreeNodeQ@Gu@physx@@VNamedAllocator@shdfnd@3@@shdfnd@physx@@IEAAXPEAX@Z 0000000180057870     RTreeCooking.obj
 0002:00006878       $unwind$?copy@?$Array@URTreeNodeQ@Gu@physx@@VNamedAllocator@shdfnd@3@@shdfnd@physx@@KAXPEAURTreeNodeQ@Gu@3@0PEBU453@@Z 0000000180057878     RTreeCooking.obj
 0002:00006884       $unwind$?growAndPushBack@?$Array@URTreeNodeQ@Gu@physx@@VNamedAllocator@shdfnd@3@@shdfnd@physx@@IEAAAEAURTreeNodeQ@Gu@3@AEBU453@@Z 0000000180057884     RTreeCooking.obj
 0002:00006890       $unwind$?grow@?$Array@URTreeNodeQ@Gu@physx@@VNamedAllocator@shdfnd@3@@shdfnd@physx@@IEAAXI@Z 0000000180057890     RTreeCooking.obj
 0002:00006898       $unwind$?recreate@?$Array@URTreeNodeQ@Gu@physx@@VNamedAllocator@shdfnd@3@@shdfnd@physx@@IEAAXI@Z 0000000180057898     RTreeCooking.obj
 0002:000068a0       $unwind$?capacityIncrement@?$Array@URTreeNodeQ@Gu@physx@@VNamedAllocator@shdfnd@3@@shdfnd@physx@@IEBAIXZ 00000001800578a0     RTreeCooking.obj
 0002:000068a8       $unwind$??$partition@UBoundsLTE@physx@@@quickSelect@physx@@YAIPEIAIIIIAEBUBoundsLTE@1@@Z 00000001800578a8     RTreeCooking.obj
 0002:000068b0       $unwind$??R?$Less@I@shdfnd@physx@@QEBA_NAEBI0@Z 00000001800578b0     RTreeCooking.obj
 0002:000068b8       $unwind$??$sort@IU?$Less@I@shdfnd@physx@@VNamedAllocator@23@@shdfnd@physx@@YAXPEAIIAEBU?$Less@I@01@AEBVNamedAllocator@01@I@Z 00000001800578b8     RTreeCooking.obj
 0002:000068c4       $unwind$??$sort@IUSortBoundsPredicate@physx@@VNamedAllocator@shdfnd@2@@shdfnd@physx@@YAXPEAIIAEBUSortBoundsPredicate@1@AEBVNamedAllocator@01@I@Z 00000001800578c4     RTreeCooking.obj
 0002:000068d0       $unwind$??1?$ScopedPointer@HVTempAllocator@shdfnd@physx@@@shdfnd@physx@@QEAA@XZ 00000001800578d0     RTreeCooking.obj
 0002:000068d8       $unwind$??0?$ScopedPointer@HVTempAllocator@shdfnd@physx@@@shdfnd@physx@@QEAA@XZ 00000001800578d8     RTreeCooking.obj
 0002:000068e0       $unwind$??0?$Stack@VNamedAllocator@shdfnd@physx@@@internal@shdfnd@physx@@QEAA@PEAHIAEBVNamedAllocator@23@@Z 00000001800578e0     RTreeCooking.obj
 0002:000068e8       $unwind$??1?$Stack@VNamedAllocator@shdfnd@physx@@@internal@shdfnd@physx@@QEAA@XZ 00000001800578e8     RTreeCooking.obj
 0002:000068f0       $unwind$?grow@?$Stack@VNamedAllocator@shdfnd@physx@@@internal@shdfnd@physx@@QEAAXXZ 00000001800578f0     RTreeCooking.obj
 0002:000068f8       $unwind$?push@?$Stack@VNamedAllocator@shdfnd@physx@@@internal@shdfnd@physx@@QEAAXHH@Z 00000001800578f8     RTreeCooking.obj
 0002:00006900       $unwind$?pop@?$Stack@VNamedAllocator@shdfnd@physx@@@internal@shdfnd@physx@@QEAAXAEAH0@Z 0000000180057900     RTreeCooking.obj
 0002:00006908       $unwind$?empty@?$Stack@VNamedAllocator@shdfnd@physx@@@internal@shdfnd@physx@@QEAA_NXZ 0000000180057908     RTreeCooking.obj
 0002:00006910       $unwind$??$smallSort@I$$CBU?$Less@I@shdfnd@physx@@@internal@shdfnd@physx@@YAXPEAIHHAEBU?$Less@I@12@@Z 0000000180057910     RTreeCooking.obj
 0002:00006918       $unwind$??$partition@I$$CBU?$Less@I@shdfnd@physx@@@internal@shdfnd@physx@@YAHPEAIHHAEBU?$Less@I@12@@Z 0000000180057918     RTreeCooking.obj
 0002:00006920       $unwind$??$smallSort@I$$CBUSortBoundsPredicate@physx@@@internal@shdfnd@physx@@YAXPEAIHHAEBUSortBoundsPredicate@2@@Z 0000000180057920     RTreeCooking.obj
 0002:00006928       $unwind$??$partition@I$$CBUSortBoundsPredicate@physx@@@internal@shdfnd@physx@@YAHPEAIHHAEBUSortBoundsPredicate@2@@Z 0000000180057928     RTreeCooking.obj
 0002:00006930       $unwind$??$median3@I$$CBU?$Less@I@shdfnd@physx@@@internal@shdfnd@physx@@YAXPEAIHHAEBU?$Less@I@12@@Z 0000000180057930     RTreeCooking.obj
 0002:00006938       $unwind$??$median3@I$$CBUSortBoundsPredicate@physx@@@internal@shdfnd@physx@@YAXPEAIHHAEBUSortBoundsPredicate@2@@Z 0000000180057938     RTreeCooking.obj
 0002:00006940       $unwind$??__EminFError@_VecMathTests@aos@shdfnd@physx@@YAXXZ 0000000180057940     MeshBuilder.obj
 0002:00006948       $unwind$??__EmaxFError@_VecMathTests@aos@shdfnd@physx@@YAXXZ 0000000180057948     MeshBuilder.obj
 0002:00006950       $unwind$??__EminV3Error@_VecMathTests@aos@shdfnd@physx@@YAXXZ 0000000180057950     MeshBuilder.obj
 0002:00006958       $unwind$??__EmaxV3Error@_VecMathTests@aos@shdfnd@physx@@YAXXZ 0000000180057958     MeshBuilder.obj
 0002:00006960       $unwind$??__EminV4Error@_VecMathTests@aos@shdfnd@physx@@YAXXZ 0000000180057960     MeshBuilder.obj
 0002:00006968       $unwind$??__EmaxV4Error@_VecMathTests@aos@shdfnd@physx@@YAXXZ 0000000180057968     MeshBuilder.obj
 0002:00006970       $unwind$?computeLocalBounds@MeshBulider@physx@@IEAAXAEAVMeshDataBase@Gu@2@@Z 0000000180057970     MeshBuilder.obj
 0002:00006978       $unwind$??S?$PxFlags@W4Enum@PxMeshFlag@physx@@G@physx@@QEBA?AV01@XZ 0000000180057978     TriangleMeshBuilder.obj
 0002:00006980       $unwind$??Sphysx@@YA?AV?$PxFlags@W4Enum@PxMeshFlag@physx@@G@0@W4Enum@PxMeshFlag@0@@Z 0000000180057980     TriangleMeshBuilder.obj
 0002:00006988       $unwind$??0PxSimpleTriangleMesh@physx@@QEAA@AEBV01@@Z 0000000180057988     TriangleMeshBuilder.obj
 0002:00006994       $unwind$??0PxTriangleMeshDesc@physx@@QEAA@AEBV01@@Z 0000000180057994     TriangleMeshBuilder.obj
 0002:000069a0       $unwind$??0PxPlane@physx@@QEAA@AEBVPxVec3@1@0@Z 00000001800579a0     TriangleMeshBuilder.obj
 0002:000069a8       $unwind$?isValid@PxMidphaseDesc@physx@@QEBA_NXZ 00000001800579a8     TriangleMeshBuilder.obj
 0002:000069b0       $unwind$??__EminFError@_VecMathTests@aos@shdfnd@physx@@YAXXZ 00000001800579b0     TriangleMeshBuilder.obj
 0002:000069b8       $unwind$??__EmaxFError@_VecMathTests@aos@shdfnd@physx@@YAXXZ 00000001800579b8     TriangleMeshBuilder.obj
 0002:000069c0       $unwind$??__EminV3Error@_VecMathTests@aos@shdfnd@physx@@YAXXZ 00000001800579c0     TriangleMeshBuilder.obj
 0002:000069c8       $unwind$??__EmaxV3Error@_VecMathTests@aos@shdfnd@physx@@YAXXZ 00000001800579c8     TriangleMeshBuilder.obj
 0002:000069d0       $unwind$??__EminV4Error@_VecMathTests@aos@shdfnd@physx@@YAXXZ 00000001800579d0     TriangleMeshBuilder.obj
 0002:000069d8       $unwind$??__EmaxV4Error@_VecMathTests@aos@shdfnd@physx@@YAXXZ 00000001800579d8     TriangleMeshBuilder.obj
 0002:000069e0       $unwind$??0RTree@Gu@physx@@QEAA@XZ 00000001800579e0     TriangleMeshBuilder.obj
 0002:000069e8       $unwind$??1RTree@Gu@physx@@QEAA@XZ 00000001800579e8     TriangleMeshBuilder.obj
 0002:000069f0       $unwind$?release@RTree@Gu@physx@@QEAAXXZ 00000001800579f0     TriangleMeshBuilder.obj
 0002:000069f8       $unwind$?deallocate@?$AlignedAllocator@$0IA@VNonTrackingAllocator@shdfnd@physx@@@shdfnd@physx@@QEAAXPEAX@Z 00000001800579f8     TriangleMeshBuilder.obj
 0002:00006a00       $unwind$?LeafSetData@Gu@physx@@YAIII@Z 0000000180057a00     TriangleMeshBuilder.obj
 0002:00006a08       $unwind$?SetData@LeafTriangles@Gu@physx@@QEAAXII@Z 0000000180057a08     TriangleMeshBuilder.obj
 0002:00006a10       $unwind$?releaseRemap@SourceMeshBase@Gu@physx@@QEAAXXZ 0000000180057a10     TriangleMeshBuilder.obj
 0002:00006a18       $unwind$??_GBV32Tree@Gu@physx@@QEAAPEAXI@Z 0000000180057a18     TriangleMeshBuilder.obj
 0002:00006a20       $unwind$??0MeshDataBase@Gu@physx@@QEAA@XZ 0000000180057a20     TriangleMeshBuilder.obj
 0002:00006a28       $unwind$??1MeshDataBase@Gu@physx@@UEAA@XZ 0000000180057a28     TriangleMeshBuilder.obj
 0002:00006a30       $unwind$?allocateVertices@MeshDataBase@Gu@physx@@QEAAPEAVPxVec3@3@I@Z 0000000180057a30     TriangleMeshBuilder.obj
 0002:00006a38       $unwind$?has16BitIndices@MeshDataBase@Gu@physx@@QEBA_NXZ 0000000180057a38     TriangleMeshBuilder.obj
 0002:00006a40       $unwind$??_GMeshDataBase@Gu@physx@@UEAAPEAXI@Z 0000000180057a40     TriangleMeshBuilder.obj
 0002:00006a48       $unwind$??0TriangleMeshData@Gu@physx@@QEAA@XZ 0000000180057a48     TriangleMeshBuilder.obj
 0002:00006a50       $unwind$??1TriangleMeshData@Gu@physx@@UEAA@XZ 0000000180057a50     TriangleMeshBuilder.obj
 0002:00006a58       $unwind$?allocateTriangles@TriangleMeshData@Gu@physx@@QEAAPEAXI_NI@Z 0000000180057a58     TriangleMeshBuilder.obj
 0002:00006a60       $unwind$?allocateMaterials@TriangleMeshData@Gu@physx@@QEAAPEAGXZ 0000000180057a60     TriangleMeshBuilder.obj
 0002:00006a68       $unwind$?setTriangleAdjacency@TriangleMeshData@Gu@physx@@QEAAXIII@Z 0000000180057a68     TriangleMeshBuilder.obj
 0002:00006a70       $unwind$??_GTriangleMeshData@Gu@physx@@UEAAPEAXI@Z 0000000180057a70     TriangleMeshBuilder.obj
 0002:00006a78       $unwind$?getName@?$ReflectionAllocator@G@shdfnd@physx@@CAPEBDXZ 0000000180057a78     TriangleMeshBuilder.obj
 0002:00006a80       $unwind$?allocate@?$ReflectionAllocator@G@shdfnd@physx@@QEAAPEAX_KPEBDH@Z 0000000180057a80     TriangleMeshBuilder.obj
 0002:00006a88       $unwind$??$?_UG@@YAPEAX_KV?$ReflectionAllocator@G@shdfnd@physx@@PEBDH@Z 0000000180057a88     TriangleMeshBuilder.obj
 0002:00006a90       $unwind$?getName@?$ReflectionAllocator@E@shdfnd@physx@@CAPEBDXZ 0000000180057a90     TriangleMeshBuilder.obj
 0002:00006a98       $unwind$?allocate@?$ReflectionAllocator@E@shdfnd@physx@@QEAAPEAX_KPEBDH@Z 0000000180057a98     TriangleMeshBuilder.obj
 0002:00006aa0       $unwind$??$?_UE@@YAPEAX_KV?$ReflectionAllocator@E@shdfnd@physx@@PEBDH@Z 0000000180057aa0     TriangleMeshBuilder.obj
 0002:00006aa8       $unwind$??0RTreeTriangleData@Gu@physx@@QEAA@XZ 0000000180057aa8     TriangleMeshBuilder.obj
 0002:00006ab0       $unwind$??1RTreeTriangleData@Gu@physx@@UEAA@XZ 0000000180057ab0     TriangleMeshBuilder.obj
 0002:00006ab8       $unwind$??_GRTreeTriangleData@Gu@physx@@UEAAPEAXI@Z 0000000180057ab8     TriangleMeshBuilder.obj
 0002:00006ac0       $unwind$??0BV4TriangleData@Gu@physx@@QEAA@XZ 0000000180057ac0     TriangleMeshBuilder.obj
 0002:00006ac8       $unwind$??1BV4TriangleData@Gu@physx@@UEAA@XZ 0000000180057ac8     TriangleMeshBuilder.obj
